	.file	"arch_x86.c"
	.text
.Ltext0:
	.section	.text.unlikely,"ax",@progbits
.LCOLDB0:
	.text
.LHOTB0:
	.p2align 4,,15
	.section	.text.unlikely
.Ltext_cold0:
	.text
	.type	ReadCmosData, @function
ReadCmosData:
.LFB7:
	.file 1 "arch_x86.c"
	.loc 1 311 0
	.cfi_startproc
.LVL0:
	.loc 1 313 0
#APP
# 313 "arch_x86.c" 1
	.code32				
	pushl	%ebp			
	movl	%esp,	%ebp	
	pushl	%ebx			
	pushl	%edx			
	movl	0x08(%ebp),%ebx	
	xorw	%ax,	%ax	
	movb	%dl,	%al	
	outb	%al,	$0x70	
	inb	$0x71,	%al	
	movw	%ax,	(%ebx)	
	popl	%edx			
	popl	%ebx			
	leave					
	ret					
	
# 0 "" 2
.LVL1:
	.loc 1 356 0
#NO_APP
	ret
	.cfi_endproc
.LFE7:
	.size	ReadCmosData, .-ReadCmosData
	.section	.text.unlikely
.LCOLDE0:
	.text
.LHOTE0:
	.section	.text.unlikely
.LCOLDB1:
	.text
.LHOTB1:
	.p2align 4,,15
	.globl	HardwareInitialize
	.type	HardwareInitialize, @function
HardwareInitialize:
.LFB0:
	.loc 1 41 0
	.cfi_startproc
	.loc 1 45 0
	movl	$1, %eax
	ret
	.cfi_endproc
.LFE0:
	.size	HardwareInitialize, .-HardwareInitialize
	.section	.text.unlikely
.LCOLDE1:
	.text
.LHOTE1:
	.section	.text.unlikely
.LCOLDB2:
	.text
.LHOTB2:
	.p2align 4,,15
	.globl	__SwitchTo
	.type	__SwitchTo, @function
__SwitchTo:
.LFB1:
	.loc 1 53 0
	.cfi_startproc
.LVL2:
	.loc 1 55 0
#APP
# 55 "arch_x86.c" 1
	.code32						
	 pushl 	%ebp					
	movl	%esp,	%ebp			
	movl	0x08(%ebp),	%esp	
	popl	%ebp	
	popl	%edi	
	popl	%esi	
	popl	%edx	
	popl	%ecx	
	popl	%ebx	
	movb	$0x20,	%al	
	outb	%al,	$0x20	
	outb	%al,	$0xa0	
	popl	%eax			
	iret					
	
# 0 "" 2
#NO_APP
	ret
	.cfi_endproc
.LFE1:
	.size	__SwitchTo, .-__SwitchTo
	.section	.text.unlikely
.LCOLDE2:
	.text
.LHOTE2:
	.section	.text.unlikely
.LCOLDB3:
	.text
.LHOTB3:
	.p2align 4,,15
	.globl	__SaveAndSwitch
	.type	__SaveAndSwitch, @function
__SaveAndSwitch:
.LFB2:
	.loc 1 110 0
	.cfi_startproc
.LVL3:
	.loc 1 113 0
#APP
# 113 "arch_x86.c" 1
	.code32								
	movl	%esp,	dwTmpEbp                  	
	popl	dwTmpEip		                      	
	movl	%eax,	dwTmpEax   				
	pushf             					
	xorl	%eax,	%eax     				
	movw	%cs,	%ax          				
	pushl	%eax           				
	pushl	dwTmpEip      				
	pushl dwTmpEax      				
	pushl %ebx                          	
	pushl %ecx                          	
	pushl %edx                          	
	pushl %esi                          	
	pushl %edi                          	
	pushl %ebp                          	
	             	                     	
	movl %ebp,dwTmpEbp                  		
	movl 0x04(%ebp),	%ebx				
	movl %esp,	(%ebx)					
	                                     
	movl 0x08(%ebp),	%ebx				
	movl (%ebx),		%esp   			  
	popl %ebp                              
	popl %edi                              
	popl %esi                              
	popl %edx                            
	popl %ecx                 			
	popl %ebx         					
	popl %eax							
	iret
# 0 "" 2
#NO_APP
	ret
	.cfi_endproc
.LFE2:
	.size	__SaveAndSwitch, .-__SaveAndSwitch
	.section	.text.unlikely
.LCOLDE3:
	.text
.LHOTE3:
	.section	.text.unlikely
.LCOLDB4:
	.text
.LHOTB4:
	.p2align 4,,15
	.globl	EnableVMM
	.type	EnableVMM, @function
EnableVMM:
.LFB3:
	.loc 1 191 0
	.cfi_startproc
	.loc 1 193 0
	movl	$2031616, %eax
#APP
# 193 "arch_x86.c" 1
	.code32			
	pushl	%eax		
	movl	%eax,	%eax	
	movl	%eax,		%cr3	
	movl	%cr0,		%eax	
	orl	$0x80000000,	%eax	
	movl	%eax,		%cr0	
	popl	%eax				
	
# 0 "" 2
#NO_APP
	ret
	.cfi_endproc
.LFE3:
	.size	EnableVMM, .-EnableVMM
	.section	.text.unlikely
.LCOLDE4:
	.text
.LHOTE4:
	.section	.text.unlikely
.LCOLDB5:
	.text
.LHOTB5:
	.p2align 4,,15
	.globl	HaltSystem
	.type	HaltSystem, @function
HaltSystem:
.LFB4:
	.loc 1 221 0
	.cfi_startproc
	.loc 1 223 0
#APP
# 223 "arch_x86.c" 1
	hlt	
	
# 0 "" 2
#NO_APP
	ret
	.cfi_endproc
.LFE4:
	.size	HaltSystem, .-HaltSystem
	.section	.text.unlikely
.LCOLDE5:
	.text
.LHOTE5:
	.section	.text.unlikely
.LCOLDB6:
	.text
.LHOTB6:
	.p2align 4,,15
	.globl	InitKernelThreadContext
	.type	InitKernelThreadContext, @function
InitKernelThreadContext:
.LFB5:
	.loc 1 237 0
	.cfi_startproc
.LVL4:
	.loc 1 237 0
	movl	4(%esp), %edx
	movl	8(%esp), %ecx
	.loc 1 241 0
	testl	%edx, %edx
	je	.L7
	testl	%ecx, %ecx
	je	.L7
	.loc 1 253 0
	movl	140(%edx), %eax
.LVL5:
	.loc 1 255 0
	movl	%edx, -4(%eax)
.LVL6:
	.loc 1 256 0
	movl	$0, -8(%eax)
.LVL7:
	.loc 1 266 0
	subl	$48, %eax
.LVL8:
	.loc 1 257 0
	movl	$512, 36(%eax)
.LVL9:
	.loc 1 258 0
	movl	$8, 32(%eax)
	.loc 1 259 0
	movl	%ecx, 28(%eax)
	.loc 1 260 0
	movl	$0, 24(%eax)
	.loc 1 261 0
	movl	$0, 20(%eax)
	.loc 1 262 0
	movl	$0, 16(%eax)
	.loc 1 263 0
	movl	$0, 12(%eax)
	.loc 1 264 0
	movl	$0, 8(%eax)
	.loc 1 265 0
	movl	$0, 4(%eax)
	.loc 1 266 0
	movl	$0, (%eax)
	movl	%eax, 84(%edx)
.LVL10:
.L7:
	rep ret
	.cfi_endproc
.LFE5:
	.size	InitKernelThreadContext, .-InitKernelThreadContext
	.section	.text.unlikely
.LCOLDE6:
	.text
.LHOTE6:
	.section	.text.unlikely
.LCOLDB7:
	.text
.LHOTB7:
	.p2align 4,,15
	.globl	__GetTsc
	.type	__GetTsc, @function
__GetTsc:
.LFB6:
	.loc 1 275 0
	.cfi_startproc
.LVL11:
	.loc 1 277 0
#APP
# 277 "arch_x86.c" 1
	.code32		
	pushl 	%eax	
	pushl	%edx	
	pushl	%ebx	
	rdtsc			
	movl	0x08(%ebp),	%ebx	
	movl	%eax,			(%ebx)	
	movl	%edx,		0x04(%ebx)	
	popl	%ebx	
	popl	%edx	
	popl	%eax	
	
# 0 "" 2
#NO_APP
	ret
	.cfi_endproc
.LFE6:
	.size	__GetTsc, .-__GetTsc
	.section	.text.unlikely
.LCOLDE7:
	.text
.LHOTE7:
	.section	.text.unlikely
.LCOLDB8:
	.text
.LHOTB8:
	.p2align 4,,15
	.globl	__GetTime
	.type	__GetTime, @function
__GetTime:
.LFB8:
	.loc 1 360 0
	.cfi_startproc
.LVL12:
	pushl	%ebx
	.cfi_def_cfa_offset 8
	.cfi_offset 3, -8
	.loc 1 360 0
	movl	8(%esp), %ebx
	.loc 1 361 0
	movl	$9, %edx
	movl	%ebx, %eax
	call	ReadCmosData
.LVL13:
	.loc 1 362 0
	leal	1(%ebx), %eax
	movl	$8, %edx
	call	ReadCmosData
.LVL14:
	.loc 1 363 0
	leal	2(%ebx), %eax
	movl	$7, %edx
	call	ReadCmosData
.LVL15:
	.loc 1 365 0
	leal	3(%ebx), %eax
	movl	$4, %edx
	call	ReadCmosData
.LVL16:
	.loc 1 366 0
	leal	4(%ebx), %eax
	movl	$2, %edx
	call	ReadCmosData
.LVL17:
	.loc 1 367 0
	leal	5(%ebx), %eax
	xorl	%edx, %edx
	call	ReadCmosData
.LVL18:
	.loc 1 370 0
	movzbl	(%ebx), %ecx
	movl	%ecx, %eax
	andl	$15, %ecx
	shrb	$4, %al
	leal	(%eax,%eax,4), %edx
	leal	(%ecx,%edx,2), %eax
	.loc 1 371 0
	movzbl	1(%ebx), %ecx
	.loc 1 370 0
	movb	%al, (%ebx)
	.loc 1 371 0
	movl	%ecx, %eax
	andl	$15, %ecx
	shrb	$4, %al
	leal	(%eax,%eax,4), %edx
	leal	(%ecx,%edx,2), %eax
	.loc 1 372 0
	movzbl	2(%ebx), %ecx
	.loc 1 371 0
	movb	%al, 1(%ebx)
	.loc 1 372 0
	movl	%ecx, %eax
	andl	$15, %ecx
	shrb	$4, %al
	leal	(%eax,%eax,4), %edx
	leal	(%ecx,%edx,2), %eax
	.loc 1 373 0
	movzbl	3(%ebx), %ecx
	.loc 1 372 0
	movb	%al, 2(%ebx)
	.loc 1 373 0
	movl	%ecx, %eax
	andl	$15, %ecx
	shrb	$4, %al
	leal	(%eax,%eax,4), %edx
	leal	(%ecx,%edx,2), %eax
	.loc 1 374 0
	movzbl	4(%ebx), %ecx
	.loc 1 373 0
	movb	%al, 3(%ebx)
	.loc 1 374 0
	movl	%ecx, %eax
	andl	$15, %ecx
	shrb	$4, %al
	leal	(%eax,%eax,4), %edx
	leal	(%ecx,%edx,2), %eax
	.loc 1 375 0
	movzbl	5(%ebx), %ecx
	.loc 1 374 0
	movb	%al, 4(%ebx)
	.loc 1 375 0
	movl	%ecx, %eax
	andl	$15, %ecx
	shrb	$4, %al
	leal	(%eax,%eax,4), %edx
	leal	(%ecx,%edx,2), %eax
	movb	%al, 5(%ebx)
	.loc 1 376 0
	popl	%ebx
	.cfi_restore 3
	.cfi_def_cfa_offset 4
	ret
	.cfi_endproc
.LFE8:
	.size	__GetTime, .-__GetTime
	.section	.text.unlikely
.LCOLDE8:
	.text
.LHOTE8:
	.section	.text.unlikely
.LCOLDB9:
	.text
.LHOTB9:
	.p2align 4,,15
	.globl	__MicroDelay
	.type	__MicroDelay, @function
__MicroDelay:
.LFB9:
	.loc 1 381 0
	.cfi_startproc
.LVL19:
	pushl	%esi
	.cfi_def_cfa_offset 8
	.cfi_offset 6, -8
	pushl	%ebx
	.cfi_def_cfa_offset 12
	.cfi_offset 3, -12
	subl	$28, %esp
	.cfi_def_cfa_offset 40
.LVL20:
.LBB6:
.LBB7:
	.loc 1 277 0
#APP
# 277 "arch_x86.c" 1
	.code32		
	pushl 	%eax	
	pushl	%edx	
	pushl	%ebx	
	rdtsc			
	movl	0x08(%ebp),	%ebx	
	movl	%eax,			(%ebx)	
	movl	%edx,		0x04(%ebx)	
	popl	%ebx	
	popl	%edx	
	popl	%eax	
	
# 0 "" 2
#NO_APP
.LBE7:
.LBE6:
	.loc 1 387 0
	movl	40(%esp), %eax
	.loc 1 386 0
	movl	$0, 12(%esp)
	.loc 1 387 0
	movl	%eax, 8(%esp)
	.loc 1 389 0
	pushl	$10
	.cfi_def_cfa_offset 44
	leal	12(%esp), %esi
	pushl	%esi
	.cfi_def_cfa_offset 48
	call	u64RotateLeft
.LVL21:
	.loc 1 390 0
	addl	$12, %esp
	.cfi_def_cfa_offset 36
	leal	12(%esp), %ebx
.LVL22:
	pushl	%ebx
	.cfi_def_cfa_offset 40
	pushl	%esi
	.cfi_def_cfa_offset 44
	pushl	%ebx
	.cfi_def_cfa_offset 48
	call	u64Add
.LVL23:
	addl	$16, %esp
	.cfi_def_cfa_offset 32
	.p2align 4,,10
	.p2align 3
.L14:
.LVL24:
.LBB8:
.LBB9:
	.loc 1 277 0
#APP
# 277 "arch_x86.c" 1
	.code32		
	pushl 	%eax	
	pushl	%edx	
	pushl	%ebx	
	rdtsc			
	movl	0x08(%ebp),	%ebx	
	movl	%eax,			(%ebx)	
	movl	%edx,		0x04(%ebx)	
	popl	%ebx	
	popl	%edx	
	popl	%eax	
	
# 0 "" 2
#NO_APP
.LBE9:
.LBE8:
	.loc 1 394 0
	subl	$8, %esp
	.cfi_def_cfa_offset 40
	pushl	%ebx
	.cfi_def_cfa_offset 44
	pushl	%esi
	.cfi_def_cfa_offset 48
	call	MoreThan
.LVL25:
	addl	$16, %esp
	.cfi_def_cfa_offset 32
	testl	%eax, %eax
	je	.L14
	.loc 1 400 0
	addl	$20, %esp
	.cfi_def_cfa_offset 12
	popl	%ebx
	.cfi_restore 3
	.cfi_def_cfa_offset 8
.LVL26:
	popl	%esi
	.cfi_restore 6
	.cfi_def_cfa_offset 4
.LVL27:
	ret
	.cfi_endproc
.LFE9:
	.size	__MicroDelay, .-__MicroDelay
	.section	.text.unlikely
.LCOLDE9:
	.text
.LHOTE9:
	.section	.text.unlikely
.LCOLDB10:
	.text
.LHOTB10:
	.p2align 4,,15
	.globl	__outd
	.type	__outd, @function
__outd:
.LFB10:
	.loc 1 403 0
	.cfi_startproc
.LVL28:
	.loc 1 405 0
	movl	8(%esp), %edx
	movl	4(%esp), %eax
#APP
# 405 "arch_x86.c" 1
	.code32		
	pushl	%eax	
	pushl	%edx	
	movw	%ax,	%dx	
	movl	%edx,	%eax	
	outw	%eax,	%dx	
	popl	%edx	
	popl	%eax	
	
# 0 "" 2
#NO_APP
	ret
	.cfi_endproc
.LFE10:
	.size	__outd, .-__outd
	.section	.text.unlikely
.LCOLDE10:
	.text
.LHOTE10:
	.section	.text.unlikely
.LCOLDB11:
	.text
.LHOTB11:
	.p2align 4,,15
	.globl	__ind
	.type	__ind, @function
__ind:
.LFB11:
	.loc 1 431 0
	.cfi_startproc
.LVL29:
	.loc 1 434 0
	movl	4(%esp), %eax
#APP
# 434 "arch_x86.c" 1
	.code32	
	pushl	%eax	
	pushl	%edx	
	movb	%ax,	%dx	
	inw	%dx,	%eax	
	movl	%eax,	%eax	
	popl	%edx	
	popl	%eax	
	
# 0 "" 2
.LVL30:
	.loc 1 458 0
#NO_APP
	ret
	.cfi_endproc
.LFE11:
	.size	__ind, .-__ind
	.section	.text.unlikely
.LCOLDE11:
	.text
.LHOTE11:
	.section	.text.unlikely
.LCOLDB12:
	.text
.LHOTB12:
	.p2align 4,,15
	.globl	__outb
	.type	__outb, @function
__outb:
.LFB12:
	.loc 1 461 0
	.cfi_startproc
.LVL31:
	.loc 1 463 0
	movl	8(%esp), %edx
	movl	4(%esp), %eax
#APP
# 463 "arch_x86.c" 1
	.code32		    
	pushl %eax		
	pushl %edx        
	movb %al, %al      
	movw %dx, %dx      
	outb %al, %dx    
	popl %edx 	    
	popl %eax			
	
# 0 "" 2
#NO_APP
	ret
	.cfi_endproc
.LFE12:
	.size	__outb, .-__outb
	.section	.text.unlikely
.LCOLDE12:
	.text
.LHOTE12:
	.section	.text.unlikely
.LCOLDB13:
	.text
.LHOTB13:
	.p2align 4,,15
	.globl	__inb
	.type	__inb, @function
__inb:
.LFB13:
	.loc 1 489 0
	.cfi_startproc
.LVL32:
	.loc 1 492 0
	movl	4(%esp), %eax
#APP
# 492 "arch_x86.c" 1
	.code32				
	xorl 	%eax,	%eax 	
	pushl 	%edx    		
	movw 	%ax,		%dx	
	inb 	%dx,	%al    
	popl	%edx     		
	movb 	%al,	%cl 		
	
# 0 "" 2
#NO_APP
	movl	%ecx, %eax
.LVL33:
	.loc 1 514 0
	ret
	.cfi_endproc
.LFE13:
	.size	__inb, .-__inb
	.section	.text.unlikely
.LCOLDE13:
	.text
.LHOTE13:
	.section	.text.unlikely
.LCOLDB14:
	.text
.LHOTB14:
	.p2align 4,,15
	.globl	__inw
	.type	__inw, @function
__inw:
.LFB14:
	.loc 1 517 0
	.cfi_startproc
.LVL34:
	.loc 1 520 0
	movl	4(%esp), %eax
#APP
# 520 "arch_x86.c" 1
	.code32					
	pushl %eax				
	pushl %edx				
	movw %ax,%dx				
	inb %dx,%ax				
	movb %ax,%ax				
	popl %edx					
	popl %eax					
	
# 0 "" 2
.LVL35:
	.loc 1 544 0
#NO_APP
	ret
	.cfi_endproc
.LFE14:
	.size	__inw, .-__inw
	.section	.text.unlikely
.LCOLDE14:
	.text
.LHOTE14:
	.section	.text.unlikely
.LCOLDB15:
	.text
.LHOTB15:
	.p2align 4,,15
	.globl	__outw
	.type	__outw, @function
__outw:
.LFB15:
	.loc 1 547 0
	.cfi_startproc
.LVL36:
	.loc 1 549 0
	movl	8(%esp), %edx
	movl	4(%esp), %eax
#APP
# 549 "arch_x86.c" 1
	.code32	
	pushl %eax				
			pushl 	%edx             	
			movl %ax,	%ax          	
			movl %ax,	%dx         	
			outw %ax, 	%dx           	
			popl %edx				 	
			popl %eax					
	
# 0 "" 2
#NO_APP
	ret
	.cfi_endproc
.LFE15:
	.size	__outw, .-__outw
	.section	.text.unlikely
.LCOLDE15:
	.text
.LHOTE15:
	.section	.text.unlikely
.LCOLDB16:
	.text
.LHOTB16:
	.p2align 4,,15
	.globl	__inws
	.type	__inws, @function
__inws:
.LFB16:
	.loc 1 577 0
	.cfi_startproc
.LVL37:
	.loc 1 581 0
#APP
# 581 "arch_x86.c" 1
		.code32								
		pushl 	%ebp                                      
		movl 	%esp,	%ebp                               
		pushl %ecx                                      
		pushl %edx                                      
		pushl %edi                                      
		movl 	0x08(%ebp),	%edi				     
		movl 	0x0c(%ebp),	%ecx						
		shrl 	$0x01,			%ecx                          
		movw 	0x10(%ebp),	%dx				
		cld                                        	
		rep 	insw                                    
		popl %edi                                     
		popl %edx                                     
		popl %ecx                                     
		leave                                      	
		ret                                		
	
# 0 "" 2
#NO_APP
	ret
	.cfi_endproc
.LFE16:
	.size	__inws, .-__inws
	.section	.text.unlikely
.LCOLDE16:
	.text
.LHOTE16:
	.section	.text.unlikely
.LCOLDB17:
	.text
.LHOTB17:
	.p2align 4,,15
	.globl	__outws
	.type	__outws, @function
__outws:
.LFB17:
	.loc 1 627 0
	.cfi_startproc
.LVL38:
	.loc 1 630 0
#APP
# 630 "arch_x86.c" 1
	.code32			  				
	 pushl %ebp                        
	 movl %esp, %ebp                  
	 pushl %ecx                           
	 pushl %edx                           
	 pushl %esi                           
	 movw 0x10(%ebp), %dx			
	 rep outsw                        	
	 popl %esi                            
	 popl %edx                            
	 popl %ecx                            
	 leave                              
	 ret			                
	
# 0 "" 2
#NO_APP
	ret
	.cfi_endproc
.LFE17:
	.size	__outws, .-__outws
	.section	.text.unlikely
.LCOLDE17:
	.text
.LHOTE17:
	.section	.text.unlikely
.LCOLDB18:
	.text
.LHOTB18:
	.p2align 4,,15
	.globl	uname
	.type	uname, @function
uname:
.LFB18:
	.loc 1 671 0
	.cfi_startproc
.LVL39:
	.loc 1 671 0
	movl	4(%esp), %eax
	.loc 1 673 0
	movl	$83, %edx
	movl	$1819043144, (%eax)
	movl	$1327519855, 4(%eax)
	movw	%dx, 8(%eax)
	.loc 1 674 0
	movl	$538976288, 195(%eax)
	movl	$1819043144, 199(%eax)
	movl	$1444960367, 203(%eax)
	movl	$943140401, 207(%eax)
	movb	$0, 211(%eax)
	.loc 1 675 0
	movl	$842219849, 260(%eax)
	movb	$0, 264(%eax)
	.loc 1 676 0
	movl	$538976288, 130(%eax)
	movl	$1819043144, 134(%eax)
	movl	$1444960367, 138(%eax)
	movl	$943140401, 142(%eax)
	movb	$0, 146(%eax)
	.loc 1 678 0
	xorl	%eax, %eax
	ret
	.cfi_endproc
.LFE18:
	.size	uname, .-uname
	.section	.text.unlikely
.LCOLDE18:
	.text
.LHOTE18:
	.local	dwTmpEbp
	.comm	dwTmpEbp,4,4
	.local	dwTmpEax
	.comm	dwTmpEax,4,4
	.local	dwTmpEip
	.comm	dwTmpEip,4,4
.Letext0:
	.section	.text.unlikely
.Letext_cold0:
	.file 2 "../../../kernel/include/types.h"
	.file 3 "../../../kernel/include/commobj.h"
	.file 4 "../../../kernel/include/objqueue.h"
	.file 5 "../../../kernel/include/ktmgr.h"
	.file 6 "../../../kernel/include/../arch/x86/arch.h"
	.file 7 "/usr/include/sys/utsname.h"
	.section	.note.GNU-stack,"",@progbits
