	.file	"biosvga.c"
	.text
.Ltext0:
	.section	.text.unlikely,"ax",@progbits
.LCOLDB0:
	.text
.LHOTB0:
	.p2align 4,,15
	.section	.text.unlikely
.Ltext_cold0:
	.text
	.globl	_VGA_GetDisplayAddr
	.type	_VGA_GetDisplayAddr, @function
_VGA_GetDisplayAddr:
.LFB11:
	.file 1 "biosvga.c"
	.loc 1 43 0
	.cfi_startproc
.LVL0:
	.loc 1 46 0
	movzwl	s_szVgaInfo+6, %edx
	.loc 1 43 0
	movl	4(%esp), %eax
	movl	8(%esp), %ecx
	.loc 1 46 0
	cmpw	%ax, %dx
	jbe	.L4
	.loc 1 46 0 is_stmt 0 discriminator 1
	cmpw	%cx, s_szVgaInfo+4
	jbe	.L4
.LVL1:
	.loc 1 51 0 is_stmt 1
	movzwl	%cx, %ecx
	movzwl	%ax, %eax
	imull	%ecx, %edx
.LVL2:
	addl	%edx, %eax
.LVL3:
	.loc 1 53 0
	movl	s_szVgaInfo, %edx
	leal	(%edx,%eax,2), %eax
	ret
.LVL4:
	.p2align 4,,10
	.p2align 3
.L4:
	.loc 1 48 0
	xorl	%eax, %eax
	.loc 1 54 0
	ret
	.cfi_endproc
.LFE11:
	.size	_VGA_GetDisplayAddr, .-_VGA_GetDisplayAddr
	.section	.text.unlikely
.LCOLDE0:
	.text
.LHOTE0:
	.section	.text.unlikely
.LCOLDB1:
	.text
.LHOTB1:
	.p2align 4,,15
	.globl	_VGA_ScrollLine
	.type	_VGA_ScrollLine, @function
_VGA_ScrollLine:
.LFB12:
	.loc 1 57 0
	.cfi_startproc
.LVL5:
	pushl	%edi
	.cfi_def_cfa_offset 8
	.cfi_offset 7, -8
	pushl	%esi
	.cfi_def_cfa_offset 12
	.cfi_offset 6, -12
.LBB17:
.LBB18:
	.loc 1 48 0
	xorl	%edi, %edi
.LBE18:
.LBE17:
	.loc 1 57 0
	pushl	%ebx
	.cfi_def_cfa_offset 16
	.cfi_offset 3, -16
.LBB20:
.LBB19:
	.loc 1 46 0
	movzwl	s_szVgaInfo+6, %ebx
	testw	%bx, %bx
	je	.L7
	.loc 1 53 0
	cmpw	$0, s_szVgaInfo+4
	cmovne	s_szVgaInfo, %edi
.L7:
.LVL6:
.LBE19:
.LBE20:
	.loc 1 62 0
	movl	16(%esp), %esi
	.loc 1 60 0
	movzwl	s_szVgaInfo+8, %eax
.LVL7:
	.loc 1 62 0
	testl	%esi, %esi
	jne	.L19
.LVL8:
.L6:
	.loc 1 77 0
	popl	%ebx
	.cfi_remember_state
	.cfi_restore 3
	.cfi_def_cfa_offset 12
.LVL9:
	popl	%esi
	.cfi_restore 6
	.cfi_def_cfa_offset 8
	popl	%edi
	.cfi_restore 7
	.cfi_def_cfa_offset 4
	ret
.LVL10:
	.p2align 4,,10
	.p2align 3
.L19:
	.cfi_restore_state
	.loc 1 60 0
	movzwl	%ax, %esi
	.loc 1 59 0
	leal	(%edi,%ebx,2), %eax
.LVL11:
.LBB21:
	.loc 1 67 0
	subl	$4, %esp
	.cfi_def_cfa_offset 20
.LBE21:
	.loc 1 60 0
	subl	$1, %esi
	imull	%ebx, %esi
.LVL12:
.LBB22:
	.loc 1 64 0
	addl	%esi, %esi
.LVL13:
	.loc 1 67 0
	pushl	%esi
	.cfi_def_cfa_offset 24
	pushl	%eax
	.cfi_def_cfa_offset 28
	pushl	%edi
	.cfi_def_cfa_offset 32
	call	memcpy
.LVL14:
	.loc 1 68 0
	addl	$16, %esp
	.cfi_def_cfa_offset 16
	testl	%ebx, %ebx
	je	.L6
	leal	(%edi,%esi), %edx
.LBE22:
	.loc 1 60 0
	xorl	%eax, %eax
.LVL15:
	.p2align 4,,10
	.p2align 3
.L10:
.LBB23:
	.loc 1 70 0 discriminator 3
	movl	$1792, %ecx
	movw	%cx, (%edx,%eax,2)
	.loc 1 68 0 discriminator 3
	addl	$1, %eax
.LVL16:
	cmpl	%eax, %ebx
	jne	.L10
.LBE23:
	.loc 1 77 0
	popl	%ebx
	.cfi_restore 3
	.cfi_def_cfa_offset 12
.LVL17:
	popl	%esi
	.cfi_restore 6
	.cfi_def_cfa_offset 8
.LVL18:
	popl	%edi
	.cfi_restore 7
	.cfi_def_cfa_offset 4
	ret
	.cfi_endproc
.LFE12:
	.size	_VGA_ScrollLine, .-_VGA_ScrollLine
	.section	.text.unlikely
.LCOLDE1:
	.text
.LHOTE1:
	.section	.text.unlikely
.LCOLDB2:
	.text
.LHOTB2:
	.p2align 4,,15
	.globl	VGA_GetDisplayID
	.type	VGA_GetDisplayID, @function
VGA_GetDisplayID:
.LFB13:
	.loc 1 80 0
	.cfi_startproc
	.loc 1 82 0
	movl	$4097, %eax
	ret
	.cfi_endproc
.LFE13:
	.size	VGA_GetDisplayID, .-VGA_GetDisplayID
	.section	.text.unlikely
.LCOLDE2:
	.text
.LHOTE2:
	.section	.text.unlikely
.LCOLDB3:
	.text
.LHOTB3:
	.p2align 4,,15
	.globl	VGA_SetCursorPos
	.type	VGA_SetCursorPos, @function
VGA_SetCursorPos:
.LFB14:
	.loc 1 85 0
	.cfi_startproc
.LVL19:
	pushl	%ebx
	.cfi_def_cfa_offset 8
	.cfi_offset 3, -8
	subl	$24, %esp
	.cfi_def_cfa_offset 32
	.loc 1 93 0
	movzwl	s_szVgaInfo+8, %ebx
	.loc 1 85 0
	movl	36(%esp), %eax
	movl	32(%esp), %edx
	.loc 1 91 0
	movb	$0, 15(%esp)
	.loc 1 93 0
	cmpw	%ax, %bx
	jbe	.L25
	.loc 1 102 0
	movw	%dx, s_szVgaInfo+10
	.loc 1 103 0
	movw	%ax, s_szVgaInfo+12
.L23:
	.loc 1 106 0
	leal	(%eax,%eax,4), %eax
	.loc 1 111 0
	movl	$980, %ecx
	.loc 1 106 0
	sall	$4, %eax
	addl	%edx, %eax
.LVL20:
	.loc 1 111 0
	movl	$981, %edx
	.loc 1 108 0
	movb	%al, 15(%esp)
	.loc 1 107 0
	shrw	$8, %ax
.LVL21:
	.loc 1 111 0
#APP
# 111 "biosvga.c" 1
	movw %ecx,	%dx                              
	movb $14,	%al                              
	outb %al,	%dx                              
	movw %edx,	%dx                              
	movb %al,	%al                              
	outw %al,	%dx                              
	movw %ecx,	%dx                              
	movb $15,	%al                              
	outw %al,	%dx                              
	movw %edx,	%dx                              
	movl %edx,	%al                              
	outb %al,	%dx                              
	
# 0 "" 2
	.loc 1 150 0
#NO_APP
	addl	$24, %esp
	.cfi_remember_state
	.cfi_def_cfa_offset 8
	movl	$1, %eax
	popl	%ebx
	.cfi_restore 3
	.cfi_def_cfa_offset 4
	ret
.LVL22:
	.p2align 4,,10
	.p2align 3
.L25:
	.cfi_restore_state
	.loc 1 95 0
	subl	$12, %esp
	.cfi_def_cfa_offset 44
	pushl	$1
	.cfi_def_cfa_offset 48
	call	_VGA_ScrollLine
.LVL23:
	.loc 1 97 0
	xorl	%eax, %eax
	addl	$16, %esp
	.cfi_def_cfa_offset 32
	xorl	%edx, %edx
	movw	%ax, s_szVgaInfo+10
	.loc 1 98 0
	leal	-1(%ebx), %eax
	movw	%ax, s_szVgaInfo+12
	jmp	.L23
	.cfi_endproc
.LFE14:
	.size	VGA_SetCursorPos, .-VGA_SetCursorPos
	.section	.text.unlikely
.LCOLDE3:
	.text
.LHOTE3:
	.section	.text.unlikely
.LCOLDB4:
	.text
.LHOTB4:
	.p2align 4,,15
	.globl	VGA_ChangeLine
	.type	VGA_ChangeLine, @function
VGA_ChangeLine:
.LFB15:
	.loc 1 153 0
	.cfi_startproc
	.loc 1 155 0
	movzwl	s_szVgaInfo+12, %eax
	cmpw	s_szVgaInfo+4, %ax
	jb	.L30
	.loc 1 161 0
	movl	$1, %eax
	ret
	.p2align 4,,10
	.p2align 3
.L30:
	.loc 1 157 0
	addl	$1, %eax
	.loc 1 153 0
	subl	$20, %esp
	.cfi_def_cfa_offset 24
	.loc 1 157 0
	movzwl	%ax, %eax
	pushl	%eax
	.cfi_def_cfa_offset 28
	pushl	$0
	.cfi_def_cfa_offset 32
	call	VGA_SetCursorPos
.LVL24:
	.loc 1 161 0
	movl	$1, %eax
	addl	$28, %esp
	.cfi_def_cfa_offset 4
	ret
	.cfi_endproc
.LFE15:
	.size	VGA_ChangeLine, .-VGA_ChangeLine
	.section	.text.unlikely
.LCOLDE4:
	.text
.LHOTE4:
	.section	.text.unlikely
.LCOLDB5:
	.text
.LHOTB5:
	.p2align 4,,15
	.globl	VGA_GetDisplayRange
	.type	VGA_GetDisplayRange, @function
VGA_GetDisplayRange:
.LFB16:
	.loc 1 164 0
	.cfi_startproc
.LVL25:
	.loc 1 164 0
	movl	4(%esp), %edx
	movl	8(%esp), %eax
	.loc 1 165 0
	testl	%edx, %edx
	je	.L32
	.loc 1 167 0
	movzwl	s_szVgaInfo+4, %ecx
	movl	%ecx, (%edx)
.L32:
	.loc 1 170 0
	testl	%eax, %eax
	je	.L33
	.loc 1 172 0
	movzwl	s_szVgaInfo+6, %edx
	movl	%edx, (%eax)
.L33:
	.loc 1 176 0
	movl	$1, %eax
	ret
	.cfi_endproc
.LFE16:
	.size	VGA_GetDisplayRange, .-VGA_GetDisplayRange
	.section	.text.unlikely
.LCOLDE5:
	.text
.LHOTE5:
	.section	.text.unlikely
.LCOLDB6:
	.text
.LHOTB6:
	.p2align 4,,15
	.globl	VGA_PrintChar
	.type	VGA_PrintChar, @function
VGA_PrintChar:
.LFB17:
	.loc 1 179 0
	.cfi_startproc
.LVL26:
	pushl	%ebp
	.cfi_def_cfa_offset 8
	.cfi_offset 5, -8
	pushl	%edi
	.cfi_def_cfa_offset 12
	.cfi_offset 7, -12
	.loc 1 186 0
	xorl	%eax, %eax
	.loc 1 179 0
	pushl	%esi
	.cfi_def_cfa_offset 16
	.cfi_offset 6, -16
	pushl	%ebx
	.cfi_def_cfa_offset 20
	.cfi_offset 3, -20
	subl	$12, %esp
	.cfi_def_cfa_offset 32
	.loc 1 180 0
	movzwl	s_szVgaInfo+10, %edx
.LVL27:
.LBB24:
.LBB25:
	.loc 1 46 0
	movzwl	s_szVgaInfo+6, %ebx
.LBE25:
.LBE24:
	.loc 1 179 0
	movl	32(%esp), %ecx
	.loc 1 181 0
	movzwl	s_szVgaInfo+12, %esi
.LVL28:
.LBB27:
.LBB26:
	.loc 1 46 0
	cmpw	%bx, %dx
	jnb	.L41
	cmpw	s_szVgaInfo+4, %si
	jnb	.L41
	.loc 1 51 0
	movzwl	%si, %eax
.LVL29:
	movzwl	%bx, %edi
	imull	%eax, %edi
	movl	%edi, %ebp
	movzwl	%dx, %edi
	addl	%ebp, %edi
	.loc 1 53 0
	movl	s_szVgaInfo, %ebp
	leal	0(%ebp,%edi,2), %edi
.LBE26:
.LBE27:
	.loc 1 184 0
	cmpl	$757663, %edi
	ja	.L46
	testl	%edi, %edi
	je	.L46
	.loc 1 189 0
	movsbw	%cl, %cx
	.loc 1 190 0
	addl	$1, %edx
.LVL30:
	.loc 1 189 0
	orb	$7, %ch
	.loc 1 192 0
	cmpw	%bx, %dx
	.loc 1 189 0
	movw	%cx, (%edi)
	.loc 1 192 0
	jnb	.L42
	movzwl	%dx, %edx
.LVL31:
.L43:
	.loc 1 197 0
	subl	$8, %esp
	.cfi_def_cfa_offset 40
	pushl	%eax
	.cfi_def_cfa_offset 44
	pushl	%edx
	.cfi_def_cfa_offset 48
	call	VGA_SetCursorPos
.LVL32:
	.loc 1 199 0
	addl	$16, %esp
	.cfi_def_cfa_offset 32
	movl	$1, %eax
.L41:
	.loc 1 200 0
	addl	$12, %esp
	.cfi_remember_state
	.cfi_def_cfa_offset 20
	popl	%ebx
	.cfi_restore 3
	.cfi_def_cfa_offset 16
	popl	%esi
	.cfi_restore 6
	.cfi_def_cfa_offset 12
.LVL33:
	popl	%edi
	.cfi_restore 7
	.cfi_def_cfa_offset 8
	popl	%ebp
	.cfi_restore 5
	.cfi_def_cfa_offset 4
	ret
.LVL34:
	.p2align 4,,10
	.p2align 3
.L42:
	.cfi_restore_state
	.loc 1 195 0
	leal	1(%esi), %eax
.LVL35:
	xorl	%edx, %edx
	movzwl	%ax, %eax
	jmp	.L43
.LVL36:
.L46:
	.loc 1 186 0
	xorl	%eax, %eax
.LVL37:
	jmp	.L41
	.cfi_endproc
.LFE17:
	.size	VGA_PrintChar, .-VGA_PrintChar
	.section	.text.unlikely
.LCOLDE6:
	.text
.LHOTE6:
	.section	.text.unlikely
.LCOLDB7:
	.text
.LHOTB7:
	.p2align 4,,15
	.globl	VGA_PrintString
	.type	VGA_PrintString, @function
VGA_PrintString:
.LFB18:
	.loc 1 203 0
	.cfi_startproc
.LVL38:
	pushl	%ebp
	.cfi_def_cfa_offset 8
	.cfi_offset 5, -8
	pushl	%edi
	.cfi_def_cfa_offset 12
	.cfi_offset 7, -12
	pushl	%esi
	.cfi_def_cfa_offset 16
	.cfi_offset 6, -16
	pushl	%ebx
	.cfi_def_cfa_offset 20
	.cfi_offset 3, -20
	.loc 1 212 0
	xorl	%ebx, %ebx
	.loc 1 203 0
	subl	$28, %esp
	.cfi_def_cfa_offset 48
	.loc 1 204 0
	movzwl	s_szVgaInfo+10, %esi
.LVL39:
.LBB28:
.LBB29:
	.loc 1 46 0
	movzwl	s_szVgaInfo+6, %ecx
.LBE29:
.LBE28:
	.loc 1 203 0
	movl	48(%esp), %ebp
	.loc 1 204 0
	movzwl	s_szVgaInfo+12, %edi
.LVL40:
.LBB31:
.LBB30:
	.loc 1 46 0
	cmpw	%cx, %si
	jnb	.L49
	cmpw	s_szVgaInfo+4, %di
	jnb	.L49
.LVL41:
	.loc 1 51 0
	movzwl	%di, %eax
	movzwl	%cx, %edx
	movzwl	%si, %ebx
	imull	%edx, %eax
	addl	%ebx, %eax
	.loc 1 53 0
	movl	s_szVgaInfo, %ebx
	leal	(%ebx,%eax,2), %ebx
.LVL42:
.LBE30:
.LBE31:
	.loc 1 210 0
	testl	%ebx, %ebx
	je	.L56
	testl	%ebp, %ebp
	je	.L56
.LBB32:
	.loc 1 237 0
	leal	(%edx,%edx), %eax
	negl	%eax
	movl	%eax, 12(%esp)
	jmp	.L50
.LVL43:
	.p2align 4,,10
	.p2align 3
.L51:
	.loc 1 241 0
	cmpl	$757663, %ebx
	ja	.L52
.LVL44:
.L50:
.LBE32:
	.loc 1 215 0
	movzbl	0(%ebp), %eax
	testb	%al, %al
	je	.L52
.LVL45:
.LBB33:
	.loc 1 219 0
	addw	$1792, %ax
	.loc 1 226 0
	addl	$1, %esi
.LVL46:
	.loc 1 222 0
	addl	$2, %ebx
.LVL47:
	.loc 1 219 0
	movw	%ax, -2(%ebx)
.LVL48:
	.loc 1 223 0
	addl	$1, %ebp
.LVL49:
	.loc 1 227 0
	cmpw	%cx, %si
	jb	.L51
.LVL50:
	.loc 1 232 0
	movzwl	s_szVgaInfo+8, %eax
.LVL51:
	.loc 1 230 0
	addl	$1, %edi
.LVL52:
	.loc 1 229 0
	xorl	%esi, %esi
	.loc 1 232 0
	cmpw	%ax, %di
	jb	.L51
	movl	%ecx, 8(%esp)
	.loc 1 235 0
	subl	$12, %esp
	.cfi_def_cfa_offset 60
	.loc 1 234 0
	leal	-1(%eax), %edi
.LVL53:
	.loc 1 235 0
	pushl	$1
	.cfi_def_cfa_offset 64
	call	_VGA_ScrollLine
.LVL54:
	.loc 1 237 0
	addl	28(%esp), %ebx
.LVL55:
	addl	$16, %esp
	.cfi_def_cfa_offset 48
	movl	8(%esp), %ecx
.LVL56:
	.loc 1 241 0
	cmpl	$757663, %ebx
	jbe	.L50
	.p2align 4,,10
	.p2align 3
.L52:
.LBE33:
	.loc 1 248 0
	subl	$8, %esp
	.cfi_def_cfa_offset 56
	movzwl	%di, %edx
	movzwl	%si, %esi
	pushl	%edx
	.cfi_def_cfa_offset 60
	pushl	%esi
	.cfi_def_cfa_offset 64
	.loc 1 255 0
	movl	$1, %ebx
.LVL57:
	.loc 1 248 0
	call	VGA_SetCursorPos
.LVL58:
	.loc 1 250 0
	addl	$16, %esp
	.cfi_def_cfa_offset 48
	cmpl	$1, 52(%esp)
	je	.L60
.LVL59:
.L49:
	.loc 1 256 0
	addl	$28, %esp
	.cfi_remember_state
	.cfi_def_cfa_offset 20
	movl	%ebx, %eax
	popl	%ebx
	.cfi_restore 3
	.cfi_def_cfa_offset 16
	popl	%esi
	.cfi_restore 6
	.cfi_def_cfa_offset 12
	popl	%edi
	.cfi_restore 7
	.cfi_def_cfa_offset 8
	popl	%ebp
	.cfi_restore 5
	.cfi_def_cfa_offset 4
	ret
.LVL60:
	.p2align 4,,10
	.p2align 3
.L60:
	.cfi_restore_state
	.loc 1 252 0
	call	VGA_ChangeLine
.LVL61:
	.loc 1 256 0
	addl	$28, %esp
	.cfi_remember_state
	.cfi_def_cfa_offset 20
	movl	%ebx, %eax
	popl	%ebx
	.cfi_restore 3
	.cfi_def_cfa_offset 16
	popl	%esi
	.cfi_restore 6
	.cfi_def_cfa_offset 12
.LVL62:
	popl	%edi
	.cfi_restore 7
	.cfi_def_cfa_offset 8
.LVL63:
	popl	%ebp
	.cfi_restore 5
	.cfi_def_cfa_offset 4
.LVL64:
	ret
.LVL65:
.L56:
	.cfi_restore_state
	.loc 1 212 0
	xorl	%ebx, %ebx
	jmp	.L49
	.cfi_endproc
.LFE18:
	.size	VGA_PrintString, .-VGA_PrintString
	.section	.text.unlikely
.LCOLDE7:
	.text
.LHOTE7:
	.section	.text.unlikely
.LCOLDB8:
	.text
.LHOTB8:
	.p2align 4,,15
	.globl	VGA_GetCursorPos
	.type	VGA_GetCursorPos, @function
VGA_GetCursorPos:
.LFB19:
	.loc 1 259 0
	.cfi_startproc
.LVL66:
	.loc 1 259 0
	movl	4(%esp), %edx
	movl	8(%esp), %eax
	.loc 1 260 0
	testl	%edx, %edx
	je	.L62
	.loc 1 262 0
	movzwl	s_szVgaInfo+10, %ecx
	movw	%cx, (%edx)
.L62:
	.loc 1 265 0
	testl	%eax, %eax
	je	.L63
	.loc 1 267 0
	movzwl	s_szVgaInfo+12, %edx
	movw	%dx, (%eax)
.L63:
	.loc 1 271 0
	movl	$1, %eax
	ret
	.cfi_endproc
.LFE19:
	.size	VGA_GetCursorPos, .-VGA_GetCursorPos
	.section	.text.unlikely
.LCOLDE8:
	.text
.LHOTE8:
	.section	.text.unlikely
.LCOLDB9:
	.text
.LHOTB9:
	.p2align 4,,15
	.globl	VGA_GetString
	.type	VGA_GetString, @function
VGA_GetString:
.LFB20:
	.loc 1 274 0
	.cfi_startproc
.LVL67:
	pushl	%ebp
	.cfi_def_cfa_offset 8
	.cfi_offset 5, -8
	pushl	%edi
	.cfi_def_cfa_offset 12
	.cfi_offset 7, -12
.LBB34:
.LBB35:
	.loc 1 48 0
	xorl	%eax, %eax
.LBE35:
.LBE34:
	.loc 1 274 0
	pushl	%esi
	.cfi_def_cfa_offset 16
	.cfi_offset 6, -16
	pushl	%ebx
	.cfi_def_cfa_offset 20
	.cfi_offset 3, -20
	subl	$4, %esp
	.cfi_def_cfa_offset 24
.LBB39:
.LBB36:
	.loc 1 46 0
	movzwl	s_szVgaInfo+6, %edx
.LBE36:
.LBE39:
	.loc 1 274 0
	movl	24(%esp), %esi
	movl	28(%esp), %ebx
.LVL68:
	movl	32(%esp), %edi
.LBB40:
.LBB37:
	.loc 1 46 0
	cmpw	%dx, %si
	jnb	.L71
	cmpw	s_szVgaInfo+4, %bx
	jb	.L80
.LVL69:
.L71:
.LBE37:
.LBE40:
	.loc 1 276 0
	movzwl	s_szVgaInfo+12, %edx
	leal	1(%esi), %ecx
	.loc 1 277 0
	leal	(%ebx,%ebx,4), %ebx
.LVL70:
	movw	%cx, 2(%esp)
	.loc 1 280 0
	movl	36(%esp), %ecx
	.loc 1 277 0
	sall	$4, %ebx
	.loc 1 276 0
	leal	(%edx,%edx,4), %edx
	sall	$4, %edx
	addw	s_szVgaInfo+10, %dx
.LVL71:
	.loc 1 280 0
	testl	%ecx, %ecx
	jle	.L78
.LBB41:
	.loc 1 282 0
	movzbl	(%eax), %esi
.LVL72:
	andl	$127, %esi
.LVL73:
	.loc 1 284 0
	leal	-32(%esi), %ebp
	movl	%ebp, %ecx
	cmpb	$94, %cl
	ja	.L78
	.loc 1 288 0
	movl	%esi, %ecx
	.loc 1 290 0
	addl	$2, %eax
.LVL74:
	.loc 1 288 0
	movb	%cl, (%edi)
.LVL75:
	.loc 1 291 0
	movzwl	2(%esp), %ecx
	addl	%ebx, %ecx
.LVL76:
	.loc 1 293 0
	cmpw	%cx, %dx
	jbe	.L78
	.loc 1 298 0
	cmpl	$757663, %eax
	ja	.L78
	movl	36(%esp), %ebp
	subl	$1, %edx
.LVL77:
	leal	1(%edi), %esi
	subl	%ecx, %edx
	movzwl	%dx, %edx
	addl	%edi, %ebp
	leal	1(%edi,%edx), %ebx
.LVL78:
	jmp	.L74
.LVL79:
	.p2align 4,,10
	.p2align 3
.L75:
	.loc 1 282 0
	movzbl	(%eax), %edx
	andl	$127, %edx
.LVL80:
	.loc 1 284 0
	leal	-32(%edx), %ecx
	cmpb	$94, %cl
	ja	.L78
	.loc 1 290 0
	addl	$2, %eax
.LVL81:
	.loc 1 293 0
	cmpl	%ebx, %esi
	.loc 1 288 0
	movb	%dl, (%esi)
	.loc 1 293 0
	je	.L78
	addl	$1, %esi
.LVL82:
	.loc 1 298 0
	cmpl	$757663, %eax
	ja	.L78
.LVL83:
.L74:
.LBE41:
	.loc 1 280 0 discriminator 2
	cmpl	%ebp, %esi
	jne	.L75
.LVL84:
.L78:
	.loc 1 305 0
	addl	$4, %esp
	.cfi_remember_state
	.cfi_def_cfa_offset 20
	movl	$1, %eax
.LVL85:
	popl	%ebx
	.cfi_restore 3
	.cfi_def_cfa_offset 16
	popl	%esi
	.cfi_restore 6
	.cfi_def_cfa_offset 12
	popl	%edi
	.cfi_restore 7
	.cfi_def_cfa_offset 8
	popl	%ebp
	.cfi_restore 5
	.cfi_def_cfa_offset 4
	ret
.LVL86:
	.p2align 4,,10
	.p2align 3
.L80:
	.cfi_restore_state
.LBB42:
.LBB38:
	.loc 1 51 0
	movzwl	%bx, %ecx
	movzwl	%dx, %eax
	movl	%ecx, %edx
.LVL87:
	imull	%eax, %edx
	movzwl	%si, %eax
	addl	%eax, %edx
	.loc 1 53 0
	movl	s_szVgaInfo, %eax
	leal	(%eax,%edx,2), %eax
	jmp	.L71
.LBE38:
.LBE42:
	.cfi_endproc
.LFE20:
	.size	VGA_GetString, .-VGA_GetString
	.section	.text.unlikely
.LCOLDE9:
	.text
.LHOTE9:
	.section	.text.unlikely
.LCOLDB10:
	.text
.LHOTB10:
	.p2align 4,,15
	.globl	VGA_DelString
	.type	VGA_DelString, @function
VGA_DelString:
.LFB21:
	.loc 1 308 0
	.cfi_startproc
.LVL88:
.LBB43:
.LBB44:
	.loc 1 46 0
	movzwl	s_szVgaInfo+6, %ecx
.LBE44:
.LBE43:
	.loc 1 308 0
	pushl	%esi
	.cfi_def_cfa_offset 8
	.cfi_offset 6, -8
	.loc 1 314 0
	xorl	%eax, %eax
	.loc 1 308 0
	pushl	%ebx
	.cfi_def_cfa_offset 12
	.cfi_offset 3, -12
	.loc 1 308 0
	movl	12(%esp), %edx
.LVL89:
	movl	16(%esp), %esi
.LVL90:
	movl	20(%esp), %ebx
.LBB46:
.LBB45:
	.loc 1 46 0
	cmpw	%cx, %dx
	jnb	.L82
	cmpw	s_szVgaInfo+4, %si
	jnb	.L82
.LVL91:
	.loc 1 51 0
	movzwl	%si, %esi
	movzwl	%dx, %edx
	imull	%esi, %ecx
.LVL92:
	addl	%ecx, %edx
.LVL93:
	.loc 1 53 0
	movl	s_szVgaInfo, %ecx
	leal	(%ecx,%edx,2), %edx
.LVL94:
.LBE45:
.LBE46:
	.loc 1 312 0
	testl	%edx, %edx
	je	.L82
.LVL95:
	.loc 1 317 0 discriminator 1
	testl	%ebx, %ebx
	jle	.L84
	.loc 1 321 0
	leal	2(%edx), %eax
.LVL96:
	.loc 1 319 0
	movl	$1792, %esi
.LVL97:
	movw	%si, (%edx)
.LVL98:
	.loc 1 322 0
	cmpl	$757663, %eax
	ja	.L84
	leal	(%edx,%ebx,2), %edx
	jmp	.L85
.LVL99:
	.p2align 4,,10
	.p2align 3
.L86:
	.loc 1 319 0
	movl	$1792, %ecx
	.loc 1 321 0
	addl	$2, %eax
.LVL100:
	.loc 1 319 0
	movw	%cx, -2(%eax)
.LVL101:
	.loc 1 322 0
	cmpl	$757663, %eax
	ja	.L84
.L85:
	.loc 1 317 0 discriminator 2
	cmpl	%edx, %eax
	jne	.L86
.LVL102:
.L84:
	.loc 1 328 0
	movl	$1, %eax
.L82:
	.loc 1 329 0
	popl	%ebx
	.cfi_restore 3
	.cfi_def_cfa_offset 8
	popl	%esi
	.cfi_restore 6
	.cfi_def_cfa_offset 4
	ret
	.cfi_endproc
.LFE21:
	.size	VGA_DelString, .-VGA_DelString
	.section	.text.unlikely
.LCOLDE10:
	.text
.LHOTE10:
	.section	.text.unlikely
.LCOLDB11:
	.text
.LHOTB11:
	.p2align 4,,15
	.globl	VGA_DelChar
	.type	VGA_DelChar, @function
VGA_DelChar:
.LFB22:
	.loc 1 332 0
	.cfi_startproc
.LVL103:
	pushl	%ebx
	.cfi_def_cfa_offset 8
	.cfi_offset 3, -8
	subl	$8, %esp
	.cfi_def_cfa_offset 16
	.loc 1 335 0
	movzwl	s_szVgaInfo+12, %ebx
.LVL104:
	.loc 1 332 0
	movl	16(%esp), %edx
	.loc 1 338 0
	testl	%edx, %edx
	jne	.L92
	.loc 1 340 0
	movzwl	s_szVgaInfo+10, %eax
	testw	%ax, %ax
	je	.L105
	movzwl	s_szVgaInfo+6, %edx
	.loc 1 352 0
	subl	$1, %eax
.LVL105:
.L95:
.LBB47:
.LBB48:
	.loc 1 46 0
	cmpw	%ax, %dx
	ja	.L96
.L106:
	movzwl	%ax, %ecx
	movzwl	%bx, %ebx
.LVL106:
	.loc 1 48 0
	xorl	%eax, %eax
.LVL107:
	.p2align 4,,10
	.p2align 3
.L99:
.LBE48:
.LBE47:
	.loc 1 368 0
	movzwl	2(%eax), %edx
	.loc 1 369 0
	addl	$2, %eax
.LVL108:
	.loc 1 368 0
	movw	%dx, -2(%eax)
.LVL109:
	.loc 1 371 0
	cmpl	$757663, %eax
	jbe	.L99
	.loc 1 378 0
	subl	$8, %esp
	.cfi_def_cfa_offset 24
	pushl	%ebx
	.cfi_def_cfa_offset 28
	pushl	%ecx
	.cfi_def_cfa_offset 32
	call	VGA_SetCursorPos
.LVL110:
	.loc 1 380 0
	addl	$16, %esp
	.cfi_def_cfa_offset 16
	movl	$1, %eax
.L94:
	.loc 1 381 0
	addl	$8, %esp
	.cfi_remember_state
	.cfi_def_cfa_offset 8
	popl	%ebx
	.cfi_restore 3
	.cfi_def_cfa_offset 4
	ret
.LVL111:
	.p2align 4,,10
	.p2align 3
.L92:
	.cfi_restore_state
	.loc 1 342 0
	xorl	%eax, %eax
	.loc 1 355 0
	cmpl	$1, %edx
	jne	.L94
	.loc 1 357 0
	movzwl	s_szVgaInfo+10, %eax
.LVL112:
	movzwl	s_szVgaInfo+6, %edx
.LVL113:
.LBB51:
.LBB49:
	.loc 1 46 0
	cmpw	%ax, %dx
	jbe	.L106
.L96:
	cmpw	%bx, s_szVgaInfo+4
	movzwl	%ax, %ecx
	movzwl	%bx, %ebx
.LVL114:
	ja	.L98
	.loc 1 48 0
	xorl	%eax, %eax
.LVL115:
	jmp	.L99
.LVL116:
	.p2align 4,,10
	.p2align 3
.L105:
.LBE49:
.LBE51:
	.loc 1 342 0 discriminator 1
	xorl	%eax, %eax
	.loc 1 340 0 discriminator 1
	testw	%bx, %bx
	je	.L94
	.loc 1 347 0
	movzwl	s_szVgaInfo+6, %eax
	.loc 1 348 0
	subl	$1, %ebx
.LVL117:
	.loc 1 347 0
	movl	%eax, %edx
	subl	$1, %eax
.LVL118:
	jmp	.L95
.LVL119:
	.p2align 4,,10
	.p2align 3
.L98:
.LBB52:
.LBB50:
	.loc 1 51 0
	movzwl	%dx, %eax
.LVL120:
	.loc 1 53 0
	movl	s_szVgaInfo, %edx
.LVL121:
	.loc 1 51 0
	imull	%ebx, %eax
.LVL122:
	addl	%ecx, %eax
	.loc 1 53 0
	leal	(%edx,%eax,2), %eax
	jmp	.L99
.LBE50:
.LBE52:
	.cfi_endproc
.LFE22:
	.size	VGA_DelChar, .-VGA_DelChar
	.section	.text.unlikely
.LCOLDE11:
	.text
.LHOTE11:
	.section	.text.unlikely
.LCOLDB12:
	.text
.LHOTB12:
	.p2align 4,,15
	.globl	VGA_Clear
	.type	VGA_Clear, @function
VGA_Clear:
.LFB23:
	.loc 1 384 0
	.cfi_startproc
	.loc 1 385 0
	movl	s_szVgaInfo, %eax
.LVL123:
	leal	4000(%eax), %edx
.LVL124:
	.p2align 4,,10
	.p2align 3
.L108:
	.loc 1 390 0 discriminator 3
	movl	$1792, %ecx
	addl	$2, %eax
	movw	%cx, -2(%eax)
	.loc 1 388 0 discriminator 3
	cmpl	%edx, %eax
	jne	.L108
	.loc 1 394 0
	movl	$1, %eax
	ret
	.cfi_endproc
.LFE23:
	.size	VGA_Clear, .-VGA_Clear
	.section	.text.unlikely
.LCOLDE12:
	.text
.LHOTE12:
	.section	.text.unlikely
.LCOLDB13:
	.text
.LHOTB13:
	.p2align 4,,15
	.globl	InitializeVGA
	.type	InitializeVGA, @function
InitializeVGA:
.LFB24:
	.loc 1 397 0
	.cfi_startproc
	.loc 1 399 0
	movl	$25, %eax
	.loc 1 400 0
	movl	$80, %edx
	.loc 1 401 0
	movl	$25, %ecx
	.loc 1 399 0
	movw	%ax, s_szVgaInfo+4
	.loc 1 398 0
	movl	$753664, s_szVgaInfo
	.loc 1 403 0
	movl	$1, %eax
	.loc 1 400 0
	movw	%dx, s_szVgaInfo+6
	.loc 1 401 0
	movw	%cx, s_szVgaInfo+8
	.loc 1 403 0
	ret
	.cfi_endproc
.LFE24:
	.size	InitializeVGA, .-InitializeVGA
	.section	.text.unlikely
.LCOLDE13:
	.text
.LHOTE13:
	.local	s_szVgaInfo
	.comm	s_szVgaInfo,16,4
.Letext0:
	.section	.text.unlikely
.Letext_cold0:
	.file 2 "../../../kernel/include/types.h"
	.file 3 "/usr/include/bits/types.h"
	.file 4 "/usr/include/libio.h"
	.file 5 "/usr/include/stdio.h"
	.section	.note.GNU-stack,"",@progbits
