	.file	"hellocn.c"
	.text
.Ltext0:
	.section	.text.unlikely,"ax",@progbits
.LCOLDB0:
	.text
.LHOTB0:
	.p2align 4,,15
	.section	.text.unlikely
.Ltext_cold0:
	.text
	.globl	SetGeneralIntHandler
	.type	SetGeneralIntHandler, @function
SetGeneralIntHandler:
.LFB11:
	.file 1 "hellocn.c"
	.loc 1 24 0
	.cfi_startproc
.LVL0:
	.loc 1 26 0
	movl	4(%esp), %eax
#APP
# 26 "hellocn.c" 1
	pushl	%ebx	
	pushl	%ecx	
	movl 	$1097680,	%ebx	
	movl 	%eax,	%eax			
	movl (%ebx),			%ecx			
	movl %ecx,			%eax			
	popl	%ecx							
	popl	%ebx							
	
# 0 "" 2
	.loc 1 51 0
#NO_APP
	ret
	.cfi_endproc
.LFE11:
	.size	SetGeneralIntHandler, .-SetGeneralIntHandler
	.section	.text.unlikely
.LCOLDE0:
	.text
.LHOTE0:
	.section	.text.unlikely
.LCOLDB1:
	.text
.LHOTB1:
	.p2align 4,,15
	.globl	WriteByteToPort
	.type	WriteByteToPort, @function
WriteByteToPort:
.LFB12:
	.loc 1 58 0
	.cfi_startproc
.LVL1:
	.loc 1 60 0
#APP
# 60 "hellocn.c" 1
	.code32				
	pushl	%ebp			
	movl	%esp,	%ebp	
	pushl	%edx			
	movb	8(%ebp),	%al
	movw	12(%ebp),	%ax
	outb	%al,	%dx	
	popl	%edx	
	leave			
	ret			
	
# 0 "" 2
#NO_APP
	ret
	.cfi_endproc
.LFE12:
	.size	WriteByteToPort, .-WriteByteToPort
	.section	.text.unlikely
.LCOLDE1:
	.text
.LHOTE1:
	.section	.text.unlikely
.LCOLDB2:
	.text
.LHOTB2:
	.p2align 4,,15
	.globl	ReadByteStringFromPort
	.type	ReadByteStringFromPort, @function
ReadByteStringFromPort:
.LFB13:
	.loc 1 93 0
	.cfi_startproc
.LVL2:
	.loc 1 95 0
#APP
# 95 "hellocn.c" 1
	pushl	%ebp	
	movl	%esp,	%ebp	
	pushl	%ecx	
	pushl	%edx	
	pushl	%edi	
	movl	8(%ebp),	%edi	
	movl	12(%ebp),	%edi	
	movw	16(%ebp),	%dx	
	rep	insb	
	popl	%edi	
	popl	%edx	
	popl	%ecx	
	leave	
	ret	
	
# 0 "" 2
#NO_APP
	ret
	.cfi_endproc
.LFE13:
	.size	ReadByteStringFromPort, .-ReadByteStringFromPort
	.section	.text.unlikely
.LCOLDE2:
	.text
.LHOTE2:
	.section	.text.unlikely
.LCOLDB3:
	.text
.LHOTB3:
	.p2align 4,,15
	.globl	WriteByteStringToPort
	.type	WriteByteStringToPort, @function
WriteByteStringToPort:
.LFB14:
	.loc 1 140 0
	.cfi_startproc
.LVL3:
	.loc 1 143 0
#APP
# 143 "hellocn.c" 1
	pushl	%ebp	
	movl	%esp,	%ebp	
	pushl	%ecx	
	pushl	%edx	
	pushl	%esi	
	movl	8(%ebp),	%esi	
	movl	12(%ebp),	%ecx	
	movw	16(%ebp),	%dx	
	rep	outsb	
	popl	%esi	
	popl	%edx	
	popl	%ecx	
	leave	
	ret	
	
# 0 "" 2
#NO_APP
	ret
	.cfi_endproc
.LFE14:
	.size	WriteByteStringToPort, .-WriteByteStringToPort
	.section	.text.unlikely
.LCOLDE3:
	.text
.LHOTE3:
	.section	.text.unlikely
.LCOLDB4:
	.text
.LHOTB4:
	.p2align 4,,15
	.globl	ReadWordFromPort
	.type	ReadWordFromPort, @function
ReadWordFromPort:
.LFB15:
	.loc 1 185 0
	.cfi_startproc
.LVL4:
	.loc 1 187 0
#APP
# 187 "hellocn.c" 1
	pushl	%ebp	
	movl	%esp,	%ebp	
	pushl	%ebx	
	pushl	%edx	
	movw	0x0c(%ebp),	%dx	
	movl	0x08(%ebp),	%ebx	
	inw	%dx,	%ax	
	movw	%ax,	(%ebx)	
	popl	%edx	
	popl	%ebx	
	leave			
	ret			
	
# 0 "" 2
#NO_APP
	ret
	.cfi_endproc
.LFE15:
	.size	ReadWordFromPort, .-ReadWordFromPort
	.section	.text.unlikely
.LCOLDE4:
	.text
.LHOTE4:
	.section	.text.unlikely
.LCOLDB5:
	.text
.LHOTB5:
	.p2align 4,,15
	.globl	WriteWordToPort
	.type	WriteWordToPort, @function
WriteWordToPort:
.LFB16:
	.loc 1 225 0
	.cfi_startproc
.LVL5:
	.loc 1 227 0
#APP
# 227 "hellocn.c" 1
	pushl	%ebp           
	movl %esp,	%ebp   
	pushw %dx             
	movw 0x0c(%ebp),	%dx
	movw 0x08(%ebp),	%ax
	outw %ax, %dx        
	popw %dx              
	leave                  
	ret					
	
# 0 "" 2
#NO_APP
	ret
	.cfi_endproc
.LFE16:
	.size	WriteWordToPort, .-WriteWordToPort
	.section	.text.unlikely
.LCOLDE5:
	.text
.LHOTE5:
	.section	.text.unlikely
.LCOLDB6:
	.text
.LHOTB6:
	.p2align 4,,15
	.globl	ReadWordStringFromPort
	.type	ReadWordStringFromPort, @function
ReadWordStringFromPort:
.LFB17:
	.loc 1 259 0
	.cfi_startproc
.LVL6:
	.loc 1 261 0
#APP
# 261 "hellocn.c" 1
	pushl %ebp         
	                 movl %esp, %ebp   
	                 pushl %ecx         
	                 pushl %edx         
	                 pushl %edi         
	                 movl 0x08(%ebp),	%edi				
	movl 0x0c(%ebp),	%ecx				
	shrl $0x01,		%ecx             	
	movw 0x10(%ebp),	%dx				
	cld                               		
	rep insw               	           	
	popl %edi                 	        
	  popl %edx                     	    
	  popl %ecx                         	
	  leave		
	ret		
	
# 0 "" 2
#NO_APP
	ret
	.cfi_endproc
.LFE17:
	.size	ReadWordStringFromPort, .-ReadWordStringFromPort
	.section	.text.unlikely
.LCOLDE6:
	.text
.LHOTE6:
	.section	.text.unlikely
.LCOLDB7:
	.text
.LHOTB7:
	.p2align 4,,15
	.globl	WriteWordStringToPort
	.type	WriteWordStringToPort, @function
WriteWordStringToPort:
.LFB18:
	.loc 1 307 0
	.cfi_startproc
.LVL7:
	.loc 1 309 0
#APP
# 309 "hellocn.c" 1
	pushl %ebp				
	movl %esp, %ebp          
	pushl %ecx                
	pushl %edx                
	pushl %esi                
	movl 0x0c(%ebp),	%esi   
	movl 0x0c(%ebp),	%ecx   
	shrl $0x02,		%ecx   
	movw 0x10(%ebp),	%dx    
	rep outsw                  
	popl %esi                 
	popl %edx                 
	popl %ecx                 
	leave                      
	ret						
	
# 0 "" 2
#NO_APP
	ret
	.cfi_endproc
.LFE18:
	.size	WriteWordStringToPort, .-WriteWordStringToPort
	.section	.text.unlikely
.LCOLDE7:
	.text
.LHOTE7:
	.section	.rodata.str1.1,"aMS",@progbits,1
.LC8:
	.string	"Error Level : FATAL(1)"
.LC9:
	.string	"Error Level : CRITICAL(2)"
.LC10:
	.string	"Error Level : IMPORTANT(3)"
.LC11:
	.string	"Error Level : ALARM(4)"
.LC12:
	.string	"Error Level : INFORM(5)"
	.section	.text.unlikely
.LCOLDB13:
	.text
.LHOTB13:
	.p2align 4,,15
	.globl	ErrorHandler
	.type	ErrorHandler, @function
ErrorHandler:
.LFB24:
	.loc 1 394 0
	.cfi_startproc
.LVL8:
	pushl	%ebx
	.cfi_def_cfa_offset 8
	.cfi_offset 3, -8
	subl	$8, %esp
	.cfi_def_cfa_offset 16
	.loc 1 394 0
	movl	16(%esp), %eax
	movl	24(%esp), %ebx
	.loc 1 395 0
	cmpl	$16, %eax
	ja	.L9
	jmp	*.L12(,%eax,4)
	.section	.rodata
	.align 4
	.align 4
.L12:
	.long	.L9
	.long	.L11
	.long	.L13
	.long	.L9
	.long	.L14
	.long	.L9
	.long	.L9
	.long	.L9
	.long	.L15
	.long	.L9
	.long	.L9
	.long	.L9
	.long	.L9
	.long	.L9
	.long	.L9
	.long	.L9
	.long	.L16
	.text
	.p2align 4,,10
	.p2align 3
.L11:
.LVL9:
.LBB12:
.LBB13:
	.loc 1 355 0
	subl	$12, %esp
	.cfi_def_cfa_offset 28
	pushl	$.LC8
	.cfi_def_cfa_offset 32
	call	PrintLine
.LVL10:
	.loc 1 356 0
	addl	$16, %esp
	.cfi_def_cfa_offset 16
	testl	%ebx, %ebx
	jne	.L17
.LVL11:
	.p2align 4,,10
	.p2align 3
.L9:
.LBE13:
.LBE12:
	.loc 1 415 0
	addl	$8, %esp
	.cfi_remember_state
	.cfi_def_cfa_offset 8
	popl	%ebx
	.cfi_restore 3
	.cfi_def_cfa_offset 4
	ret
	.p2align 4,,10
	.p2align 3
.L16:
	.cfi_restore_state
.LVL12:
.LBB22:
.LBB23:
	.loc 1 387 0
	subl	$12, %esp
	.cfi_def_cfa_offset 28
	pushl	$.LC12
	.cfi_def_cfa_offset 32
	call	PrintLine
.LVL13:
	.loc 1 388 0
	addl	$16, %esp
	.cfi_def_cfa_offset 16
	testl	%ebx, %ebx
	je	.L9
.LVL14:
.L17:
.LBE23:
.LBE22:
.LBB24:
.LBB14:
	.loc 1 357 0
	movl	%ebx, 16(%esp)
.LBE14:
.LBE24:
	.loc 1 415 0
	addl	$8, %esp
	.cfi_remember_state
	.cfi_def_cfa_offset 8
	popl	%ebx
	.cfi_restore 3
	.cfi_def_cfa_offset 4
.LBB25:
.LBB15:
	.loc 1 357 0
	jmp	PrintLine
.LVL15:
	.p2align 4,,10
	.p2align 3
.L13:
	.cfi_restore_state
.LBE15:
.LBE25:
.LBB26:
.LBB27:
	.loc 1 363 0
	subl	$12, %esp
	.cfi_def_cfa_offset 28
	pushl	$.LC9
	.cfi_def_cfa_offset 32
	call	PrintLine
.LVL16:
	.loc 1 364 0
	addl	$16, %esp
	.cfi_def_cfa_offset 16
	testl	%ebx, %ebx
	je	.L9
.LBE27:
.LBE26:
.LBB28:
.LBB16:
	.loc 1 357 0
	movl	%ebx, 16(%esp)
.LBE16:
.LBE28:
	.loc 1 415 0
	addl	$8, %esp
	.cfi_remember_state
	.cfi_def_cfa_offset 8
	popl	%ebx
	.cfi_restore 3
	.cfi_def_cfa_offset 4
.LVL17:
.LBB29:
.LBB17:
	.loc 1 357 0
	jmp	PrintLine
.LVL18:
	.p2align 4,,10
	.p2align 3
.L14:
	.cfi_restore_state
.LBE17:
.LBE29:
.LBB30:
.LBB31:
	.loc 1 371 0
	subl	$12, %esp
	.cfi_def_cfa_offset 28
	pushl	$.LC10
	.cfi_def_cfa_offset 32
	call	PrintLine
.LVL19:
	.loc 1 372 0
	addl	$16, %esp
	.cfi_def_cfa_offset 16
	testl	%ebx, %ebx
	je	.L9
.LBE31:
.LBE30:
.LBB32:
.LBB18:
	.loc 1 357 0
	movl	%ebx, 16(%esp)
.LBE18:
.LBE32:
	.loc 1 415 0
	addl	$8, %esp
	.cfi_remember_state
	.cfi_def_cfa_offset 8
	popl	%ebx
	.cfi_restore 3
	.cfi_def_cfa_offset 4
.LVL20:
.LBB33:
.LBB19:
	.loc 1 357 0
	jmp	PrintLine
.LVL21:
	.p2align 4,,10
	.p2align 3
.L15:
	.cfi_restore_state
.LBE19:
.LBE33:
.LBB34:
.LBB35:
	.loc 1 379 0
	subl	$12, %esp
	.cfi_def_cfa_offset 28
	pushl	$.LC11
	.cfi_def_cfa_offset 32
	call	PrintLine
.LVL22:
	.loc 1 380 0
	addl	$16, %esp
	.cfi_def_cfa_offset 16
	testl	%ebx, %ebx
	je	.L9
.LBE35:
.LBE34:
.LBB36:
.LBB20:
	.loc 1 357 0
	movl	%ebx, 16(%esp)
.LBE20:
.LBE36:
	.loc 1 415 0
	addl	$8, %esp
	.cfi_def_cfa_offset 8
	popl	%ebx
	.cfi_restore 3
	.cfi_def_cfa_offset 4
.LVL23:
.LBB37:
.LBB21:
	.loc 1 357 0
	jmp	PrintLine
.LVL24:
.LBE21:
.LBE37:
	.cfi_endproc
.LFE24:
	.size	ErrorHandler, .-ErrorHandler
	.section	.text.unlikely
.LCOLDE13:
	.text
.LHOTE13:
	.section	.rodata.str1.4,"aMS",@progbits,1
	.align 4
.LC14:
	.string	"\r\nBUG oencountered.\r\nFile name: %s\r\nCode Lines:%d"
	.section	.text.unlikely
.LCOLDB15:
	.text
.LHOTB15:
	.p2align 4,,15
	.globl	__BUG
	.type	__BUG, @function
__BUG:
.LFB25:
	.loc 1 421 0
	.cfi_startproc
.LVL25:
	subl	$16, %esp
	.cfi_def_cfa_offset 20
	.loc 1 425 0
	pushl	24(%esp)
	.cfi_def_cfa_offset 24
	pushl	24(%esp)
	.cfi_def_cfa_offset 28
	pushl	$.LC14
	.cfi_def_cfa_offset 32
	call	_hx_printf
.LVL26:
	.loc 1 428 0
#APP
# 428 "hellocn.c" 1
	pushl %eax		
	pushf				
	popl %eax			
	movl %eax, %eax		
	popl %eax			
	cli				
	
# 0 "" 2
.LVL27:
#NO_APP
	addl	$16, %esp
	.cfi_def_cfa_offset 16
.L25:
	.loc 1 429 0 discriminator 1
	jmp	.L25
	.cfi_endproc
.LFE25:
	.size	__BUG, .-__BUG
	.section	.text.unlikely
.LCOLDE15:
	.text
.LHOTE15:
.Letext0:
	.section	.text.unlikely
.Letext_cold0:
	.file 2 "../../../kernel/include/types.h"
	.file 3 "../../../kernel/include/hellocn.h"
	.file 4 "/usr/include/bits/types.h"
	.file 5 "/usr/include/libio.h"
	.file 6 "/usr/include/stdio.h"
	.file 7 "../../../kernel/include/../lib/string.h"
	.section	.note.GNU-stack,"",@progbits
