	.file	"kapi.c"
	.text
.Ltext0:
	.section	.text.unlikely,"ax",@progbits
.LCOLDB0:
	.text
.LHOTB0:
	.p2align 4,,15
	.section	.text.unlikely
.Ltext_cold0:
	.text
	.globl	CreateKernelThread
	.type	CreateKernelThread, @function
CreateKernelThread:
.LFB0:
	.file 1 "kapi.c"
	.loc 1 315 0
	.cfi_startproc
.LVL0:
	pushl	%ebp
	.cfi_def_cfa_offset 8
	.cfi_offset 5, -8
	.loc 1 316 0
	movl	$1, %eax
	.loc 1 315 0
	pushl	%edi
	.cfi_def_cfa_offset 12
	.cfi_offset 7, -12
	pushl	%esi
	.cfi_def_cfa_offset 16
	.cfi_offset 6, -16
	pushl	%ebx
	.cfi_def_cfa_offset 20
	.cfi_offset 3, -20
	.loc 1 316 0
	movl	40(%esp), %ebx
	movl	36(%esp), %edx
	movl	20(%esp), %ecx
	movl	24(%esp), %esi
	movl	28(%esp), %edi
	movl	32(%esp), %ebp
#APP
# 316 "kapi.c" 1
	.code32				
	pushl	44(%esp)				
	pushl	%ebx				
	pushl	%edx				
	pushl	%ebp				
	pushl	%edi  			
	pushl	%esi  			
	pushl	%ecx				
	pushl	$0				
	pushl	%eax				
	int	$0x7F			
	popl	%eax			
	popl	%eax			
	popl	%edx				
	popl	%ebx				
	popl	%esi				
	popl	%edi				
	popl	%eax				
	popl	%ecx				
	popl	44(%esp)				
	
# 0 "" 2
.LVL1:
	.loc 1 320 0
#NO_APP
	popl	%ebx
	.cfi_restore 3
	.cfi_def_cfa_offset 16
	popl	%esi
	.cfi_restore 6
	.cfi_def_cfa_offset 12
	popl	%edi
	.cfi_restore 7
	.cfi_def_cfa_offset 8
	popl	%ebp
	.cfi_restore 5
	.cfi_def_cfa_offset 4
	ret
	.cfi_endproc
.LFE0:
	.size	CreateKernelThread, .-CreateKernelThread
	.section	.text.unlikely
.LCOLDE0:
	.text
.LHOTE0:
	.section	.text.unlikely
.LCOLDB1:
	.text
.LHOTB1:
	.p2align 4,,15
	.globl	DestroyKernelThread
	.type	DestroyKernelThread, @function
DestroyKernelThread:
.LFB1:
	.loc 1 323 0
	.cfi_startproc
.LVL2:
	.loc 1 324 0
	movl	$2, %eax
	movl	4(%esp), %edx
#APP
# 324 "kapi.c" 1
	.code32			
	pushl 	%edx			
	pushl	$0			
	pushl	%eax			
	int	$0x7F		
	popl	%eax		
	popl	%eax		
	popl	%eax			
	
# 0 "" 2
.LVL3:
#NO_APP
	ret
	.cfi_endproc
.LFE1:
	.size	DestroyKernelThread, .-DestroyKernelThread
	.section	.text.unlikely
.LCOLDE1:
	.text
.LHOTE1:
	.section	.text.unlikely
.LCOLDB2:
	.text
.LHOTB2:
	.p2align 4,,15
	.globl	SetLastError
	.type	SetLastError, @function
SetLastError:
.LFB2:
	.loc 1 328 0
	.cfi_startproc
.LVL4:
	.loc 1 329 0
	movl	$3, %eax
	movl	4(%esp), %edx
#APP
# 329 "kapi.c" 1
	.code32			
	pushl 	%edx			
	pushl	$0			
	pushl	%eax			
	int	$0x7F		
	popl	%eax		
	popl	%eax		
	popl	%eax			
	
# 0 "" 2
.LVL5:
	.loc 1 330 0
#NO_APP
	ret
	.cfi_endproc
.LFE2:
	.size	SetLastError, .-SetLastError
	.section	.text.unlikely
.LCOLDE2:
	.text
.LHOTE2:
	.section	.text.unlikely
.LCOLDB3:
	.text
.LHOTB3:
	.p2align 4,,15
	.globl	GetLastError
	.type	GetLastError, @function
GetLastError:
.LFB3:
	.loc 1 333 0
	.cfi_startproc
	.loc 1 334 0
	movl	$4, %eax
#APP
# 334 "kapi.c" 1
	.code32 			
	pushl		$0		
	pushl		%eax		
	int		$0x7F	
	popl		%eax	
	popl		%eax	
	
# 0 "" 2
	.loc 1 335 0
#NO_APP
	ret
	.cfi_endproc
.LFE3:
	.size	GetLastError, .-GetLastError
	.section	.text.unlikely
.LCOLDE3:
	.text
.LHOTE3:
	.section	.text.unlikely
.LCOLDB4:
	.text
.LHOTB4:
	.p2align 4,,15
	.globl	GetThreadID
	.type	GetThreadID, @function
GetThreadID:
.LFB4:
	.loc 1 338 0
	.cfi_startproc
.LVL6:
	.loc 1 339 0
	movl	$5, %eax
	movl	4(%esp), %edx
#APP
# 339 "kapi.c" 1
	.code32			
	pushl 	%edx			
	pushl	$0			
	pushl	%eax			
	int	$0x7F		
	popl	%eax		
	popl	%eax		
	popl	%eax			
	
# 0 "" 2
.LVL7:
	.loc 1 340 0
#NO_APP
	ret
	.cfi_endproc
.LFE4:
	.size	GetThreadID, .-GetThreadID
	.section	.text.unlikely
.LCOLDE4:
	.text
.LHOTE4:
	.section	.text.unlikely
.LCOLDB5:
	.text
.LHOTB5:
	.p2align 4,,15
	.globl	SetThreadPriority
	.type	SetThreadPriority, @function
SetThreadPriority:
.LFB5:
	.loc 1 343 0
	.cfi_startproc
.LVL8:
	.loc 1 344 0
	movl	$6, %eax
	movl	8(%esp), %ecx
	movl	4(%esp), %edx
#APP
# 344 "kapi.c" 1
	.code32				
	pushl	%ecx				
	pushl	%edx				
	pushl	$0				
	pushl	%eax				
	int	$0x7F			
	popl	%eax			
	popl	%eax			
	popl	%eax				
	popl	%edx				
	
# 0 "" 2
.LVL9:
	.loc 1 345 0
#NO_APP
	ret
	.cfi_endproc
.LFE5:
	.size	SetThreadPriority, .-SetThreadPriority
	.section	.text.unlikely
.LCOLDE5:
	.text
.LHOTE5:
	.section	.text.unlikely
.LCOLDB6:
	.text
.LHOTB6:
	.p2align 4,,15
	.globl	GetMessage
	.type	GetMessage, @function
GetMessage:
.LFB6:
	.loc 1 348 0
	.cfi_startproc
.LVL10:
	.loc 1 349 0
	movl	$7, %eax
	movl	4(%esp), %edx
#APP
# 349 "kapi.c" 1
	.code32			
	pushl 	%edx			
	pushl	$0			
	pushl	%eax			
	int	$0x7F		
	popl	%eax		
	popl	%eax		
	popl	%eax			
	
# 0 "" 2
.LVL11:
	.loc 1 350 0
#NO_APP
	ret
	.cfi_endproc
.LFE6:
	.size	GetMessage, .-GetMessage
	.section	.text.unlikely
.LCOLDE6:
	.text
.LHOTE6:
	.section	.text.unlikely
.LCOLDB7:
	.text
.LHOTB7:
	.p2align 4,,15
	.globl	SendMessage
	.type	SendMessage, @function
SendMessage:
.LFB7:
	.loc 1 353 0
	.cfi_startproc
.LVL12:
	.loc 1 354 0
	movl	$8, %eax
	movl	8(%esp), %ecx
	movl	4(%esp), %edx
#APP
# 354 "kapi.c" 1
	.code32				
	pushl	%ecx				
	pushl	%edx				
	pushl	$0				
	pushl	%eax				
	int	$0x7F			
	popl	%eax			
	popl	%eax			
	popl	%eax				
	popl	%edx				
	
# 0 "" 2
.LVL13:
	.loc 1 355 0
#NO_APP
	ret
	.cfi_endproc
.LFE7:
	.size	SendMessage, .-SendMessage
	.section	.text.unlikely
.LCOLDE7:
	.text
.LHOTE7:
	.section	.text.unlikely
.LCOLDB8:
	.text
.LHOTB8:
	.p2align 4,,15
	.globl	Sleep
	.type	Sleep, @function
Sleep:
.LFB8:
	.loc 1 358 0
	.cfi_startproc
.LVL14:
	.loc 1 359 0
	movl	$9, %eax
	movl	4(%esp), %edx
#APP
# 359 "kapi.c" 1
	.code32			
	pushl 	%edx			
	pushl	$0			
	pushl	%eax			
	int	$0x7F		
	popl	%eax		
	popl	%eax		
	popl	%eax			
	
# 0 "" 2
.LVL15:
	.loc 1 360 0
#NO_APP
	ret
	.cfi_endproc
.LFE8:
	.size	Sleep, .-Sleep
	.section	.text.unlikely
.LCOLDE8:
	.text
.LHOTE8:
	.section	.text.unlikely
.LCOLDB9:
	.text
.LHOTB9:
	.p2align 4,,15
	.globl	SetTimer
	.type	SetTimer, @function
SetTimer:
.LFB9:
	.loc 1 367 0
	.cfi_startproc
.LVL16:
	pushl	%edi
	.cfi_def_cfa_offset 8
	.cfi_offset 7, -8
	.loc 1 368 0
	movl	$10, %eax
	.loc 1 367 0
	pushl	%esi
	.cfi_def_cfa_offset 12
	.cfi_offset 6, -12
	pushl	%ebx
	.cfi_def_cfa_offset 16
	.cfi_offset 3, -16
	.loc 1 368 0
	movl	32(%esp), %ebx
	movl	28(%esp), %edx
	movl	16(%esp), %ecx
	movl	20(%esp), %esi
	movl	24(%esp), %edi
#APP
# 368 "kapi.c" 1
	.code32				
	pushl	%ebx				
	pushl	%edx  			
	pushl	%edi				
	pushl	%esi				
	pushl	%ecx				
	pushl	$0				
	pushl	%eax				
	int	$0x7F			
	popl	%eax			
	popl	%eax			
	popl	%edx				
	popl	%ebx				
	popl	%esi				
	popl	%eax				
	popl	%ecx				
	
# 0 "" 2
.LVL17:
	.loc 1 374 0
#NO_APP
	popl	%ebx
	.cfi_restore 3
	.cfi_def_cfa_offset 12
	popl	%esi
	.cfi_restore 6
	.cfi_def_cfa_offset 8
	popl	%edi
	.cfi_restore 7
	.cfi_def_cfa_offset 4
	ret
	.cfi_endproc
.LFE9:
	.size	SetTimer, .-SetTimer
	.section	.text.unlikely
.LCOLDE9:
	.text
.LHOTE9:
	.section	.text.unlikely
.LCOLDB10:
	.text
.LHOTB10:
	.p2align 4,,15
	.globl	CancelTimer
	.type	CancelTimer, @function
CancelTimer:
.LFB10:
	.loc 1 377 0
	.cfi_startproc
.LVL18:
	.loc 1 378 0
	movl	$11, %eax
	movl	4(%esp), %edx
#APP
# 378 "kapi.c" 1
	.code32			
	pushl 	%edx			
	pushl	$0			
	pushl	%eax			
	int	$0x7F		
	popl	%eax		
	popl	%eax		
	popl	%eax			
	
# 0 "" 2
.LVL19:
#NO_APP
	ret
	.cfi_endproc
.LFE10:
	.size	CancelTimer, .-CancelTimer
	.section	.text.unlikely
.LCOLDE10:
	.text
.LHOTE10:
	.section	.text.unlikely
.LCOLDB11:
	.text
.LHOTB11:
	.p2align 4,,15
	.globl	CreateEvent
	.type	CreateEvent, @function
CreateEvent:
.LFB11:
	.loc 1 382 0
	.cfi_startproc
.LVL20:
	.loc 1 383 0
	movl	$12, %eax
	movl	4(%esp), %edx
#APP
# 383 "kapi.c" 1
	.code32			
	pushl 	%edx			
	pushl	$0			
	pushl	%eax			
	int	$0x7F		
	popl	%eax		
	popl	%eax		
	popl	%eax			
	
# 0 "" 2
.LVL21:
	.loc 1 384 0
#NO_APP
	ret
	.cfi_endproc
.LFE11:
	.size	CreateEvent, .-CreateEvent
	.section	.text.unlikely
.LCOLDE11:
	.text
.LHOTE11:
	.section	.text.unlikely
.LCOLDB12:
	.text
.LHOTB12:
	.p2align 4,,15
	.globl	DestroyEvent
	.type	DestroyEvent, @function
DestroyEvent:
.LFB12:
	.loc 1 387 0
	.cfi_startproc
.LVL22:
	.loc 1 388 0
	movl	$13, %eax
	movl	4(%esp), %edx
#APP
# 388 "kapi.c" 1
	.code32			
	pushl 	%edx			
	pushl	$0			
	pushl	%eax			
	int	$0x7F		
	popl	%eax		
	popl	%eax		
	popl	%eax			
	
# 0 "" 2
.LVL23:
#NO_APP
	ret
	.cfi_endproc
.LFE12:
	.size	DestroyEvent, .-DestroyEvent
	.section	.text.unlikely
.LCOLDE12:
	.text
.LHOTE12:
	.section	.text.unlikely
.LCOLDB13:
	.text
.LHOTB13:
	.p2align 4,,15
	.globl	SetEvent
	.type	SetEvent, @function
SetEvent:
.LFB13:
	.loc 1 392 0
	.cfi_startproc
.LVL24:
	.loc 1 393 0
	movl	$14, %eax
	movl	4(%esp), %edx
#APP
# 393 "kapi.c" 1
	.code32			
	pushl 	%edx			
	pushl	$0			
	pushl	%eax			
	int	$0x7F		
	popl	%eax		
	popl	%eax		
	popl	%eax			
	
# 0 "" 2
.LVL25:
	.loc 1 394 0
#NO_APP
	ret
	.cfi_endproc
.LFE13:
	.size	SetEvent, .-SetEvent
	.section	.text.unlikely
.LCOLDE13:
	.text
.LHOTE13:
	.section	.text.unlikely
.LCOLDB14:
	.text
.LHOTB14:
	.p2align 4,,15
	.globl	ResetEvent
	.type	ResetEvent, @function
ResetEvent:
.LFB14:
	.loc 1 397 0
	.cfi_startproc
.LVL26:
	.loc 1 398 0
	movl	$15, %eax
	movl	4(%esp), %edx
#APP
# 398 "kapi.c" 1
	.code32			
	pushl 	%edx			
	pushl	$0			
	pushl	%eax			
	int	$0x7F		
	popl	%eax		
	popl	%eax		
	popl	%eax			
	
# 0 "" 2
.LVL27:
	.loc 1 399 0
#NO_APP
	ret
	.cfi_endproc
.LFE14:
	.size	ResetEvent, .-ResetEvent
	.section	.text.unlikely
.LCOLDE14:
	.text
.LHOTE14:
	.section	.text.unlikely
.LCOLDB15:
	.text
.LHOTB15:
	.p2align 4,,15
	.globl	CreateMutex
	.type	CreateMutex, @function
CreateMutex:
.LFB15:
	.loc 1 402 0
	.cfi_startproc
	.loc 1 403 0
	movl	$16, %eax
#APP
# 403 "kapi.c" 1
	.code32 			
	pushl		$0		
	pushl		%eax		
	int		$0x7F	
	popl		%eax	
	popl		%eax	
	
# 0 "" 2
	.loc 1 404 0
#NO_APP
	ret
	.cfi_endproc
.LFE15:
	.size	CreateMutex, .-CreateMutex
	.section	.text.unlikely
.LCOLDE15:
	.text
.LHOTE15:
	.section	.text.unlikely
.LCOLDB16:
	.text
.LHOTB16:
	.p2align 4,,15
	.globl	DestroyMutex
	.type	DestroyMutex, @function
DestroyMutex:
.LFB16:
	.loc 1 407 0
	.cfi_startproc
.LVL28:
	.loc 1 408 0
	movl	$17, %eax
	movl	4(%esp), %edx
#APP
# 408 "kapi.c" 1
	.code32			
	pushl 	%edx			
	pushl	$0			
	pushl	%eax			
	int	$0x7F		
	popl	%eax		
	popl	%eax		
	popl	%eax			
	
# 0 "" 2
.LVL29:
#NO_APP
	ret
	.cfi_endproc
.LFE16:
	.size	DestroyMutex, .-DestroyMutex
	.section	.text.unlikely
.LCOLDE16:
	.text
.LHOTE16:
	.section	.text.unlikely
.LCOLDB17:
	.text
.LHOTB17:
	.p2align 4,,15
	.globl	ReleaseMutex
	.type	ReleaseMutex, @function
ReleaseMutex:
.LFB17:
	.loc 1 412 0
	.cfi_startproc
.LVL30:
	.loc 1 413 0
	movl	$18, %eax
	movl	4(%esp), %edx
#APP
# 413 "kapi.c" 1
	.code32			
	pushl 	%edx			
	pushl	$0			
	pushl	%eax			
	int	$0x7F		
	popl	%eax		
	popl	%eax		
	popl	%eax			
	
# 0 "" 2
.LVL31:
	.loc 1 414 0
#NO_APP
	ret
	.cfi_endproc
.LFE17:
	.size	ReleaseMutex, .-ReleaseMutex
	.section	.text.unlikely
.LCOLDE17:
	.text
.LHOTE17:
	.section	.text.unlikely
.LCOLDB18:
	.text
.LHOTB18:
	.p2align 4,,15
	.globl	WaitForThisObject
	.type	WaitForThisObject, @function
WaitForThisObject:
.LFB18:
	.loc 1 417 0
	.cfi_startproc
.LVL32:
	.loc 1 418 0
	movl	$19, %eax
	movl	4(%esp), %edx
#APP
# 418 "kapi.c" 1
	.code32			
	pushl 	%edx			
	pushl	$0			
	pushl	%eax			
	int	$0x7F		
	popl	%eax		
	popl	%eax		
	popl	%eax			
	
# 0 "" 2
.LVL33:
	.loc 1 419 0
#NO_APP
	ret
	.cfi_endproc
.LFE18:
	.size	WaitForThisObject, .-WaitForThisObject
	.section	.text.unlikely
.LCOLDE18:
	.text
.LHOTE18:
	.section	.text.unlikely
.LCOLDB19:
	.text
.LHOTB19:
	.p2align 4,,15
	.globl	WaitForThisObjectEx
	.type	WaitForThisObjectEx, @function
WaitForThisObjectEx:
.LFB19:
	.loc 1 422 0
	.cfi_startproc
.LVL34:
	.loc 1 423 0
	movl	$20, %eax
	movl	8(%esp), %ecx
	movl	4(%esp), %edx
#APP
# 423 "kapi.c" 1
	.code32				
	pushl	%ecx				
	pushl	%edx				
	pushl	$0				
	pushl	%eax				
	int	$0x7F			
	popl	%eax			
	popl	%eax			
	popl	%eax				
	popl	%edx				
	
# 0 "" 2
.LVL35:
	.loc 1 425 0
#NO_APP
	ret
	.cfi_endproc
.LFE19:
	.size	WaitForThisObjectEx, .-WaitForThisObjectEx
	.section	.text.unlikely
.LCOLDE19:
	.text
.LHOTE19:
	.section	.text.unlikely
.LCOLDB20:
	.text
.LHOTB20:
	.p2align 4,,15
	.globl	ConnectInterrupt
	.type	ConnectInterrupt, @function
ConnectInterrupt:
.LFB20:
	.loc 1 430 0
	.cfi_startproc
.LVL36:
	.loc 1 432 0
	movl	12(%esp), %eax
	movl	8(%esp), %edx
	movl	4(%esp), %ecx
#APP
# 432 "kapi.c" 1
	.code32			;pushl 	%ebx		;movb	%al,	%bl	;pushl	%ebx				;pushl	%edx					;pushl	%ecx					;pushl	$0					;pushl	SYSCALL_CONNECTINTERRUPT;int	$0x7F					;popl	%eax					;popl	%eax					;popl	%edx						;popl	%eax						;popl	%ebx					;movb	%bl, %cl				;popl	%ebx					;
# 0 "" 2
.LVL37:
	.loc 1 472 0
#NO_APP
	ret
	.cfi_endproc
.LFE20:
	.size	ConnectInterrupt, .-ConnectInterrupt
	.section	.text.unlikely
.LCOLDE20:
	.text
.LHOTE20:
	.section	.text.unlikely
.LCOLDB21:
	.text
.LHOTB21:
	.p2align 4,,15
	.globl	DisconnectInterrupt
	.type	DisconnectInterrupt, @function
DisconnectInterrupt:
.LFB21:
	.loc 1 475 0
	.cfi_startproc
.LVL38:
	.loc 1 476 0
	movl	$22, %eax
	movl	4(%esp), %edx
#APP
# 476 "kapi.c" 1
	.code32			
	pushl 	%edx			
	pushl	$0			
	pushl	%eax			
	int	$0x7F		
	popl	%eax		
	popl	%eax		
	popl	%eax			
	
# 0 "" 2
.LVL39:
#NO_APP
	ret
	.cfi_endproc
.LFE21:
	.size	DisconnectInterrupt, .-DisconnectInterrupt
	.section	.text.unlikely
.LCOLDE21:
	.text
.LHOTE21:
	.section	.text.unlikely
.LCOLDB22:
	.text
.LHOTB22:
	.p2align 4,,15
	.globl	VirtualAlloc
	.type	VirtualAlloc, @function
VirtualAlloc:
.LFB22:
	.loc 1 484 0
	.cfi_startproc
.LVL40:
	pushl	%edi
	.cfi_def_cfa_offset 8
	.cfi_offset 7, -8
	.loc 1 485 0
	movl	$23, %eax
	.loc 1 484 0
	pushl	%esi
	.cfi_def_cfa_offset 12
	.cfi_offset 6, -12
	pushl	%ebx
	.cfi_def_cfa_offset 16
	.cfi_offset 3, -16
	.loc 1 485 0
	movl	32(%esp), %ebx
	movl	28(%esp), %edx
	movl	16(%esp), %ecx
	movl	20(%esp), %esi
	movl	24(%esp), %edi
#APP
# 485 "kapi.c" 1
	.code32				
	pushl	%ebx				
	pushl	%edx  			
	pushl	%edi				
	pushl	%esi				
	pushl	%ecx				
	pushl	$0				
	pushl	%eax				
	int	$0x7F			
	popl	%eax			
	popl	%eax			
	popl	%edx				
	popl	%ebx				
	popl	%esi				
	popl	%eax				
	popl	%ecx				
	
# 0 "" 2
.LVL41:
	.loc 1 491 0
#NO_APP
	popl	%ebx
	.cfi_restore 3
	.cfi_def_cfa_offset 12
	popl	%esi
	.cfi_restore 6
	.cfi_def_cfa_offset 8
	popl	%edi
	.cfi_restore 7
	.cfi_def_cfa_offset 4
	ret
	.cfi_endproc
.LFE22:
	.size	VirtualAlloc, .-VirtualAlloc
	.section	.text.unlikely
.LCOLDE22:
	.text
.LHOTE22:
	.section	.text.unlikely
.LCOLDB23:
	.text
.LHOTB23:
	.p2align 4,,15
	.globl	VirtualFree
	.type	VirtualFree, @function
VirtualFree:
.LFB23:
	.loc 1 494 0
	.cfi_startproc
.LVL42:
	.loc 1 495 0
	movl	$24, %eax
	movl	4(%esp), %edx
#APP
# 495 "kapi.c" 1
	.code32			
	pushl 	%edx			
	pushl	$0			
	pushl	%eax			
	int	$0x7F		
	popl	%eax		
	popl	%eax		
	popl	%eax			
	
# 0 "" 2
.LVL43:
#NO_APP
	ret
	.cfi_endproc
.LFE23:
	.size	VirtualFree, .-VirtualFree
	.section	.text.unlikely
.LCOLDE23:
	.text
.LHOTE23:
	.section	.text.unlikely
.LCOLDB24:
	.text
.LHOTB24:
	.p2align 4,,15
	.globl	CreateFile
	.type	CreateFile, @function
CreateFile:
.LFB24:
	.loc 1 502 0
	.cfi_startproc
.LVL44:
	pushl	%esi
	.cfi_def_cfa_offset 8
	.cfi_offset 6, -8
	.loc 1 503 0
	movl	$25, %eax
	.loc 1 502 0
	pushl	%ebx
	.cfi_def_cfa_offset 12
	.cfi_offset 3, -12
	.loc 1 503 0
	movl	24(%esp), %ebx
	movl	20(%esp), %edx
	movl	12(%esp), %ecx
	movl	16(%esp), %esi
#APP
# 503 "kapi.c" 1
	.code32				
	pushl	%ebx				
	pushl	%edx				
	pushl	%esi				
	pushl	%ecx				
	pushl	$0				
	pushl	%eax				
	int	$0x7F			
	popl	%eax			
	popl	%eax			
	popl	%edx				
	popl	%ebx				
	popl	%eax				
	popl	%ecx				
	
# 0 "" 2
.LVL45:
	.loc 1 508 0
#NO_APP
	popl	%ebx
	.cfi_restore 3
	.cfi_def_cfa_offset 8
	popl	%esi
	.cfi_restore 6
	.cfi_def_cfa_offset 4
	ret
	.cfi_endproc
.LFE24:
	.size	CreateFile, .-CreateFile
	.section	.text.unlikely
.LCOLDE24:
	.text
.LHOTE24:
	.section	.text.unlikely
.LCOLDB25:
	.text
.LHOTB25:
	.p2align 4,,15
	.globl	ReadFile
	.type	ReadFile, @function
ReadFile:
.LFB25:
	.loc 1 514 0
	.cfi_startproc
.LVL46:
	pushl	%esi
	.cfi_def_cfa_offset 8
	.cfi_offset 6, -8
	.loc 1 515 0
	movl	$26, %eax
	.loc 1 514 0
	pushl	%ebx
	.cfi_def_cfa_offset 12
	.cfi_offset 3, -12
	.loc 1 515 0
	movl	24(%esp), %ebx
	movl	20(%esp), %edx
	movl	12(%esp), %ecx
	movl	16(%esp), %esi
#APP
# 515 "kapi.c" 1
	.code32				
	pushl	%ebx				
	pushl	%edx				
	pushl	%esi				
	pushl	%ecx				
	pushl	$0				
	pushl	%eax				
	int	$0x7F			
	popl	%eax			
	popl	%eax			
	popl	%edx				
	popl	%ebx				
	popl	%eax				
	popl	%ecx				
	
# 0 "" 2
.LVL47:
	.loc 1 520 0
#NO_APP
	popl	%ebx
	.cfi_restore 3
	.cfi_def_cfa_offset 8
	popl	%esi
	.cfi_restore 6
	.cfi_def_cfa_offset 4
	ret
	.cfi_endproc
.LFE25:
	.size	ReadFile, .-ReadFile
	.section	.text.unlikely
.LCOLDE25:
	.text
.LHOTE25:
	.section	.text.unlikely
.LCOLDB26:
	.text
.LHOTB26:
	.p2align 4,,15
	.globl	WriteFile
	.type	WriteFile, @function
WriteFile:
.LFB26:
	.loc 1 526 0
	.cfi_startproc
.LVL48:
	pushl	%esi
	.cfi_def_cfa_offset 8
	.cfi_offset 6, -8
	.loc 1 527 0
	movl	$27, %eax
	.loc 1 526 0
	pushl	%ebx
	.cfi_def_cfa_offset 12
	.cfi_offset 3, -12
	.loc 1 527 0
	movl	24(%esp), %ebx
	movl	20(%esp), %edx
	movl	12(%esp), %ecx
	movl	16(%esp), %esi
#APP
# 527 "kapi.c" 1
	.code32				
	pushl	%ebx				
	pushl	%edx				
	pushl	%esi				
	pushl	%ecx				
	pushl	$0				
	pushl	%eax				
	int	$0x7F			
	popl	%eax			
	popl	%eax			
	popl	%edx				
	popl	%ebx				
	popl	%eax				
	popl	%ecx				
	
# 0 "" 2
.LVL49:
	.loc 1 532 0
#NO_APP
	popl	%ebx
	.cfi_restore 3
	.cfi_def_cfa_offset 8
	popl	%esi
	.cfi_restore 6
	.cfi_def_cfa_offset 4
	ret
	.cfi_endproc
.LFE26:
	.size	WriteFile, .-WriteFile
	.section	.text.unlikely
.LCOLDE26:
	.text
.LHOTE26:
	.section	.text.unlikely
.LCOLDB27:
	.text
.LHOTB27:
	.p2align 4,,15
	.globl	CloseFile
	.type	CloseFile, @function
CloseFile:
.LFB27:
	.loc 1 535 0
	.cfi_startproc
.LVL50:
	.loc 1 536 0
	movl	$28, %eax
	movl	4(%esp), %edx
#APP
# 536 "kapi.c" 1
	.code32			
	pushl 	%edx			
	pushl	$0			
	pushl	%eax			
	int	$0x7F		
	popl	%eax		
	popl	%eax		
	popl	%eax			
	
# 0 "" 2
.LVL51:
#NO_APP
	ret
	.cfi_endproc
.LFE27:
	.size	CloseFile, .-CloseFile
	.section	.text.unlikely
.LCOLDE27:
	.text
.LHOTE27:
	.section	.text.unlikely
.LCOLDB28:
	.text
.LHOTB28:
	.p2align 4,,15
	.globl	CreateDirectory
	.type	CreateDirectory, @function
CreateDirectory:
.LFB28:
	.loc 1 541 0
	.cfi_startproc
.LVL52:
	.loc 1 542 0
	movl	$29, %eax
	movl	4(%esp), %edx
#APP
# 542 "kapi.c" 1
	.code32			
	pushl 	%edx			
	pushl	$0			
	pushl	%eax			
	int	$0x7F		
	popl	%eax		
	popl	%eax		
	popl	%eax			
	
# 0 "" 2
.LVL53:
	.loc 1 543 0
#NO_APP
	ret
	.cfi_endproc
.LFE28:
	.size	CreateDirectory, .-CreateDirectory
	.section	.text.unlikely
.LCOLDE28:
	.text
.LHOTE28:
	.section	.text.unlikely
.LCOLDB29:
	.text
.LHOTB29:
	.p2align 4,,15
	.globl	DeleteFile
	.type	DeleteFile, @function
DeleteFile:
.LFB29:
	.loc 1 546 0
	.cfi_startproc
.LVL54:
	.loc 1 547 0
	movl	$30, %eax
	movl	4(%esp), %edx
#APP
# 547 "kapi.c" 1
	.code32			
	pushl 	%edx			
	pushl	$0			
	pushl	%eax			
	int	$0x7F		
	popl	%eax		
	popl	%eax		
	popl	%eax			
	
# 0 "" 2
.LVL55:
	.loc 1 548 0
#NO_APP
	ret
	.cfi_endproc
.LFE29:
	.size	DeleteFile, .-DeleteFile
	.section	.text.unlikely
.LCOLDE29:
	.text
.LHOTE29:
	.section	.text.unlikely
.LCOLDB30:
	.text
.LHOTB30:
	.p2align 4,,15
	.globl	FindFirstFile
	.type	FindFirstFile, @function
FindFirstFile:
.LFB30:
	.loc 1 552 0
	.cfi_startproc
.LVL56:
	.loc 1 553 0
	movl	$31, %eax
	movl	8(%esp), %ecx
	movl	4(%esp), %edx
#APP
# 553 "kapi.c" 1
	.code32				
	pushl	%ecx				
	pushl	%edx				
	pushl	$0				
	pushl	%eax				
	int	$0x7F			
	popl	%eax			
	popl	%eax			
	popl	%eax				
	popl	%edx				
	
# 0 "" 2
.LVL57:
	.loc 1 556 0
#NO_APP
	ret
	.cfi_endproc
.LFE30:
	.size	FindFirstFile, .-FindFirstFile
	.section	.text.unlikely
.LCOLDE30:
	.text
.LHOTE30:
	.section	.text.unlikely
.LCOLDB31:
	.text
.LHOTB31:
	.p2align 4,,15
	.globl	FindNextFile
	.type	FindNextFile, @function
FindNextFile:
.LFB31:
	.loc 1 561 0
	.cfi_startproc
.LVL58:
	pushl	%ebx
	.cfi_def_cfa_offset 8
	.cfi_offset 3, -8
	.loc 1 562 0
	movl	$32, %eax
	movl	12(%esp), %edx
	movl	8(%esp), %ecx
	movl	16(%esp), %ebx
#APP
# 562 "kapi.c" 1
	.code32				
	pushl	%ebx				
	pushl	%edx				
	pushl	%ecx				
	pushl	$0				
	pushl	%eax				
	int	$0x7F			
	popl	%eax			
	popl	%eax			
	popl	%edx				
	popl	%eax				
	popl	%ecx				
	
# 0 "" 2
.LVL59:
	.loc 1 565 0
#NO_APP
	popl	%ebx
	.cfi_restore 3
	.cfi_def_cfa_offset 4
	ret
	.cfi_endproc
.LFE31:
	.size	FindNextFile, .-FindNextFile
	.section	.text.unlikely
.LCOLDE31:
	.text
.LHOTE31:
	.section	.text.unlikely
.LCOLDB32:
	.text
.LHOTB32:
	.p2align 4,,15
	.globl	FindClose
	.type	FindClose, @function
FindClose:
.LFB32:
	.loc 1 569 0
	.cfi_startproc
.LVL60:
	.loc 1 570 0
	movl	$33, %eax
	movl	8(%esp), %ecx
	movl	4(%esp), %edx
#APP
# 570 "kapi.c" 1
	.code32				
	pushl	%ecx				
	pushl	%edx				
	pushl	$0				
	pushl	%eax				
	int	$0x7F			
	popl	%eax			
	popl	%eax			
	popl	%eax				
	popl	%edx				
	
# 0 "" 2
.LVL61:
#NO_APP
	ret
	.cfi_endproc
.LFE32:
	.size	FindClose, .-FindClose
	.section	.text.unlikely
.LCOLDE32:
	.text
.LHOTE32:
	.section	.text.unlikely
.LCOLDB33:
	.text
.LHOTB33:
	.p2align 4,,15
	.globl	GetFileAttributes
	.type	GetFileAttributes, @function
GetFileAttributes:
.LFB33:
	.loc 1 576 0
	.cfi_startproc
.LVL62:
	.loc 1 577 0
	movl	$34, %eax
	movl	4(%esp), %edx
#APP
# 577 "kapi.c" 1
	.code32			
	pushl 	%edx			
	pushl	$0			
	pushl	%eax			
	int	$0x7F		
	popl	%eax		
	popl	%eax		
	popl	%eax			
	
# 0 "" 2
.LVL63:
	.loc 1 578 0
#NO_APP
	ret
	.cfi_endproc
.LFE33:
	.size	GetFileAttributes, .-GetFileAttributes
	.section	.text.unlikely
.LCOLDE33:
	.text
.LHOTE33:
	.section	.text.unlikely
.LCOLDB34:
	.text
.LHOTB34:
	.p2align 4,,15
	.globl	GetFileSize
	.type	GetFileSize, @function
GetFileSize:
.LFB34:
	.loc 1 581 0
	.cfi_startproc
.LVL64:
	.loc 1 582 0
	movl	$35, %eax
	movl	8(%esp), %ecx
	movl	4(%esp), %edx
#APP
# 582 "kapi.c" 1
	.code32				
	pushl	%ecx				
	pushl	%edx				
	pushl	$0				
	pushl	%eax				
	int	$0x7F			
	popl	%eax			
	popl	%eax			
	popl	%eax				
	popl	%edx				
	
# 0 "" 2
.LVL65:
	.loc 1 584 0
#NO_APP
	ret
	.cfi_endproc
.LFE34:
	.size	GetFileSize, .-GetFileSize
	.section	.text.unlikely
.LCOLDE34:
	.text
.LHOTE34:
	.section	.text.unlikely
.LCOLDB35:
	.text
.LHOTB35:
	.p2align 4,,15
	.globl	RemoveDirectory
	.type	RemoveDirectory, @function
RemoveDirectory:
.LFB35:
	.loc 1 587 0
	.cfi_startproc
.LVL66:
	.loc 1 588 0
	movl	$36, %eax
	movl	4(%esp), %edx
#APP
# 588 "kapi.c" 1
	.code32			
	pushl 	%edx			
	pushl	$0			
	pushl	%eax			
	int	$0x7F		
	popl	%eax		
	popl	%eax		
	popl	%eax			
	
# 0 "" 2
.LVL67:
	.loc 1 590 0
#NO_APP
	ret
	.cfi_endproc
.LFE35:
	.size	RemoveDirectory, .-RemoveDirectory
	.section	.text.unlikely
.LCOLDE35:
	.text
.LHOTE35:
	.section	.text.unlikely
.LCOLDB36:
	.text
.LHOTB36:
	.p2align 4,,15
	.globl	SetEndOfFile
	.type	SetEndOfFile, @function
SetEndOfFile:
.LFB36:
	.loc 1 593 0
	.cfi_startproc
.LVL68:
	.loc 1 594 0
	movl	$37, %eax
	movl	4(%esp), %edx
#APP
# 594 "kapi.c" 1
	.code32			
	pushl 	%edx			
	pushl	$0			
	pushl	%eax			
	int	$0x7F		
	popl	%eax		
	popl	%eax		
	popl	%eax			
	
# 0 "" 2
.LVL69:
	.loc 1 595 0
#NO_APP
	ret
	.cfi_endproc
.LFE36:
	.size	SetEndOfFile, .-SetEndOfFile
	.section	.text.unlikely
.LCOLDE36:
	.text
.LHOTE36:
	.section	.text.unlikely
.LCOLDB37:
	.text
.LHOTB37:
	.p2align 4,,15
	.globl	IOControl
	.type	IOControl, @function
IOControl:
.LFB37:
	.loc 1 604 0
	.cfi_startproc
.LVL70:
	pushl	%ebp
	.cfi_def_cfa_offset 8
	.cfi_offset 5, -8
	.loc 1 605 0
	movl	$38, %eax
	.loc 1 604 0
	pushl	%edi
	.cfi_def_cfa_offset 12
	.cfi_offset 7, -12
	pushl	%esi
	.cfi_def_cfa_offset 16
	.cfi_offset 6, -16
	pushl	%ebx
	.cfi_def_cfa_offset 20
	.cfi_offset 3, -20
	.loc 1 605 0
	movl	40(%esp), %ebx
	movl	36(%esp), %edx
	movl	20(%esp), %ecx
	movl	24(%esp), %esi
	movl	28(%esp), %edi
	movl	32(%esp), %ebp
#APP
# 605 "kapi.c" 1
	.code32				
	pushl	44(%esp)				
	pushl	%ebx				
	pushl	%edx				
	pushl	%ebp				
	pushl	%edi  			
	pushl	%esi  			
	pushl	%ecx				
	pushl	$0				
	pushl	%eax				
	int	$0x7F			
	popl	%eax			
	popl	%eax			
	popl	%edx				
	popl	%ebx				
	popl	%esi				
	popl	%edi				
	popl	%eax				
	popl	%ecx				
	popl	44(%esp)				
	
# 0 "" 2
.LVL71:
	.loc 1 610 0
#NO_APP
	popl	%ebx
	.cfi_restore 3
	.cfi_def_cfa_offset 16
	popl	%esi
	.cfi_restore 6
	.cfi_def_cfa_offset 12
	popl	%edi
	.cfi_restore 7
	.cfi_def_cfa_offset 8
	popl	%ebp
	.cfi_restore 5
	.cfi_def_cfa_offset 4
	ret
	.cfi_endproc
.LFE37:
	.size	IOControl, .-IOControl
	.section	.text.unlikely
.LCOLDE37:
	.text
.LHOTE37:
	.section	.text.unlikely
.LCOLDB38:
	.text
.LHOTB38:
	.p2align 4,,15
	.globl	SetFilePointer
	.type	SetFilePointer, @function
SetFilePointer:
.LFB38:
	.loc 1 616 0
	.cfi_startproc
.LVL72:
	pushl	%esi
	.cfi_def_cfa_offset 8
	.cfi_offset 6, -8
	.loc 1 617 0
	movl	$39, %eax
	.loc 1 616 0
	pushl	%ebx
	.cfi_def_cfa_offset 12
	.cfi_offset 3, -12
	.loc 1 617 0
	movl	24(%esp), %ebx
	movl	20(%esp), %edx
	movl	12(%esp), %ecx
	movl	16(%esp), %esi
#APP
# 617 "kapi.c" 1
	.code32				
	pushl	%ebx				
	pushl	%edx				
	pushl	%esi				
	pushl	%ecx				
	pushl	$0				
	pushl	%eax				
	int	$0x7F			
	popl	%eax			
	popl	%eax			
	popl	%edx				
	popl	%ebx				
	popl	%eax				
	popl	%ecx				
	
# 0 "" 2
.LVL73:
	.loc 1 621 0
#NO_APP
	popl	%ebx
	.cfi_restore 3
	.cfi_def_cfa_offset 8
	popl	%esi
	.cfi_restore 6
	.cfi_def_cfa_offset 4
	ret
	.cfi_endproc
.LFE38:
	.size	SetFilePointer, .-SetFilePointer
	.section	.text.unlikely
.LCOLDE38:
	.text
.LHOTE38:
	.section	.text.unlikely
.LCOLDB39:
	.text
.LHOTB39:
	.p2align 4,,15
	.globl	FlushFileBuffers
	.type	FlushFileBuffers, @function
FlushFileBuffers:
.LFB39:
	.loc 1 624 0
	.cfi_startproc
.LVL74:
	.loc 1 625 0
	movl	$40, %eax
	movl	4(%esp), %edx
#APP
# 625 "kapi.c" 1
	.code32			
	pushl 	%edx			
	pushl	$0			
	pushl	%eax			
	int	$0x7F		
	popl	%eax		
	popl	%eax		
	popl	%eax			
	
# 0 "" 2
.LVL75:
	.loc 1 627 0
#NO_APP
	ret
	.cfi_endproc
.LFE39:
	.size	FlushFileBuffers, .-FlushFileBuffers
	.section	.text.unlikely
.LCOLDE39:
	.text
.LHOTE39:
	.section	.text.unlikely
.LCOLDB40:
	.text
.LHOTB40:
	.p2align 4,,15
	.globl	CreateDevice
	.type	CreateDevice, @function
CreateDevice:
.LFB40:
	.loc 1 636 0
	.cfi_startproc
.LVL76:
	pushl	%ebp
	.cfi_def_cfa_offset 8
	.cfi_offset 5, -8
	.loc 1 637 0
	movl	$41, %eax
	.loc 1 636 0
	pushl	%edi
	.cfi_def_cfa_offset 12
	.cfi_offset 7, -12
	pushl	%esi
	.cfi_def_cfa_offset 16
	.cfi_offset 6, -16
	pushl	%ebx
	.cfi_def_cfa_offset 20
	.cfi_offset 3, -20
	.loc 1 637 0
	movl	40(%esp), %ebx
	movl	36(%esp), %edx
	movl	20(%esp), %ecx
	movl	24(%esp), %esi
	movl	28(%esp), %edi
	movl	32(%esp), %ebp
#APP
# 637 "kapi.c" 1
	.code32				
	pushl	44(%esp)				
	pushl	%ebx				
	pushl	%edx				
	pushl	%ebp				
	pushl	%edi  			
	pushl	%esi  			
	pushl	%ecx				
	pushl	$0				
	pushl	%eax				
	int	$0x7F			
	popl	%eax			
	popl	%eax			
	popl	%edx				
	popl	%ebx				
	popl	%esi				
	popl	%edi				
	popl	%eax				
	popl	%ecx				
	popl	44(%esp)				
	
# 0 "" 2
.LVL77:
	.loc 1 645 0
#NO_APP
	popl	%ebx
	.cfi_restore 3
	.cfi_def_cfa_offset 16
	popl	%esi
	.cfi_restore 6
	.cfi_def_cfa_offset 12
	popl	%edi
	.cfi_restore 7
	.cfi_def_cfa_offset 8
	popl	%ebp
	.cfi_restore 5
	.cfi_def_cfa_offset 4
	ret
	.cfi_endproc
.LFE40:
	.size	CreateDevice, .-CreateDevice
	.section	.text.unlikely
.LCOLDE40:
	.text
.LHOTE40:
	.section	.text.unlikely
.LCOLDB41:
	.text
.LHOTB41:
	.p2align 4,,15
	.globl	DestroyDevice
	.type	DestroyDevice, @function
DestroyDevice:
.LFB41:
	.loc 1 648 0
	.cfi_startproc
.LVL78:
	.loc 1 649 0
	movl	$42, %eax
	movl	4(%esp), %edx
#APP
# 649 "kapi.c" 1
	.code32			
	pushl 	%edx			
	pushl	$0			
	pushl	%eax			
	int	$0x7F		
	popl	%eax		
	popl	%eax		
	popl	%eax			
	
# 0 "" 2
.LVL79:
#NO_APP
	ret
	.cfi_endproc
.LFE41:
	.size	DestroyDevice, .-DestroyDevice
	.section	.text.unlikely
.LCOLDE41:
	.text
.LHOTE41:
	.section	.text.unlikely
.LCOLDB42:
	.text
.LHOTB42:
	.p2align 4,,15
	.globl	KMemAlloc
	.type	KMemAlloc, @function
KMemAlloc:
.LFB42:
	.loc 1 653 0
	.cfi_startproc
.LVL80:
	.loc 1 654 0
	movl	$43, %eax
	movl	8(%esp), %ecx
	movl	4(%esp), %edx
#APP
# 654 "kapi.c" 1
	.code32				
	pushl	%ecx				
	pushl	%edx				
	pushl	$0				
	pushl	%eax				
	int	$0x7F			
	popl	%eax			
	popl	%eax			
	popl	%eax				
	popl	%edx				
	
# 0 "" 2
.LVL81:
	.loc 1 656 0
#NO_APP
	ret
	.cfi_endproc
.LFE42:
	.size	KMemAlloc, .-KMemAlloc
	.section	.text.unlikely
.LCOLDE42:
	.text
.LHOTE42:
	.section	.text.unlikely
.LCOLDB43:
	.text
.LHOTB43:
	.p2align 4,,15
	.globl	KMemFree
	.type	KMemFree, @function
KMemFree:
.LFB43:
	.loc 1 659 0
	.cfi_startproc
.LVL82:
	pushl	%ebx
	.cfi_def_cfa_offset 8
	.cfi_offset 3, -8
	.loc 1 660 0
	movl	$44, %eax
	movl	12(%esp), %edx
	movl	8(%esp), %ecx
	movl	16(%esp), %ebx
#APP
# 660 "kapi.c" 1
	.code32				
	pushl	%ebx				
	pushl	%edx				
	pushl	%ecx				
	pushl	$0				
	pushl	%eax				
	int	$0x7F			
	popl	%eax			
	popl	%eax			
	popl	%edx				
	popl	%eax				
	popl	%ecx				
	
# 0 "" 2
.LVL83:
	.loc 1 663 0
#NO_APP
	popl	%ebx
	.cfi_restore 3
	.cfi_def_cfa_offset 4
	ret
	.cfi_endproc
.LFE43:
	.size	KMemFree, .-KMemFree
	.section	.text.unlikely
.LCOLDE43:
	.text
.LHOTE43:
	.section	.text.unlikely
.LCOLDB44:
	.text
.LHOTB44:
	.p2align 4,,15
	.globl	PrintLine
	.type	PrintLine, @function
PrintLine:
.LFB44:
	.loc 1 666 0
	.cfi_startproc
.LVL84:
	.loc 1 667 0
	movl	$45, %eax
	movl	4(%esp), %edx
#APP
# 667 "kapi.c" 1
	.code32			
	pushl 	%edx			
	pushl	$0			
	pushl	%eax			
	int	$0x7F		
	popl	%eax		
	popl	%eax		
	popl	%eax			
	
# 0 "" 2
.LVL85:
#NO_APP
	ret
	.cfi_endproc
.LFE44:
	.size	PrintLine, .-PrintLine
	.section	.text.unlikely
.LCOLDE44:
	.text
.LHOTE44:
	.section	.text.unlikely
.LCOLDB45:
	.text
.LHOTB45:
	.p2align 4,,15
	.globl	PrintChar
	.type	PrintChar, @function
PrintChar:
.LFB45:
	.loc 1 672 0
	.cfi_startproc
.LVL86:
	.loc 1 673 0
	movzwl	4(%esp), %edx
.LVL87:
	.loc 1 674 0
	movl	$46, %eax
#APP
# 674 "kapi.c" 1
	.code32			
	pushl 	%edx			
	pushl	$0			
	pushl	%eax			
	int	$0x7F		
	popl	%eax		
	popl	%eax		
	popl	%eax			
	
# 0 "" 2
.LVL88:
#NO_APP
	ret
	.cfi_endproc
.LFE45:
	.size	PrintChar, .-PrintChar
	.section	.text.unlikely
.LCOLDE45:
	.text
.LHOTE45:
	.section	.text.unlikely
.LCOLDB46:
	.text
.LHOTB46:
	.p2align 4,,15
	.globl	RegisterSystemCall
	.type	RegisterSystemCall, @function
RegisterSystemCall:
.LFB46:
	.loc 1 680 0
	.cfi_startproc
.LVL89:
	pushl	%ebx
	.cfi_def_cfa_offset 8
	.cfi_offset 3, -8
	.loc 1 681 0
	movl	$47, %eax
	movl	12(%esp), %edx
	movl	8(%esp), %ecx
	movl	16(%esp), %ebx
#APP
# 681 "kapi.c" 1
	.code32				
	pushl	%ebx				
	pushl	%edx				
	pushl	%ecx				
	pushl	$0				
	pushl	%eax				
	int	$0x7F			
	popl	%eax			
	popl	%eax			
	popl	%edx				
	popl	%eax				
	popl	%ecx				
	
# 0 "" 2
.LVL90:
	.loc 1 685 0
#NO_APP
	popl	%ebx
	.cfi_restore 3
	.cfi_def_cfa_offset 4
	ret
	.cfi_endproc
.LFE46:
	.size	RegisterSystemCall, .-RegisterSystemCall
	.section	.text.unlikely
.LCOLDE46:
	.text
.LHOTE46:
	.section	.text.unlikely
.LCOLDB47:
	.text
.LHOTB47:
	.p2align 4,,15
	.globl	ReplaceShell
	.type	ReplaceShell, @function
ReplaceShell:
.LFB47:
	.loc 1 688 0
	.cfi_startproc
.LVL91:
	.loc 1 689 0
	movl	$48, %eax
	movl	4(%esp), %edx
#APP
# 689 "kapi.c" 1
	.code32			
	pushl 	%edx			
	pushl	$0			
	pushl	%eax			
	int	$0x7F		
	popl	%eax		
	popl	%eax		
	popl	%eax			
	
# 0 "" 2
.LVL92:
	.loc 1 691 0
#NO_APP
	ret
	.cfi_endproc
.LFE47:
	.size	ReplaceShell, .-ReplaceShell
	.section	.text.unlikely
.LCOLDE47:
	.text
.LHOTE47:
	.section	.text.unlikely
.LCOLDB48:
	.text
.LHOTB48:
	.p2align 4,,15
	.globl	LoadDriver
	.type	LoadDriver, @function
LoadDriver:
.LFB48:
	.loc 1 694 0
	.cfi_startproc
.LVL93:
	.loc 1 695 0
	movl	$49, %eax
	movl	4(%esp), %edx
#APP
# 695 "kapi.c" 1
	.code32			
	pushl 	%edx			
	pushl	$0			
	pushl	%eax			
	int	$0x7F		
	popl	%eax		
	popl	%eax		
	popl	%eax			
	
# 0 "" 2
.LVL94:
	.loc 1 697 0
#NO_APP
	ret
	.cfi_endproc
.LFE48:
	.size	LoadDriver, .-LoadDriver
	.section	.text.unlikely
.LCOLDE48:
	.text
.LHOTE48:
	.section	.text.unlikely
.LCOLDB49:
	.text
.LHOTB49:
	.p2align 4,,15
	.globl	GetCurrentThread
	.type	GetCurrentThread, @function
GetCurrentThread:
.LFB49:
	.loc 1 700 0
	.cfi_startproc
	.loc 1 701 0
	movl	$50, %eax
#APP
# 701 "kapi.c" 1
	.code32 			
	pushl		$0		
	pushl		%eax		
	int		$0x7F	
	popl		%eax	
	popl		%eax	
	
# 0 "" 2
	.loc 1 702 0
#NO_APP
	ret
	.cfi_endproc
.LFE49:
	.size	GetCurrentThread, .-GetCurrentThread
	.section	.text.unlikely
.LCOLDE49:
	.text
.LHOTE49:
	.section	.text.unlikely
.LCOLDB50:
	.text
.LHOTB50:
	.p2align 4,,15
	.globl	SwitchToGraphic
	.type	SwitchToGraphic, @function
SwitchToGraphic:
.LFB50:
	.loc 1 705 0
	.cfi_startproc
	.loc 1 706 0
	movl	$52, %eax
#APP
# 706 "kapi.c" 1
	.code32 			
	pushl		$0		
	pushl		%eax		
	int		$0x7F	
	popl		%eax	
	popl		%eax	
	
# 0 "" 2
	.loc 1 707 0
#NO_APP
	ret
	.cfi_endproc
.LFE50:
	.size	SwitchToGraphic, .-SwitchToGraphic
	.section	.text.unlikely
.LCOLDE50:
	.text
.LHOTE50:
	.section	.text.unlikely
.LCOLDB51:
	.text
.LHOTB51:
	.p2align 4,,15
	.globl	SwitchToText
	.type	SwitchToText, @function
SwitchToText:
.LFB51:
	.loc 1 710 0
	.cfi_startproc
	.loc 1 711 0
	movl	$53, %eax
#APP
# 711 "kapi.c" 1
	.code32 			
	pushl		$0		
	pushl		%eax		
	int		$0x7F	
	popl		%eax	
	popl		%eax	
	
# 0 "" 2
#NO_APP
	ret
	.cfi_endproc
.LFE51:
	.size	SwitchToText, .-SwitchToText
	.section	.text.unlikely
.LCOLDE51:
	.text
.LHOTE51:
	.section	.text.unlikely
.LCOLDB52:
	.text
.LHOTB52:
	.p2align 4,,15
	.globl	SetFocusThread
	.type	SetFocusThread, @function
SetFocusThread:
.LFB52:
	.loc 1 715 0
	.cfi_startproc
.LVL95:
	.loc 1 716 0
	movl	$54, %eax
	movl	4(%esp), %edx
#APP
# 716 "kapi.c" 1
	.code32			
	pushl 	%edx			
	pushl	$0			
	pushl	%eax			
	int	$0x7F		
	popl	%eax		
	popl	%eax		
	popl	%eax			
	
# 0 "" 2
.LVL96:
	.loc 1 718 0
#NO_APP
	ret
	.cfi_endproc
.LFE52:
	.size	SetFocusThread, .-SetFocusThread
	.section	.text.unlikely
.LCOLDE52:
	.text
.LHOTE52:
.Letext0:
	.section	.text.unlikely
.Letext_cold0:
	.file 2 "kapi.h"
	.section	.note.GNU-stack,"",@progbits
