; Listing generated by Microsoft (R) Optimizing Compiler Version 19.13.26128.0 

	TITLE	C:\HelloX\personal\HelloX_OS\app\yeelight\hxlib\finite.c
	.686P
	.XMM
	include listing.inc
	.model	flat

INCLUDELIB MSVCRT
INCLUDELIB OLDNAMES

PUBLIC	_finite
; Function compile flags: /Odtp
; File c:\hellox\personal\hellox_os\app\yeelight\hxlib\finite.c
;	COMDAT _finite
_TEXT	SEGMENT
_hx$ = -4						; size = 4
_x$ = 8							; size = 8
_finite	PROC						; COMDAT

; 37   : {

  00000	55		 push	 ebp
  00001	8b ec		 mov	 ebp, esp
  00003	51		 push	 ecx

; 38   :   int hx;
; 39   : 
; 40   :   hx = __HI (x);

  00004	8b 45 0c	 mov	 eax, DWORD PTR _x$[ebp+4]
  00007	89 45 fc	 mov	 DWORD PTR _hx$[ebp], eax

; 41   :   return (unsigned) ((hx & 0x7fffffff) - 0x7ff00000) >> 31;

  0000a	8b 45 fc	 mov	 eax, DWORD PTR _hx$[ebp]
  0000d	25 ff ff ff 7f	 and	 eax, 2147483647		; 7fffffffH
  00012	2d 00 00 f0 7f	 sub	 eax, 2146435072		; 7ff00000H
  00017	c1 e8 1f	 shr	 eax, 31			; 0000001fH

; 42   : } /* finite */

  0001a	8b e5		 mov	 esp, ebp
  0001c	5d		 pop	 ebp
  0001d	c3		 ret	 0
_finite	ENDP
_TEXT	ENDS
END
