; Listing generated by Microsoft (R) Optimizing Compiler Version 19.13.26128.0 

	TITLE	C:\HelloX\personal\HelloX_OS\app\yeelight\hxlib\hellox\hellox.c
	.686P
	.XMM
	include listing.inc
	.model	flat

INCLUDELIB MSVCRT
INCLUDELIB OLDNAMES

_DATA	SEGMENT
$SG4843	DB	0dH, 0aH, 'BUG oencountered.', 0dH, 0aH, 'File name: %s', 0dH
	DB	0aH, 'Code Lines:%d', 00H
	ORG $+2
$SG4848	DB	'[%d-%d-%d %d:%d:%d]', 00H
_DATA	ENDS
PUBLIC	_CreateKernelThread
PUBLIC	_DestroyKernelThread
PUBLIC	_SetLastError
PUBLIC	_GetLastError
PUBLIC	_GetThreadID
PUBLIC	_SetThreadPriority
PUBLIC	_TerminateKernelThread
PUBLIC	_GetCurrentThread
PUBLIC	_GetMessage
PUBLIC	_SendMessage
PUBLIC	_Sleep
PUBLIC	_SetTimer
PUBLIC	_CancelTimer
PUBLIC	_CreateEvent
PUBLIC	_DestroyEvent
PUBLIC	_SetEvent
PUBLIC	_ResetEvent
PUBLIC	_CreateMutex
PUBLIC	_DestroyMutex
PUBLIC	_ReleaseMutex
PUBLIC	_WaitForThisObject
PUBLIC	_WaitForThisObjectEx
PUBLIC	_ConnectInterrupt
PUBLIC	_DisconnectInterrupt
PUBLIC	_VirtualAlloc
PUBLIC	_VirtualFree
PUBLIC	_CreateFile
PUBLIC	_ReadFile
PUBLIC	_WriteFile
PUBLIC	_CloseFile
PUBLIC	_CreateDirectory
PUBLIC	_DeleteFile
PUBLIC	_FindFirstFile
PUBLIC	_FindNextFile
PUBLIC	_FindClose
PUBLIC	_GetFileAttributes
PUBLIC	_GetFileSize
PUBLIC	_RemoveDirectory
PUBLIC	_SetEndOfFile
PUBLIC	_IOControl
PUBLIC	_SetFilePointer
PUBLIC	_FlushFileBuffers
PUBLIC	_CreateDevice
PUBLIC	_DestroyDevice
PUBLIC	_KMemAlloc
PUBLIC	_KMemFree
PUBLIC	_PrintLine
PUBLIC	_PrintChar
PUBLIC	_GotoHome
PUBLIC	_ChangeLine
PUBLIC	_GotoPrev
PUBLIC	_GetCursorPos
PUBLIC	_SetCursorPos
PUBLIC	_SwitchToGraphic
PUBLIC	_SwitchToText
PUBLIC	_SetFocusThread
PUBLIC	_RegisterSystemCall
PUBLIC	_ReplaceShell
PUBLIC	_LoadDriver
PUBLIC	_GetSystemTime
PUBLIC	___BUG
PUBLIC	_LogHeader
EXTRN	__hx_printf:PROC
; Function compile flags: /Odtp
; File c:\hellox\personal\hellox_os\app\yeelight\hxlib\hellox\hellox.c
;	COMDAT _LogHeader
_TEXT	SEGMENT
_time$ = -8						; size = 6
_level$ = 8						; size = 4
_LogHeader PROC						; COMDAT

; 492  : {

  00000	55		 push	 ebp
  00001	8b ec		 mov	 ebp, esp
  00003	83 ec 08	 sub	 esp, 8

; 493  : 	BYTE   time[6];
; 494  : 
; 495  : 	/* Get time and date from arch spec API. */
; 496  : 	GetSystemTime(&time[0]);

  00006	b8 01 00 00 00	 mov	 eax, 1
  0000b	6b c8 00	 imul	 ecx, eax, 0
  0000e	8d 54 0d f8	 lea	 edx, DWORD PTR _time$[ebp+ecx]
  00012	52		 push	 edx
  00013	e8 00 00 00 00	 call	 _GetSystemTime
  00018	83 c4 04	 add	 esp, 4

; 497  : 	_hx_printf("[%d-%d-%d %d:%d:%d]",

  0001b	b8 01 00 00 00	 mov	 eax, 1
  00020	6b c8 05	 imul	 ecx, eax, 5
  00023	0f b6 54 0d f8	 movzx	 edx, BYTE PTR _time$[ebp+ecx]
  00028	52		 push	 edx
  00029	b8 01 00 00 00	 mov	 eax, 1
  0002e	c1 e0 02	 shl	 eax, 2
  00031	0f b6 4c 05 f8	 movzx	 ecx, BYTE PTR _time$[ebp+eax]
  00036	51		 push	 ecx
  00037	ba 01 00 00 00	 mov	 edx, 1
  0003c	6b c2 03	 imul	 eax, edx, 3
  0003f	0f b6 4c 05 f8	 movzx	 ecx, BYTE PTR _time$[ebp+eax]
  00044	51		 push	 ecx
  00045	ba 01 00 00 00	 mov	 edx, 1
  0004a	d1 e2		 shl	 edx, 1
  0004c	0f b6 44 15 f8	 movzx	 eax, BYTE PTR _time$[ebp+edx]
  00051	50		 push	 eax
  00052	b9 01 00 00 00	 mov	 ecx, 1
  00057	c1 e1 00	 shl	 ecx, 0
  0005a	0f b6 54 0d f8	 movzx	 edx, BYTE PTR _time$[ebp+ecx]
  0005f	52		 push	 edx
  00060	b8 01 00 00 00	 mov	 eax, 1
  00065	6b c8 00	 imul	 ecx, eax, 0
  00068	0f b6 54 0d f8	 movzx	 edx, BYTE PTR _time$[ebp+ecx]
  0006d	81 c2 d0 07 00
	00		 add	 edx, 2000		; 000007d0H
  00073	52		 push	 edx
  00074	68 00 00 00 00	 push	 OFFSET $SG4848
  00079	e8 00 00 00 00	 call	 __hx_printf
  0007e	83 c4 1c	 add	 esp, 28			; 0000001cH

; 498  : 		time[0] + 2000,
; 499  : 		time[1],
; 500  : 		time[2],
; 501  : 		time[3],
; 502  : 		time[4],
; 503  : 		time[5]);
; 504  : }

  00081	8b e5		 mov	 esp, ebp
  00083	5d		 pop	 ebp
  00084	c3		 ret	 0
_LogHeader ENDP
_TEXT	ENDS
; Function compile flags: /Odtp
; File c:\hellox\personal\hellox_os\app\yeelight\hxlib\hellox\hellox.c
;	COMDAT ___BUG
_TEXT	SEGMENT
_dwFlags$ = -4						; size = 4
_lpszFileName$ = 8					; size = 4
_dwLineNum$ = 12					; size = 4
___BUG	PROC						; COMDAT

; 478  : {

  00000	55		 push	 ebp
  00001	8b ec		 mov	 ebp, esp
  00003	51		 push	 ecx

; 479  : 	DWORD   dwFlags;
; 480  : 
; 481  : 	//Print out fatal error information.
; 482  : 	_hx_printf("\r\nBUG oencountered.\r\nFile name: %s\r\nCode Lines:%d", lpszFileName, dwLineNum);

  00004	8b 45 0c	 mov	 eax, DWORD PTR _dwLineNum$[ebp]
  00007	50		 push	 eax
  00008	8b 4d 08	 mov	 ecx, DWORD PTR _lpszFileName$[ebp]
  0000b	51		 push	 ecx
  0000c	68 00 00 00 00	 push	 OFFSET $SG4843
  00011	e8 00 00 00 00	 call	 __hx_printf
  00016	83 c4 0c	 add	 esp, 12			; 0000000cH

; 483  : 
; 484  : 	//Enter infinite loop.
; 485  : 	__ENTER_CRITICAL_SECTION(NULL, dwFlags);

  00019	c7 45 fc 00 00
	00 00		 mov	 DWORD PTR _dwFlags$[ebp], 0
$LN2@BUG:

; 486  : 	while (TRUE);

  00020	83 ca ff	 or	 edx, -1
  00023	74 02		 je	 SHORT $LN1@BUG
  00025	eb f9		 jmp	 SHORT $LN2@BUG
$LN1@BUG:

; 487  : 	__LEAVE_CRITICAL_SECTION(NULL, dwFlags);
; 488  : }

  00027	8b e5		 mov	 esp, ebp
  00029	5d		 pop	 ebp
  0002a	c3		 ret	 0
___BUG	ENDP
_TEXT	ENDS
; Function compile flags: /Odtp
; File c:\hellox\personal\hellox_os\app\yeelight\hxlib\hellox\hellox.c
;	COMDAT _GetSystemTime
_TEXT	SEGMENT
_time$ = 8						; size = 4
_GetSystemTime PROC					; COMDAT

; 435  : {

  00000	55		 push	 ebp
  00001	8b ec		 mov	 ebp, esp

; 436  : 	SYSCALL_PARAM_1(SYSCALL_GETSYSTEMTIME,

  00003	ff 75 08	 push	 DWORD PTR _time$[ebp]
  00006	6a 00		 push	 0
  00008	6a 38		 push	 56			; 00000038H
  0000a	cd 7f		 int	 127			; 0000007fH
  0000c	58		 pop	 eax
  0000d	58		 pop	 eax
  0000e	8f 45 08	 pop	 DWORD PTR _time$[ebp]

; 437  : 		time);
; 438  : }

  00011	5d		 pop	 ebp
  00012	c3		 ret	 0
_GetSystemTime ENDP
_TEXT	ENDS
; Function compile flags: /Odtp
; File c:\hellox\personal\hellox_os\app\yeelight\hxlib\hellox\hellox.c
;	COMDAT _LoadDriver
_TEXT	SEGMENT
_de$ = 8						; size = 4
_LoadDriver PROC					; COMDAT

; 408  : {

  00000	55		 push	 ebp
  00001	8b ec		 mov	 ebp, esp

; 409  : 	SYSCALL_PARAM_1(SYSCALL_LOADDRIVER,

  00003	ff 75 08	 push	 DWORD PTR _de$[ebp]
  00006	6a 00		 push	 0
  00008	6a 31		 push	 49			; 00000031H
  0000a	cd 7f		 int	 127			; 0000007fH
  0000c	58		 pop	 eax
  0000d	58		 pop	 eax
  0000e	8f 45 08	 pop	 DWORD PTR _de$[ebp]

; 410  : 		de);
; 411  : }

  00011	5d		 pop	 ebp
  00012	c3		 ret	 0
_LoadDriver ENDP
_TEXT	ENDS
; Function compile flags: /Odtp
; File c:\hellox\personal\hellox_os\app\yeelight\hxlib\hellox\hellox.c
;	COMDAT _ReplaceShell
_TEXT	SEGMENT
_shell$ = 8						; size = 4
_ReplaceShell PROC					; COMDAT

; 402  : {

  00000	55		 push	 ebp
  00001	8b ec		 mov	 ebp, esp

; 403  : 	SYSCALL_PARAM_1(SYSCALL_REPLACESHELL,

  00003	ff 75 08	 push	 DWORD PTR _shell$[ebp]
  00006	6a 00		 push	 0
  00008	6a 30		 push	 48			; 00000030H
  0000a	cd 7f		 int	 127			; 0000007fH
  0000c	58		 pop	 eax
  0000d	58		 pop	 eax
  0000e	8f 45 08	 pop	 DWORD PTR _shell$[ebp]

; 404  : 		shell);
; 405  : }

  00011	5d		 pop	 ebp
  00012	c3		 ret	 0
_ReplaceShell ENDP
_TEXT	ENDS
; Function compile flags: /Odtp
; File c:\hellox\personal\hellox_os\app\yeelight\hxlib\hellox\hellox.c
;	COMDAT _RegisterSystemCall
_TEXT	SEGMENT
_dwStartSyscallNum$ = 8					; size = 4
_dwEndSyscallNum$ = 12					; size = 4
_sde$ = 16						; size = 4
_RegisterSystemCall PROC				; COMDAT

; 394  : {

  00000	55		 push	 ebp
  00001	8b ec		 mov	 ebp, esp

; 395  : 	SYSCALL_PARAM_3(SYSCALL_REGISTERSYSTEMCALL,

  00003	ff 75 10	 push	 DWORD PTR _sde$[ebp]
  00006	ff 75 0c	 push	 DWORD PTR _dwEndSyscallNum$[ebp]
  00009	ff 75 08	 push	 DWORD PTR _dwStartSyscallNum$[ebp]
  0000c	6a 00		 push	 0
  0000e	6a 2f		 push	 47			; 0000002fH
  00010	cd 7f		 int	 127			; 0000007fH
  00012	58		 pop	 eax
  00013	58		 pop	 eax
  00014	8f 45 08	 pop	 DWORD PTR _dwStartSyscallNum$[ebp]
  00017	8f 45 0c	 pop	 DWORD PTR _dwEndSyscallNum$[ebp]
  0001a	8f 45 10	 pop	 DWORD PTR _sde$[ebp]

; 396  : 		dwStartSyscallNum,
; 397  : 		dwEndSyscallNum,
; 398  : 		sde);
; 399  : }

  0001d	5d		 pop	 ebp
  0001e	c3		 ret	 0
_RegisterSystemCall ENDP
_TEXT	ENDS
; Function compile flags: /Odtp
; File c:\hellox\personal\hellox_os\app\yeelight\hxlib\hellox\hellox.c
;	COMDAT _SetFocusThread
_TEXT	SEGMENT
_hNewThread$ = 8					; size = 4
_SetFocusThread PROC					; COMDAT

; 429  : {

  00000	55		 push	 ebp
  00001	8b ec		 mov	 ebp, esp

; 430  : 	SYSCALL_PARAM_1(SYSCALL_SETFOCUSTHREAD,

  00003	ff 75 08	 push	 DWORD PTR _hNewThread$[ebp]
  00006	6a 00		 push	 0
  00008	6a 36		 push	 54			; 00000036H
  0000a	cd 7f		 int	 127			; 0000007fH
  0000c	58		 pop	 eax
  0000d	58		 pop	 eax
  0000e	8f 45 08	 pop	 DWORD PTR _hNewThread$[ebp]

; 431  : 		hNewThread);
; 432  : }

  00011	5d		 pop	 ebp
  00012	c3		 ret	 0
_SetFocusThread ENDP
_TEXT	ENDS
; Function compile flags: /Odtp
; File c:\hellox\personal\hellox_os\app\yeelight\hxlib\hellox\hellox.c
;	COMDAT _SwitchToText
_TEXT	SEGMENT
_SwitchToText PROC					; COMDAT

; 424  : {

  00000	55		 push	 ebp
  00001	8b ec		 mov	 ebp, esp

; 425  : 	SYSCALL_PARAM_0(SYSCALL_SWITCHTOTEXT);

  00003	6a 00		 push	 0
  00005	6a 35		 push	 53			; 00000035H
  00007	cd 7f		 int	 127			; 0000007fH
  00009	58		 pop	 eax
  0000a	58		 pop	 eax

; 426  : }

  0000b	5d		 pop	 ebp
  0000c	c3		 ret	 0
_SwitchToText ENDP
_TEXT	ENDS
; Function compile flags: /Odtp
; File c:\hellox\personal\hellox_os\app\yeelight\hxlib\hellox\hellox.c
;	COMDAT _SwitchToGraphic
_TEXT	SEGMENT
_SwitchToGraphic PROC					; COMDAT

; 419  : {

  00000	55		 push	 ebp
  00001	8b ec		 mov	 ebp, esp

; 420  : 	SYSCALL_PARAM_0(SYSCALL_SWITCHTOGRAPHIC);

  00003	6a 00		 push	 0
  00005	6a 34		 push	 52			; 00000034H
  00007	cd 7f		 int	 127			; 0000007fH
  00009	58		 pop	 eax
  0000a	58		 pop	 eax

; 421  : }

  0000b	5d		 pop	 ebp
  0000c	c3		 ret	 0
_SwitchToGraphic ENDP
_TEXT	ENDS
; Function compile flags: /Odtp
; File c:\hellox\personal\hellox_os\app\yeelight\hxlib\hellox\hellox.c
;	COMDAT _SetCursorPos
_TEXT	SEGMENT
_x$ = 8							; size = 2
_y$ = 12						; size = 2
_SetCursorPos PROC					; COMDAT

; 462  : {

  00000	55		 push	 ebp
  00001	8b ec		 mov	 ebp, esp

; 463  : 	SYSCALL_PARAM_2(SYSCALL_SETCURSORPOS,

  00003	66 ff 75 0c	 push	 WORD PTR _y$[ebp]
  00007	66 ff 75 08	 push	 WORD PTR _x$[ebp]
  0000b	6a 00		 push	 0
  0000d	6a 3c		 push	 60			; 0000003cH
  0000f	cd 7f		 int	 127			; 0000007fH
  00011	58		 pop	 eax
  00012	58		 pop	 eax
  00013	66 8f 45 08	 pop	 WORD PTR _x$[ebp]
  00017	66 8f 45 0c	 pop	 WORD PTR _y$[ebp]

; 464  : 		x, y);
; 465  : }

  0001b	5d		 pop	 ebp
  0001c	c3		 ret	 0
_SetCursorPos ENDP
_TEXT	ENDS
; Function compile flags: /Odtp
; File c:\hellox\personal\hellox_os\app\yeelight\hxlib\hellox\hellox.c
;	COMDAT _GetCursorPos
_TEXT	SEGMENT
_x$ = 8							; size = 4
_y$ = 12						; size = 4
_GetCursorPos PROC					; COMDAT

; 456  : {

  00000	55		 push	 ebp
  00001	8b ec		 mov	 ebp, esp

; 457  : 	SYSCALL_PARAM_2(SYSCALL_GETCURSORPOS,

  00003	ff 75 0c	 push	 DWORD PTR _y$[ebp]
  00006	ff 75 08	 push	 DWORD PTR _x$[ebp]
  00009	6a 00		 push	 0
  0000b	6a 3b		 push	 59			; 0000003bH
  0000d	cd 7f		 int	 127			; 0000007fH
  0000f	58		 pop	 eax
  00010	58		 pop	 eax
  00011	8f 45 08	 pop	 DWORD PTR _x$[ebp]
  00014	8f 45 0c	 pop	 DWORD PTR _y$[ebp]

; 458  : 		x, y);
; 459  : }

  00017	5d		 pop	 ebp
  00018	c3		 ret	 0
_GetCursorPos ENDP
_TEXT	ENDS
; Function compile flags: /Odtp
; File c:\hellox\personal\hellox_os\app\yeelight\hxlib\hellox\hellox.c
;	COMDAT _GotoPrev
_TEXT	SEGMENT
_GotoPrev PROC						; COMDAT

; 451  : {

  00000	55		 push	 ebp
  00001	8b ec		 mov	 ebp, esp

; 452  : 	SYSCALL_PARAM_0(SYSCALL_GOTOPREV);

  00003	6a 00		 push	 0
  00005	6a 3e		 push	 62			; 0000003eH
  00007	cd 7f		 int	 127			; 0000007fH
  00009	58		 pop	 eax
  0000a	58		 pop	 eax

; 453  : }

  0000b	5d		 pop	 ebp
  0000c	c3		 ret	 0
_GotoPrev ENDP
_TEXT	ENDS
; Function compile flags: /Odtp
; File c:\hellox\personal\hellox_os\app\yeelight\hxlib\hellox\hellox.c
;	COMDAT _ChangeLine
_TEXT	SEGMENT
_ChangeLine PROC					; COMDAT

; 446  : {

  00000	55		 push	 ebp
  00001	8b ec		 mov	 ebp, esp

; 447  : 	SYSCALL_PARAM_0(SYSCALL_CHANGELINE);

  00003	6a 00		 push	 0
  00005	6a 3a		 push	 58			; 0000003aH
  00007	cd 7f		 int	 127			; 0000007fH
  00009	58		 pop	 eax
  0000a	58		 pop	 eax

; 448  : }

  0000b	5d		 pop	 ebp
  0000c	c3		 ret	 0
_ChangeLine ENDP
_TEXT	ENDS
; Function compile flags: /Odtp
; File c:\hellox\personal\hellox_os\app\yeelight\hxlib\hellox\hellox.c
;	COMDAT _GotoHome
_TEXT	SEGMENT
_GotoHome PROC						; COMDAT

; 441  : {

  00000	55		 push	 ebp
  00001	8b ec		 mov	 ebp, esp

; 442  : 	SYSCALL_PARAM_0(SYSCALL_GOTOHOME);

  00003	6a 00		 push	 0
  00005	6a 39		 push	 57			; 00000039H
  00007	cd 7f		 int	 127			; 0000007fH
  00009	58		 pop	 eax
  0000a	58		 pop	 eax

; 443  : }

  0000b	5d		 pop	 ebp
  0000c	c3		 ret	 0
_GotoHome ENDP
_TEXT	ENDS
; Function compile flags: /Odtp
; File c:\hellox\personal\hellox_os\app\yeelight\hxlib\hellox\hellox.c
;	COMDAT _PrintChar
_TEXT	SEGMENT
_dwCh$ = -4						; size = 4
_ch$ = 8						; size = 2
_PrintChar PROC						; COMDAT

; 386  : {

  00000	55		 push	 ebp
  00001	8b ec		 mov	 ebp, esp
  00003	51		 push	 ecx

; 387  : 	DWORD dwCh = (DWORD)ch;

  00004	0f b7 45 08	 movzx	 eax, WORD PTR _ch$[ebp]
  00008	89 45 fc	 mov	 DWORD PTR _dwCh$[ebp], eax

; 388  : 	SYSCALL_PARAM_1(SYSCALL_PRINTCHAR,

  0000b	ff 75 fc	 push	 DWORD PTR _dwCh$[ebp]
  0000e	6a 00		 push	 0
  00010	6a 2e		 push	 46			; 0000002eH
  00012	cd 7f		 int	 127			; 0000007fH
  00014	58		 pop	 eax
  00015	58		 pop	 eax
  00016	8f 45 fc	 pop	 DWORD PTR _dwCh$[ebp]

; 389  : 		dwCh);
; 390  : }

  00019	8b e5		 mov	 esp, ebp
  0001b	5d		 pop	 ebp
  0001c	c3		 ret	 0
_PrintChar ENDP
_TEXT	ENDS
; Function compile flags: /Odtp
; File c:\hellox\personal\hellox_os\app\yeelight\hxlib\hellox\hellox.c
;	COMDAT _PrintLine
_TEXT	SEGMENT
_lpszInfo$ = 8						; size = 4
_PrintLine PROC						; COMDAT

; 380  : {

  00000	55		 push	 ebp
  00001	8b ec		 mov	 ebp, esp

; 381  : 	SYSCALL_PARAM_1(SYSCALL_PRINTLINE,

  00003	ff 75 08	 push	 DWORD PTR _lpszInfo$[ebp]
  00006	6a 00		 push	 0
  00008	6a 2d		 push	 45			; 0000002dH
  0000a	cd 7f		 int	 127			; 0000007fH
  0000c	58		 pop	 eax
  0000d	58		 pop	 eax
  0000e	8f 45 08	 pop	 DWORD PTR _lpszInfo$[ebp]

; 382  : 		lpszInfo);
; 383  : }

  00011	5d		 pop	 ebp
  00012	c3		 ret	 0
_PrintLine ENDP
_TEXT	ENDS
; Function compile flags: /Odtp
; File c:\hellox\personal\hellox_os\app\yeelight\hxlib\hellox\hellox.c
;	COMDAT _KMemFree
_TEXT	SEGMENT
_lpMemAddr$ = 8						; size = 4
_dwSizeType$ = 12					; size = 4
_dwMemLength$ = 16					; size = 4
_KMemFree PROC						; COMDAT

; 373  : {

  00000	55		 push	 ebp
  00001	8b ec		 mov	 ebp, esp

; 374  : 	SYSCALL_PARAM_3(SYSCALL_KMEMFREE, lpMemAddr,

  00003	ff 75 10	 push	 DWORD PTR _dwMemLength$[ebp]
  00006	ff 75 0c	 push	 DWORD PTR _dwSizeType$[ebp]
  00009	ff 75 08	 push	 DWORD PTR _lpMemAddr$[ebp]
  0000c	6a 00		 push	 0
  0000e	6a 2c		 push	 44			; 0000002cH
  00010	cd 7f		 int	 127			; 0000007fH
  00012	58		 pop	 eax
  00013	58		 pop	 eax
  00014	8f 45 08	 pop	 DWORD PTR _lpMemAddr$[ebp]
  00017	8f 45 0c	 pop	 DWORD PTR _dwSizeType$[ebp]
  0001a	8f 45 10	 pop	 DWORD PTR _dwMemLength$[ebp]

; 375  : 		dwSizeType,
; 376  : 		dwMemLength);
; 377  : }

  0001d	5d		 pop	 ebp
  0001e	c3		 ret	 0
_KMemFree ENDP
_TEXT	ENDS
; Function compile flags: /Odtp
; File c:\hellox\personal\hellox_os\app\yeelight\hxlib\hellox\hellox.c
;	COMDAT _KMemAlloc
_TEXT	SEGMENT
_dwSize$ = 8						; size = 4
_dwSizeType$ = 12					; size = 4
_KMemAlloc PROC						; COMDAT

; 367  : {

  00000	55		 push	 ebp
  00001	8b ec		 mov	 ebp, esp

; 368  : 	SYSCALL_PARAM_2(SYSCALL_KMEMALLOC,

  00003	ff 75 0c	 push	 DWORD PTR _dwSizeType$[ebp]
  00006	ff 75 08	 push	 DWORD PTR _dwSize$[ebp]
  00009	6a 00		 push	 0
  0000b	6a 2b		 push	 43			; 0000002bH
  0000d	cd 7f		 int	 127			; 0000007fH
  0000f	58		 pop	 eax
  00010	58		 pop	 eax
  00011	8f 45 08	 pop	 DWORD PTR _dwSize$[ebp]
  00014	8f 45 0c	 pop	 DWORD PTR _dwSizeType$[ebp]

; 369  : 		dwSize, dwSizeType);
; 370  : }

  00017	5d		 pop	 ebp
  00018	c3		 ret	 0
_KMemAlloc ENDP
_TEXT	ENDS
; Function compile flags: /Odtp
; File c:\hellox\personal\hellox_os\app\yeelight\hxlib\hellox\hellox.c
;	COMDAT _DestroyDevice
_TEXT	SEGMENT
_hDevice$ = 8						; size = 4
_DestroyDevice PROC					; COMDAT

; 362  : {

  00000	55		 push	 ebp
  00001	8b ec		 mov	 ebp, esp

; 363  : 	SYSCALL_PARAM_1(SYSCALL_DESTROYDEVICE, hDevice);

  00003	ff 75 08	 push	 DWORD PTR _hDevice$[ebp]
  00006	6a 00		 push	 0
  00008	6a 2a		 push	 42			; 0000002aH
  0000a	cd 7f		 int	 127			; 0000007fH
  0000c	58		 pop	 eax
  0000d	58		 pop	 eax
  0000e	8f 45 08	 pop	 DWORD PTR _hDevice$[ebp]

; 364  : }

  00011	5d		 pop	 ebp
  00012	c3		 ret	 0
_DestroyDevice ENDP
_TEXT	ENDS
; Function compile flags: /Odtp
; File c:\hellox\personal\hellox_os\app\yeelight\hxlib\hellox\hellox.c
;	COMDAT _CreateDevice
_TEXT	SEGMENT
_lpszDevName$ = 8					; size = 4
_dwAttributes$ = 12					; size = 4
_dwBlockSize$ = 16					; size = 4
_dwMaxReadSize$ = 20					; size = 4
_dwMaxWriteSize$ = 24					; size = 4
_lpDevExtension$ = 28					; size = 4
_hDrvObject$ = 32					; size = 4
_CreateDevice PROC					; COMDAT

; 350  : {

  00000	55		 push	 ebp
  00001	8b ec		 mov	 ebp, esp

; 351  : 	SYSCALL_PARAM_7(SYSCALL_CREATEDEVICE,

  00003	ff 75 20	 push	 DWORD PTR _hDrvObject$[ebp]
  00006	ff 75 1c	 push	 DWORD PTR _lpDevExtension$[ebp]
  00009	ff 75 18	 push	 DWORD PTR _dwMaxWriteSize$[ebp]
  0000c	ff 75 14	 push	 DWORD PTR _dwMaxReadSize$[ebp]
  0000f	ff 75 10	 push	 DWORD PTR _dwBlockSize$[ebp]
  00012	ff 75 0c	 push	 DWORD PTR _dwAttributes$[ebp]
  00015	ff 75 08	 push	 DWORD PTR _lpszDevName$[ebp]
  00018	6a 00		 push	 0
  0001a	6a 29		 push	 41			; 00000029H
  0001c	cd 7f		 int	 127			; 0000007fH
  0001e	58		 pop	 eax
  0001f	58		 pop	 eax
  00020	8f 45 08	 pop	 DWORD PTR _lpszDevName$[ebp]
  00023	8f 45 0c	 pop	 DWORD PTR _dwAttributes$[ebp]
  00026	8f 45 10	 pop	 DWORD PTR _dwBlockSize$[ebp]
  00029	8f 45 14	 pop	 DWORD PTR _dwMaxReadSize$[ebp]
  0002c	8f 45 18	 pop	 DWORD PTR _dwMaxWriteSize$[ebp]
  0002f	8f 45 1c	 pop	 DWORD PTR _lpDevExtension$[ebp]
  00032	8f 45 20	 pop	 DWORD PTR _hDrvObject$[ebp]

; 352  : 		lpszDevName,
; 353  : 		dwAttributes,
; 354  : 		dwBlockSize,
; 355  : 		dwMaxReadSize,
; 356  : 		dwMaxWriteSize,
; 357  : 		lpDevExtension,
; 358  : 		hDrvObject);
; 359  : }

  00035	5d		 pop	 ebp
  00036	c3		 ret	 0
_CreateDevice ENDP
_TEXT	ENDS
; Function compile flags: /Odtp
; File c:\hellox\personal\hellox_os\app\yeelight\hxlib\hellox\hellox.c
;	COMDAT _FlushFileBuffers
_TEXT	SEGMENT
_hFile$ = 8						; size = 4
_FlushFileBuffers PROC					; COMDAT

; 338  : {

  00000	55		 push	 ebp
  00001	8b ec		 mov	 ebp, esp

; 339  : 	SYSCALL_PARAM_1(SYSCALL_FLUSHFILEBUFFERS,

  00003	ff 75 08	 push	 DWORD PTR _hFile$[ebp]
  00006	6a 00		 push	 0
  00008	6a 28		 push	 40			; 00000028H
  0000a	cd 7f		 int	 127			; 0000007fH
  0000c	58		 pop	 eax
  0000d	58		 pop	 eax
  0000e	8f 45 08	 pop	 DWORD PTR _hFile$[ebp]

; 340  : 		hFile);
; 341  : }

  00011	5d		 pop	 ebp
  00012	c3		 ret	 0
_FlushFileBuffers ENDP
_TEXT	ENDS
; Function compile flags: /Odtp
; File c:\hellox\personal\hellox_os\app\yeelight\hxlib\hellox\hellox.c
;	COMDAT _SetFilePointer
_TEXT	SEGMENT
_hFile$ = 8						; size = 4
_lpdwDistLow$ = 12					; size = 4
_lpdwDistHigh$ = 16					; size = 4
_dwMoveFlags$ = 20					; size = 4
_SetFilePointer PROC					; COMDAT

; 330  : {

  00000	55		 push	 ebp
  00001	8b ec		 mov	 ebp, esp

; 331  : 	SYSCALL_PARAM_4(SYSCALL_SETFILEPOINTER, hFile,

  00003	ff 75 14	 push	 DWORD PTR _dwMoveFlags$[ebp]
  00006	ff 75 10	 push	 DWORD PTR _lpdwDistHigh$[ebp]
  00009	ff 75 0c	 push	 DWORD PTR _lpdwDistLow$[ebp]
  0000c	ff 75 08	 push	 DWORD PTR _hFile$[ebp]
  0000f	6a 00		 push	 0
  00011	6a 27		 push	 39			; 00000027H
  00013	cd 7f		 int	 127			; 0000007fH
  00015	58		 pop	 eax
  00016	58		 pop	 eax
  00017	8f 45 08	 pop	 DWORD PTR _hFile$[ebp]
  0001a	8f 45 0c	 pop	 DWORD PTR _lpdwDistLow$[ebp]
  0001d	8f 45 10	 pop	 DWORD PTR _lpdwDistHigh$[ebp]
  00020	8f 45 14	 pop	 DWORD PTR _dwMoveFlags$[ebp]

; 332  : 		lpdwDistLow,
; 333  : 		lpdwDistHigh,
; 334  : 		dwMoveFlags);
; 335  : }

  00023	5d		 pop	 ebp
  00024	c3		 ret	 0
_SetFilePointer ENDP
_TEXT	ENDS
; Function compile flags: /Odtp
; File c:\hellox\personal\hellox_os\app\yeelight\hxlib\hellox\hellox.c
;	COMDAT _IOControl
_TEXT	SEGMENT
_hFile$ = 8						; size = 4
_dwCommand$ = 12					; size = 4
_dwInputLen$ = 16					; size = 4
_lpInputBuffer$ = 20					; size = 4
_dwOutputLen$ = 24					; size = 4
_lpOutputBuffer$ = 28					; size = 4
_lpdwFilled$ = 32					; size = 4
_IOControl PROC						; COMDAT

; 318  : {

  00000	55		 push	 ebp
  00001	8b ec		 mov	 ebp, esp

; 319  : 	SYSCALL_PARAM_7(SYSCALL_IOCONTROL, hFile,

  00003	ff 75 20	 push	 DWORD PTR _lpdwFilled$[ebp]
  00006	ff 75 1c	 push	 DWORD PTR _lpOutputBuffer$[ebp]
  00009	ff 75 18	 push	 DWORD PTR _dwOutputLen$[ebp]
  0000c	ff 75 14	 push	 DWORD PTR _lpInputBuffer$[ebp]
  0000f	ff 75 10	 push	 DWORD PTR _dwInputLen$[ebp]
  00012	ff 75 0c	 push	 DWORD PTR _dwCommand$[ebp]
  00015	ff 75 08	 push	 DWORD PTR _hFile$[ebp]
  00018	6a 00		 push	 0
  0001a	6a 26		 push	 38			; 00000026H
  0001c	cd 7f		 int	 127			; 0000007fH
  0001e	58		 pop	 eax
  0001f	58		 pop	 eax
  00020	8f 45 08	 pop	 DWORD PTR _hFile$[ebp]
  00023	8f 45 0c	 pop	 DWORD PTR _dwCommand$[ebp]
  00026	8f 45 10	 pop	 DWORD PTR _dwInputLen$[ebp]
  00029	8f 45 14	 pop	 DWORD PTR _lpInputBuffer$[ebp]
  0002c	8f 45 18	 pop	 DWORD PTR _dwOutputLen$[ebp]
  0002f	8f 45 1c	 pop	 DWORD PTR _lpOutputBuffer$[ebp]
  00032	8f 45 20	 pop	 DWORD PTR _lpdwFilled$[ebp]

; 320  : 		dwCommand, dwInputLen,
; 321  : 		lpInputBuffer,
; 322  : 		dwOutputLen, lpOutputBuffer,
; 323  : 		lpdwFilled);
; 324  : }

  00035	5d		 pop	 ebp
  00036	c3		 ret	 0
_IOControl ENDP
_TEXT	ENDS
; Function compile flags: /Odtp
; File c:\hellox\personal\hellox_os\app\yeelight\hxlib\hellox\hellox.c
;	COMDAT _SetEndOfFile
_TEXT	SEGMENT
_hFile$ = 8						; size = 4
_SetEndOfFile PROC					; COMDAT

; 307  : {

  00000	55		 push	 ebp
  00001	8b ec		 mov	 ebp, esp

; 308  : 	SYSCALL_PARAM_1(SYSCALL_SETENDOFFILE, hFile);

  00003	ff 75 08	 push	 DWORD PTR _hFile$[ebp]
  00006	6a 00		 push	 0
  00008	6a 25		 push	 37			; 00000025H
  0000a	cd 7f		 int	 127			; 0000007fH
  0000c	58		 pop	 eax
  0000d	58		 pop	 eax
  0000e	8f 45 08	 pop	 DWORD PTR _hFile$[ebp]

; 309  : }

  00011	5d		 pop	 ebp
  00012	c3		 ret	 0
_SetEndOfFile ENDP
_TEXT	ENDS
; Function compile flags: /Odtp
; File c:\hellox\personal\hellox_os\app\yeelight\hxlib\hellox\hellox.c
;	COMDAT _RemoveDirectory
_TEXT	SEGMENT
_lpszDirName$ = 8					; size = 4
_RemoveDirectory PROC					; COMDAT

; 301  : {

  00000	55		 push	 ebp
  00001	8b ec		 mov	 ebp, esp

; 302  : 	SYSCALL_PARAM_1(SYSCALL_REMOVEDIRECTORY,

  00003	ff 75 08	 push	 DWORD PTR _lpszDirName$[ebp]
  00006	6a 00		 push	 0
  00008	6a 24		 push	 36			; 00000024H
  0000a	cd 7f		 int	 127			; 0000007fH
  0000c	58		 pop	 eax
  0000d	58		 pop	 eax
  0000e	8f 45 08	 pop	 DWORD PTR _lpszDirName$[ebp]

; 303  : 		lpszDirName);
; 304  : }

  00011	5d		 pop	 ebp
  00012	c3		 ret	 0
_RemoveDirectory ENDP
_TEXT	ENDS
; Function compile flags: /Odtp
; File c:\hellox\personal\hellox_os\app\yeelight\hxlib\hellox\hellox.c
;	COMDAT _GetFileSize
_TEXT	SEGMENT
_hFile$ = 8						; size = 4
_lpdwSizeHigh$ = 12					; size = 4
_GetFileSize PROC					; COMDAT

; 295  : {

  00000	55		 push	 ebp
  00001	8b ec		 mov	 ebp, esp

; 296  : 	SYSCALL_PARAM_2(SYSCALL_GETFILESIZE, hFile,

  00003	ff 75 0c	 push	 DWORD PTR _lpdwSizeHigh$[ebp]
  00006	ff 75 08	 push	 DWORD PTR _hFile$[ebp]
  00009	6a 00		 push	 0
  0000b	6a 23		 push	 35			; 00000023H
  0000d	cd 7f		 int	 127			; 0000007fH
  0000f	58		 pop	 eax
  00010	58		 pop	 eax
  00011	8f 45 08	 pop	 DWORD PTR _hFile$[ebp]
  00014	8f 45 0c	 pop	 DWORD PTR _lpdwSizeHigh$[ebp]

; 297  : 		lpdwSizeHigh);
; 298  : }

  00017	5d		 pop	 ebp
  00018	c3		 ret	 0
_GetFileSize ENDP
_TEXT	ENDS
; Function compile flags: /Odtp
; File c:\hellox\personal\hellox_os\app\yeelight\hxlib\hellox\hellox.c
;	COMDAT _GetFileAttributes
_TEXT	SEGMENT
_lpszFileName$ = 8					; size = 4
_GetFileAttributes PROC					; COMDAT

; 290  : {

  00000	55		 push	 ebp
  00001	8b ec		 mov	 ebp, esp

; 291  : 	SYSCALL_PARAM_1(SYSCALL_GETFILEATTRIBUTES, lpszFileName);

  00003	ff 75 08	 push	 DWORD PTR _lpszFileName$[ebp]
  00006	6a 00		 push	 0
  00008	6a 22		 push	 34			; 00000022H
  0000a	cd 7f		 int	 127			; 0000007fH
  0000c	58		 pop	 eax
  0000d	58		 pop	 eax
  0000e	8f 45 08	 pop	 DWORD PTR _lpszFileName$[ebp]

; 292  : }

  00011	5d		 pop	 ebp
  00012	c3		 ret	 0
_GetFileAttributes ENDP
_TEXT	ENDS
; Function compile flags: /Odtp
; File c:\hellox\personal\hellox_os\app\yeelight\hxlib\hellox\hellox.c
;	COMDAT _FindClose
_TEXT	SEGMENT
_lpszDirName$ = 8					; size = 4
_hFindHandle$ = 12					; size = 4
_FindClose PROC						; COMDAT

; 283  : {

  00000	55		 push	 ebp
  00001	8b ec		 mov	 ebp, esp

; 284  : 	SYSCALL_PARAM_2(SYSCALL_FINDCLOSE,

  00003	ff 75 0c	 push	 DWORD PTR _hFindHandle$[ebp]
  00006	ff 75 08	 push	 DWORD PTR _lpszDirName$[ebp]
  00009	6a 00		 push	 0
  0000b	6a 21		 push	 33			; 00000021H
  0000d	cd 7f		 int	 127			; 0000007fH
  0000f	58		 pop	 eax
  00010	58		 pop	 eax
  00011	8f 45 08	 pop	 DWORD PTR _lpszDirName$[ebp]
  00014	8f 45 0c	 pop	 DWORD PTR _hFindHandle$[ebp]

; 285  : 		lpszDirName,
; 286  : 		hFindHandle);
; 287  : }

  00017	5d		 pop	 ebp
  00018	c3		 ret	 0
_FindClose ENDP
_TEXT	ENDS
; Function compile flags: /Odtp
; File c:\hellox\personal\hellox_os\app\yeelight\hxlib\hellox\hellox.c
;	COMDAT _FindNextFile
_TEXT	SEGMENT
_lpszDirName$ = 8					; size = 4
_hFindHandle$ = 12					; size = 4
_pFindData$ = 16					; size = 4
_FindNextFile PROC					; COMDAT

; 275  : {

  00000	55		 push	 ebp
  00001	8b ec		 mov	 ebp, esp

; 276  : 	SYSCALL_PARAM_3(SYSCALL_FINDNEXTFILE, lpszDirName,

  00003	ff 75 10	 push	 DWORD PTR _pFindData$[ebp]
  00006	ff 75 0c	 push	 DWORD PTR _hFindHandle$[ebp]
  00009	ff 75 08	 push	 DWORD PTR _lpszDirName$[ebp]
  0000c	6a 00		 push	 0
  0000e	6a 20		 push	 32			; 00000020H
  00010	cd 7f		 int	 127			; 0000007fH
  00012	58		 pop	 eax
  00013	58		 pop	 eax
  00014	8f 45 08	 pop	 DWORD PTR _lpszDirName$[ebp]
  00017	8f 45 0c	 pop	 DWORD PTR _hFindHandle$[ebp]
  0001a	8f 45 10	 pop	 DWORD PTR _pFindData$[ebp]

; 277  : 		hFindHandle,
; 278  : 		pFindData);
; 279  : }

  0001d	5d		 pop	 ebp
  0001e	c3		 ret	 0
_FindNextFile ENDP
_TEXT	ENDS
; Function compile flags: /Odtp
; File c:\hellox\personal\hellox_os\app\yeelight\hxlib\hellox\hellox.c
;	COMDAT _FindFirstFile
_TEXT	SEGMENT
_lpszDirName$ = 8					; size = 4
_pFindData$ = 12					; size = 4
_FindFirstFile PROC					; COMDAT

; 266  : {

  00000	55		 push	 ebp
  00001	8b ec		 mov	 ebp, esp

; 267  : 	SYSCALL_PARAM_2(SYSCALL_FINDFIRSTFILE,

  00003	ff 75 0c	 push	 DWORD PTR _pFindData$[ebp]
  00006	ff 75 08	 push	 DWORD PTR _lpszDirName$[ebp]
  00009	6a 00		 push	 0
  0000b	6a 1f		 push	 31			; 0000001fH
  0000d	cd 7f		 int	 127			; 0000007fH
  0000f	58		 pop	 eax
  00010	58		 pop	 eax
  00011	8f 45 08	 pop	 DWORD PTR _lpszDirName$[ebp]
  00014	8f 45 0c	 pop	 DWORD PTR _pFindData$[ebp]

; 268  : 		lpszDirName,
; 269  : 		pFindData);
; 270  : }

  00017	5d		 pop	 ebp
  00018	c3		 ret	 0
_FindFirstFile ENDP
_TEXT	ENDS
; Function compile flags: /Odtp
; File c:\hellox\personal\hellox_os\app\yeelight\hxlib\hellox\hellox.c
;	COMDAT _DeleteFile
_TEXT	SEGMENT
_lpszFileName$ = 8					; size = 4
_DeleteFile PROC					; COMDAT

; 260  : {

  00000	55		 push	 ebp
  00001	8b ec		 mov	 ebp, esp

; 261  : 	SYSCALL_PARAM_1(SYSCALL_DELETEFILE, lpszFileName);

  00003	ff 75 08	 push	 DWORD PTR _lpszFileName$[ebp]
  00006	6a 00		 push	 0
  00008	6a 1e		 push	 30			; 0000001eH
  0000a	cd 7f		 int	 127			; 0000007fH
  0000c	58		 pop	 eax
  0000d	58		 pop	 eax
  0000e	8f 45 08	 pop	 DWORD PTR _lpszFileName$[ebp]

; 262  : }

  00011	5d		 pop	 ebp
  00012	c3		 ret	 0
_DeleteFile ENDP
_TEXT	ENDS
; Function compile flags: /Odtp
; File c:\hellox\personal\hellox_os\app\yeelight\hxlib\hellox\hellox.c
;	COMDAT _CreateDirectory
_TEXT	SEGMENT
_lpszDirName$ = 8					; size = 4
_CreateDirectory PROC					; COMDAT

; 255  : {

  00000	55		 push	 ebp
  00001	8b ec		 mov	 ebp, esp

; 256  : 	SYSCALL_PARAM_1(SYSCALL_CREATEDIRECTORY, lpszDirName);

  00003	ff 75 08	 push	 DWORD PTR _lpszDirName$[ebp]
  00006	6a 00		 push	 0
  00008	6a 1d		 push	 29			; 0000001dH
  0000a	cd 7f		 int	 127			; 0000007fH
  0000c	58		 pop	 eax
  0000d	58		 pop	 eax
  0000e	8f 45 08	 pop	 DWORD PTR _lpszDirName$[ebp]

; 257  : }

  00011	5d		 pop	 ebp
  00012	c3		 ret	 0
_CreateDirectory ENDP
_TEXT	ENDS
; Function compile flags: /Odtp
; File c:\hellox\personal\hellox_os\app\yeelight\hxlib\hellox\hellox.c
;	COMDAT _CloseFile
_TEXT	SEGMENT
_hFile$ = 8						; size = 4
_CloseFile PROC						; COMDAT

; 249  : {

  00000	55		 push	 ebp
  00001	8b ec		 mov	 ebp, esp

; 250  : 	SYSCALL_PARAM_1(SYSCALL_CLOSEFILE,

  00003	ff 75 08	 push	 DWORD PTR _hFile$[ebp]
  00006	6a 00		 push	 0
  00008	6a 1c		 push	 28			; 0000001cH
  0000a	cd 7f		 int	 127			; 0000007fH
  0000c	58		 pop	 eax
  0000d	58		 pop	 eax
  0000e	8f 45 08	 pop	 DWORD PTR _hFile$[ebp]

; 251  : 		hFile);
; 252  : }

  00011	5d		 pop	 ebp
  00012	c3		 ret	 0
_CloseFile ENDP
_TEXT	ENDS
; Function compile flags: /Odtp
; File c:\hellox\personal\hellox_os\app\yeelight\hxlib\hellox\hellox.c
;	COMDAT _WriteFile
_TEXT	SEGMENT
_hFile$ = 8						; size = 4
_dwWriteSize$ = 12					; size = 4
_lpBuffer$ = 16						; size = 4
_lpdwWrittenSize$ = 20					; size = 4
_WriteFile PROC						; COMDAT

; 240  : {

  00000	55		 push	 ebp
  00001	8b ec		 mov	 ebp, esp

; 241  : 	SYSCALL_PARAM_4(SYSCALL_WRITEFILE,

  00003	ff 75 14	 push	 DWORD PTR _lpdwWrittenSize$[ebp]
  00006	ff 75 10	 push	 DWORD PTR _lpBuffer$[ebp]
  00009	ff 75 0c	 push	 DWORD PTR _dwWriteSize$[ebp]
  0000c	ff 75 08	 push	 DWORD PTR _hFile$[ebp]
  0000f	6a 00		 push	 0
  00011	6a 1b		 push	 27			; 0000001bH
  00013	cd 7f		 int	 127			; 0000007fH
  00015	58		 pop	 eax
  00016	58		 pop	 eax
  00017	8f 45 08	 pop	 DWORD PTR _hFile$[ebp]
  0001a	8f 45 0c	 pop	 DWORD PTR _dwWriteSize$[ebp]
  0001d	8f 45 10	 pop	 DWORD PTR _lpBuffer$[ebp]
  00020	8f 45 14	 pop	 DWORD PTR _lpdwWrittenSize$[ebp]

; 242  : 		hFile,
; 243  : 		dwWriteSize,
; 244  : 		lpBuffer,
; 245  : 		lpdwWrittenSize);
; 246  : }

  00023	5d		 pop	 ebp
  00024	c3		 ret	 0
_WriteFile ENDP
_TEXT	ENDS
; Function compile flags: /Odtp
; File c:\hellox\personal\hellox_os\app\yeelight\hxlib\hellox\hellox.c
;	COMDAT _ReadFile
_TEXT	SEGMENT
_hFile$ = 8						; size = 4
_dwReadSize$ = 12					; size = 4
_lpBuffer$ = 16						; size = 4
_lpdwReadSize$ = 20					; size = 4
_ReadFile PROC						; COMDAT

; 228  : {

  00000	55		 push	 ebp
  00001	8b ec		 mov	 ebp, esp

; 229  : 	SYSCALL_PARAM_4(SYSCALL_READFILE,

  00003	ff 75 14	 push	 DWORD PTR _lpdwReadSize$[ebp]
  00006	ff 75 10	 push	 DWORD PTR _lpBuffer$[ebp]
  00009	ff 75 0c	 push	 DWORD PTR _dwReadSize$[ebp]
  0000c	ff 75 08	 push	 DWORD PTR _hFile$[ebp]
  0000f	6a 00		 push	 0
  00011	6a 1a		 push	 26			; 0000001aH
  00013	cd 7f		 int	 127			; 0000007fH
  00015	58		 pop	 eax
  00016	58		 pop	 eax
  00017	8f 45 08	 pop	 DWORD PTR _hFile$[ebp]
  0001a	8f 45 0c	 pop	 DWORD PTR _dwReadSize$[ebp]
  0001d	8f 45 10	 pop	 DWORD PTR _lpBuffer$[ebp]
  00020	8f 45 14	 pop	 DWORD PTR _lpdwReadSize$[ebp]

; 230  : 		hFile,
; 231  : 		dwReadSize,
; 232  : 		lpBuffer,
; 233  : 		lpdwReadSize);
; 234  : }

  00023	5d		 pop	 ebp
  00024	c3		 ret	 0
_ReadFile ENDP
_TEXT	ENDS
; Function compile flags: /Odtp
; File c:\hellox\personal\hellox_os\app\yeelight\hxlib\hellox\hellox.c
;	COMDAT _CreateFile
_TEXT	SEGMENT
_lpszFileName$ = 8					; size = 4
_dwAccessMode$ = 12					; size = 4
_dwShareMode$ = 16					; size = 4
_lpReserved$ = 20					; size = 4
_CreateFile PROC					; COMDAT

; 216  : {

  00000	55		 push	 ebp
  00001	8b ec		 mov	 ebp, esp

; 217  : 	SYSCALL_PARAM_4(SYSCALL_CREATEFILE,

  00003	ff 75 14	 push	 DWORD PTR _lpReserved$[ebp]
  00006	ff 75 10	 push	 DWORD PTR _dwShareMode$[ebp]
  00009	ff 75 0c	 push	 DWORD PTR _dwAccessMode$[ebp]
  0000c	ff 75 08	 push	 DWORD PTR _lpszFileName$[ebp]
  0000f	6a 00		 push	 0
  00011	6a 19		 push	 25			; 00000019H
  00013	cd 7f		 int	 127			; 0000007fH
  00015	58		 pop	 eax
  00016	58		 pop	 eax
  00017	8f 45 08	 pop	 DWORD PTR _lpszFileName$[ebp]
  0001a	8f 45 0c	 pop	 DWORD PTR _dwAccessMode$[ebp]
  0001d	8f 45 10	 pop	 DWORD PTR _dwShareMode$[ebp]
  00020	8f 45 14	 pop	 DWORD PTR _lpReserved$[ebp]

; 218  : 		lpszFileName,
; 219  : 		dwAccessMode,
; 220  : 		dwShareMode,
; 221  : 		lpReserved);
; 222  : }

  00023	5d		 pop	 ebp
  00024	c3		 ret	 0
_CreateFile ENDP
_TEXT	ENDS
; Function compile flags: /Odtp
; File c:\hellox\personal\hellox_os\app\yeelight\hxlib\hellox\hellox.c
;	COMDAT _VirtualFree
_TEXT	SEGMENT
_lpVirtualAddr$ = 8					; size = 4
_VirtualFree PROC					; COMDAT

; 208  : {

  00000	55		 push	 ebp
  00001	8b ec		 mov	 ebp, esp

; 209  : 	SYSCALL_PARAM_1(SYSCALL_VIRTUALFREE, lpVirtualAddr);

  00003	ff 75 08	 push	 DWORD PTR _lpVirtualAddr$[ebp]
  00006	6a 00		 push	 0
  00008	6a 18		 push	 24			; 00000018H
  0000a	cd 7f		 int	 127			; 0000007fH
  0000c	58		 pop	 eax
  0000d	58		 pop	 eax
  0000e	8f 45 08	 pop	 DWORD PTR _lpVirtualAddr$[ebp]

; 210  : }

  00011	5d		 pop	 ebp
  00012	c3		 ret	 0
_VirtualFree ENDP
_TEXT	ENDS
; Function compile flags: /Odtp
; File c:\hellox\personal\hellox_os\app\yeelight\hxlib\hellox\hellox.c
;	COMDAT _VirtualAlloc
_TEXT	SEGMENT
_lpDesiredAddr$ = 8					; size = 4
_dwSize$ = 12						; size = 4
_dwAllocateFlags$ = 16					; size = 4
_dwAccessFlags$ = 20					; size = 4
_lpszRegName$ = 24					; size = 4
_VirtualAlloc PROC					; COMDAT

; 198  : {

  00000	55		 push	 ebp
  00001	8b ec		 mov	 ebp, esp

; 199  : 	SYSCALL_PARAM_5(SYSCALL_VIRTUALALLOC,

  00003	ff 75 18	 push	 DWORD PTR _lpszRegName$[ebp]
  00006	ff 75 14	 push	 DWORD PTR _dwAccessFlags$[ebp]
  00009	ff 75 10	 push	 DWORD PTR _dwAllocateFlags$[ebp]
  0000c	ff 75 0c	 push	 DWORD PTR _dwSize$[ebp]
  0000f	ff 75 08	 push	 DWORD PTR _lpDesiredAddr$[ebp]
  00012	6a 00		 push	 0
  00014	6a 17		 push	 23			; 00000017H
  00016	cd 7f		 int	 127			; 0000007fH
  00018	58		 pop	 eax
  00019	58		 pop	 eax
  0001a	8f 45 08	 pop	 DWORD PTR _lpDesiredAddr$[ebp]
  0001d	8f 45 0c	 pop	 DWORD PTR _dwSize$[ebp]
  00020	8f 45 10	 pop	 DWORD PTR _dwAllocateFlags$[ebp]
  00023	8f 45 14	 pop	 DWORD PTR _dwAccessFlags$[ebp]
  00026	8f 45 18	 pop	 DWORD PTR _lpszRegName$[ebp]

; 200  : 		lpDesiredAddr,
; 201  : 		dwSize,
; 202  : 		dwAllocateFlags,
; 203  : 		dwAccessFlags,
; 204  : 		lpszRegName);
; 205  : }

  00029	5d		 pop	 ebp
  0002a	c3		 ret	 0
_VirtualAlloc ENDP
_TEXT	ENDS
; Function compile flags: /Odtp
; File c:\hellox\personal\hellox_os\app\yeelight\hxlib\hellox\hellox.c
;	COMDAT _DisconnectInterrupt
_TEXT	SEGMENT
_hInterrupt$ = 8					; size = 4
_DisconnectInterrupt PROC				; COMDAT

; 189  : {

  00000	55		 push	 ebp
  00001	8b ec		 mov	 ebp, esp

; 190  : 	SYSCALL_PARAM_1(SYSCALL_DISCONNECTINTERRUPT, hInterrupt);

  00003	ff 75 08	 push	 DWORD PTR _hInterrupt$[ebp]
  00006	6a 00		 push	 0
  00008	6a 16		 push	 22			; 00000016H
  0000a	cd 7f		 int	 127			; 0000007fH
  0000c	58		 pop	 eax
  0000d	58		 pop	 eax
  0000e	8f 45 08	 pop	 DWORD PTR _hInterrupt$[ebp]

; 191  : }

  00011	5d		 pop	 ebp
  00012	c3		 ret	 0
_DisconnectInterrupt ENDP
_TEXT	ENDS
; Function compile flags: /Odtp
; File c:\hellox\personal\hellox_os\app\yeelight\hxlib\hellox\hellox.c
;	COMDAT _ConnectInterrupt
_TEXT	SEGMENT
_lpInterruptHandler$ = 8				; size = 4
_lpHandlerParam$ = 12					; size = 4
_ucVector$ = 16						; size = 1
_ConnectInterrupt PROC					; COMDAT

; 144  : {

  00000	55		 push	 ebp
  00001	8b ec		 mov	 ebp, esp
  00003	53		 push	 ebx

; 145  : #ifdef __GCC__
; 146  : 	__asm__ __volatile__(
; 147  : 		".code32			;"
; 148  : 		"pushl 	%%ebx		;"
; 149  : 		"movb	%3,	%%bl	;"
; 150  : 		"pushl	%%ebx				;"
; 151  : 		"pushl	%4					;"
; 152  : 		"pushl	%5					;"
; 153  : 		"pushl	$0					;"
; 154  : 		"pushl	SYSCALL_CONNECTINTERRUPT;"
; 155  : 		"int	$0x7F					;"
; 156  : 		"popl	%%eax					;"
; 157  : 		"popl	%%eax					;"
; 158  : 		"popl	%0						;"
; 159  : 		"popl	%1						;"
; 160  : 		"popl	%%ebx					;"
; 161  : 		"movb	%%bl, %2				;"
; 162  : 		"popl	%%ebx					;"
; 163  : 		:"=r"(lpInterruptHandler), "=r"(lpHandlerParam), "=r"(ucVector)
; 164  : 		: "r"(ucVector), "r"(lpHandlerParam), "r"(lpInterruptHandler)
; 165  : 		:
; 166  : 	);
; 167  : #else
; 168  : 	__asm {
; 169  : 		push ebx

  00004	53		 push	 ebx

; 170  : 		mov bl, ucVector

  00005	8a 5d 10	 mov	 bl, BYTE PTR _ucVector$[ebp]

; 171  : 		push ebx

  00008	53		 push	 ebx

; 172  : 		push lpHandlerParam

  00009	ff 75 0c	 push	 DWORD PTR _lpHandlerParam$[ebp]

; 173  : 		push lpInterruptHandler

  0000c	ff 75 08	 push	 DWORD PTR _lpInterruptHandler$[ebp]

; 174  : 		push 0

  0000f	6a 00		 push	 0

; 175  : 		push SYSCALL_CONNECTINTERRUPT

  00011	6a 15		 push	 21			; 00000015H

; 176  : 		int 0x7F

  00013	cd 7f		 int	 127			; 0000007fH

; 177  : 		pop eax

  00015	58		 pop	 eax

; 178  : 		pop eax

  00016	58		 pop	 eax

; 179  : 		pop lpInterruptHandler

  00017	8f 45 08	 pop	 DWORD PTR _lpInterruptHandler$[ebp]

; 180  : 		pop lpHandlerParam

  0001a	8f 45 0c	 pop	 DWORD PTR _lpHandlerParam$[ebp]

; 181  : 		pop ebx

  0001d	5b		 pop	 ebx

; 182  : 		mov ucVector, bl

  0001e	88 5d 10	 mov	 BYTE PTR _ucVector$[ebp], bl

; 183  : 		pop ebx

  00021	5b		 pop	 ebx

; 184  : 	}
; 185  : #endif
; 186  : }

  00022	5b		 pop	 ebx
  00023	5d		 pop	 ebp
  00024	c3		 ret	 0
_ConnectInterrupt ENDP
_TEXT	ENDS
; Function compile flags: /Odtp
; File c:\hellox\personal\hellox_os\app\yeelight\hxlib\hellox\hellox.c
;	COMDAT _WaitForThisObjectEx
_TEXT	SEGMENT
_hObject$ = 8						; size = 4
_dwMillionSecond$ = 12					; size = 4
_WaitForThisObjectEx PROC				; COMDAT

; 136  : {

  00000	55		 push	 ebp
  00001	8b ec		 mov	 ebp, esp

; 137  : 	SYSCALL_PARAM_2(SYSCALL_WAITFORTHISOBJECTEX, hObject,

  00003	ff 75 0c	 push	 DWORD PTR _dwMillionSecond$[ebp]
  00006	ff 75 08	 push	 DWORD PTR _hObject$[ebp]
  00009	6a 00		 push	 0
  0000b	6a 14		 push	 20			; 00000014H
  0000d	cd 7f		 int	 127			; 0000007fH
  0000f	58		 pop	 eax
  00010	58		 pop	 eax
  00011	8f 45 08	 pop	 DWORD PTR _hObject$[ebp]
  00014	8f 45 0c	 pop	 DWORD PTR _dwMillionSecond$[ebp]

; 138  : 		dwMillionSecond);
; 139  : }

  00017	5d		 pop	 ebp
  00018	c3		 ret	 0
_WaitForThisObjectEx ENDP
_TEXT	ENDS
; Function compile flags: /Odtp
; File c:\hellox\personal\hellox_os\app\yeelight\hxlib\hellox\hellox.c
;	COMDAT _WaitForThisObject
_TEXT	SEGMENT
_hObject$ = 8						; size = 4
_WaitForThisObject PROC					; COMDAT

; 131  : {

  00000	55		 push	 ebp
  00001	8b ec		 mov	 ebp, esp

; 132  : 	SYSCALL_PARAM_1(SYSCALL_WAITFORTHISOBJECT, hObject);

  00003	ff 75 08	 push	 DWORD PTR _hObject$[ebp]
  00006	6a 00		 push	 0
  00008	6a 13		 push	 19			; 00000013H
  0000a	cd 7f		 int	 127			; 0000007fH
  0000c	58		 pop	 eax
  0000d	58		 pop	 eax
  0000e	8f 45 08	 pop	 DWORD PTR _hObject$[ebp]

; 133  : }

  00011	5d		 pop	 ebp
  00012	c3		 ret	 0
_WaitForThisObject ENDP
_TEXT	ENDS
; Function compile flags: /Odtp
; File c:\hellox\personal\hellox_os\app\yeelight\hxlib\hellox\hellox.c
;	COMDAT _ReleaseMutex
_TEXT	SEGMENT
_hMutex$ = 8						; size = 4
_ReleaseMutex PROC					; COMDAT

; 126  : {

  00000	55		 push	 ebp
  00001	8b ec		 mov	 ebp, esp

; 127  : 	SYSCALL_PARAM_1(SYSCALL_RELEASEMUTEX, hMutex);

  00003	ff 75 08	 push	 DWORD PTR _hMutex$[ebp]
  00006	6a 00		 push	 0
  00008	6a 12		 push	 18			; 00000012H
  0000a	cd 7f		 int	 127			; 0000007fH
  0000c	58		 pop	 eax
  0000d	58		 pop	 eax
  0000e	8f 45 08	 pop	 DWORD PTR _hMutex$[ebp]

; 128  : }

  00011	5d		 pop	 ebp
  00012	c3		 ret	 0
_ReleaseMutex ENDP
_TEXT	ENDS
; Function compile flags: /Odtp
; File c:\hellox\personal\hellox_os\app\yeelight\hxlib\hellox\hellox.c
;	COMDAT _DestroyMutex
_TEXT	SEGMENT
_hMutex$ = 8						; size = 4
_DestroyMutex PROC					; COMDAT

; 121  : {

  00000	55		 push	 ebp
  00001	8b ec		 mov	 ebp, esp

; 122  : 	SYSCALL_PARAM_1(SYSCALL_DESTROYMUTEX, hMutex);

  00003	ff 75 08	 push	 DWORD PTR _hMutex$[ebp]
  00006	6a 00		 push	 0
  00008	6a 11		 push	 17			; 00000011H
  0000a	cd 7f		 int	 127			; 0000007fH
  0000c	58		 pop	 eax
  0000d	58		 pop	 eax
  0000e	8f 45 08	 pop	 DWORD PTR _hMutex$[ebp]

; 123  : }

  00011	5d		 pop	 ebp
  00012	c3		 ret	 0
_DestroyMutex ENDP
_TEXT	ENDS
; Function compile flags: /Odtp
; File c:\hellox\personal\hellox_os\app\yeelight\hxlib\hellox\hellox.c
;	COMDAT _CreateMutex
_TEXT	SEGMENT
_CreateMutex PROC					; COMDAT

; 116  : {

  00000	55		 push	 ebp
  00001	8b ec		 mov	 ebp, esp

; 117  : 	SYSCALL_PARAM_0(SYSCALL_CREATEMUTEX);

  00003	6a 00		 push	 0
  00005	6a 10		 push	 16			; 00000010H
  00007	cd 7f		 int	 127			; 0000007fH
  00009	58		 pop	 eax
  0000a	58		 pop	 eax

; 118  : }

  0000b	5d		 pop	 ebp
  0000c	c3		 ret	 0
_CreateMutex ENDP
_TEXT	ENDS
; Function compile flags: /Odtp
; File c:\hellox\personal\hellox_os\app\yeelight\hxlib\hellox\hellox.c
;	COMDAT _ResetEvent
_TEXT	SEGMENT
_hEvent$ = 8						; size = 4
_ResetEvent PROC					; COMDAT

; 111  : {

  00000	55		 push	 ebp
  00001	8b ec		 mov	 ebp, esp

; 112  : 	SYSCALL_PARAM_1(SYSCALL_RESETEVENT, hEvent);

  00003	ff 75 08	 push	 DWORD PTR _hEvent$[ebp]
  00006	6a 00		 push	 0
  00008	6a 0f		 push	 15			; 0000000fH
  0000a	cd 7f		 int	 127			; 0000007fH
  0000c	58		 pop	 eax
  0000d	58		 pop	 eax
  0000e	8f 45 08	 pop	 DWORD PTR _hEvent$[ebp]

; 113  : }

  00011	5d		 pop	 ebp
  00012	c3		 ret	 0
_ResetEvent ENDP
_TEXT	ENDS
; Function compile flags: /Odtp
; File c:\hellox\personal\hellox_os\app\yeelight\hxlib\hellox\hellox.c
;	COMDAT _SetEvent
_TEXT	SEGMENT
_hEvent$ = 8						; size = 4
_SetEvent PROC						; COMDAT

; 106  : {

  00000	55		 push	 ebp
  00001	8b ec		 mov	 ebp, esp

; 107  : 	SYSCALL_PARAM_1(SYSCALL_SETEVENT, hEvent);

  00003	ff 75 08	 push	 DWORD PTR _hEvent$[ebp]
  00006	6a 00		 push	 0
  00008	6a 0e		 push	 14			; 0000000eH
  0000a	cd 7f		 int	 127			; 0000007fH
  0000c	58		 pop	 eax
  0000d	58		 pop	 eax
  0000e	8f 45 08	 pop	 DWORD PTR _hEvent$[ebp]

; 108  : }

  00011	5d		 pop	 ebp
  00012	c3		 ret	 0
_SetEvent ENDP
_TEXT	ENDS
; Function compile flags: /Odtp
; File c:\hellox\personal\hellox_os\app\yeelight\hxlib\hellox\hellox.c
;	COMDAT _DestroyEvent
_TEXT	SEGMENT
_hEvent$ = 8						; size = 4
_DestroyEvent PROC					; COMDAT

; 101  : {

  00000	55		 push	 ebp
  00001	8b ec		 mov	 ebp, esp

; 102  : 	SYSCALL_PARAM_1(SYSCALL_DESTROYEVENT, hEvent);

  00003	ff 75 08	 push	 DWORD PTR _hEvent$[ebp]
  00006	6a 00		 push	 0
  00008	6a 0d		 push	 13			; 0000000dH
  0000a	cd 7f		 int	 127			; 0000007fH
  0000c	58		 pop	 eax
  0000d	58		 pop	 eax
  0000e	8f 45 08	 pop	 DWORD PTR _hEvent$[ebp]

; 103  : }

  00011	5d		 pop	 ebp
  00012	c3		 ret	 0
_DestroyEvent ENDP
_TEXT	ENDS
; Function compile flags: /Odtp
; File c:\hellox\personal\hellox_os\app\yeelight\hxlib\hellox\hellox.c
;	COMDAT _CreateEvent
_TEXT	SEGMENT
_bInitialStatus$ = 8					; size = 4
_CreateEvent PROC					; COMDAT

; 96   : {

  00000	55		 push	 ebp
  00001	8b ec		 mov	 ebp, esp

; 97   : 	SYSCALL_PARAM_1(SYSCALL_CREATEEVENT, bInitialStatus);

  00003	ff 75 08	 push	 DWORD PTR _bInitialStatus$[ebp]
  00006	6a 00		 push	 0
  00008	6a 0c		 push	 12			; 0000000cH
  0000a	cd 7f		 int	 127			; 0000007fH
  0000c	58		 pop	 eax
  0000d	58		 pop	 eax
  0000e	8f 45 08	 pop	 DWORD PTR _bInitialStatus$[ebp]

; 98   : }

  00011	5d		 pop	 ebp
  00012	c3		 ret	 0
_CreateEvent ENDP
_TEXT	ENDS
; Function compile flags: /Odtp
; File c:\hellox\personal\hellox_os\app\yeelight\hxlib\hellox\hellox.c
;	COMDAT _CancelTimer
_TEXT	SEGMENT
_hTimer$ = 8						; size = 4
_CancelTimer PROC					; COMDAT

; 91   : {

  00000	55		 push	 ebp
  00001	8b ec		 mov	 ebp, esp

; 92   : 	SYSCALL_PARAM_1(SYSCALL_CANCELTIMER, hTimer);

  00003	ff 75 08	 push	 DWORD PTR _hTimer$[ebp]
  00006	6a 00		 push	 0
  00008	6a 0b		 push	 11			; 0000000bH
  0000a	cd 7f		 int	 127			; 0000007fH
  0000c	58		 pop	 eax
  0000d	58		 pop	 eax
  0000e	8f 45 08	 pop	 DWORD PTR _hTimer$[ebp]

; 93   : }

  00011	5d		 pop	 ebp
  00012	c3		 ret	 0
_CancelTimer ENDP
_TEXT	ENDS
; Function compile flags: /Odtp
; File c:\hellox\personal\hellox_os\app\yeelight\hxlib\hellox\hellox.c
;	COMDAT _SetTimer
_TEXT	SEGMENT
_dwTimerID$ = 8						; size = 4
_dwMillionSecond$ = 12					; size = 4
_lpHandler$ = 16					; size = 4
_lpHandlerParam$ = 20					; size = 4
_dwTimerFlags$ = 24					; size = 4
_SetTimer PROC						; COMDAT

; 81   : {

  00000	55		 push	 ebp
  00001	8b ec		 mov	 ebp, esp

; 82   : 	SYSCALL_PARAM_5(SYSCALL_SETTIMER,

  00003	ff 75 18	 push	 DWORD PTR _dwTimerFlags$[ebp]
  00006	ff 75 14	 push	 DWORD PTR _lpHandlerParam$[ebp]
  00009	ff 75 10	 push	 DWORD PTR _lpHandler$[ebp]
  0000c	ff 75 0c	 push	 DWORD PTR _dwMillionSecond$[ebp]
  0000f	ff 75 08	 push	 DWORD PTR _dwTimerID$[ebp]
  00012	6a 00		 push	 0
  00014	6a 0a		 push	 10			; 0000000aH
  00016	cd 7f		 int	 127			; 0000007fH
  00018	58		 pop	 eax
  00019	58		 pop	 eax
  0001a	8f 45 08	 pop	 DWORD PTR _dwTimerID$[ebp]
  0001d	8f 45 0c	 pop	 DWORD PTR _dwMillionSecond$[ebp]
  00020	8f 45 10	 pop	 DWORD PTR _lpHandler$[ebp]
  00023	8f 45 14	 pop	 DWORD PTR _lpHandlerParam$[ebp]
  00026	8f 45 18	 pop	 DWORD PTR _dwTimerFlags$[ebp]

; 83   : 		dwTimerID,
; 84   : 		dwMillionSecond,
; 85   : 		lpHandler,
; 86   : 		lpHandlerParam,
; 87   : 		dwTimerFlags);
; 88   : }

  00029	5d		 pop	 ebp
  0002a	c3		 ret	 0
_SetTimer ENDP
_TEXT	ENDS
; Function compile flags: /Odtp
; File c:\hellox\personal\hellox_os\app\yeelight\hxlib\hellox\hellox.c
;	COMDAT _Sleep
_TEXT	SEGMENT
_dwMillionSecond$ = 8					; size = 4
_Sleep	PROC						; COMDAT

; 72   : {

  00000	55		 push	 ebp
  00001	8b ec		 mov	 ebp, esp

; 73   : 	SYSCALL_PARAM_1(SYSCALL_SLEEP, dwMillionSecond);

  00003	ff 75 08	 push	 DWORD PTR _dwMillionSecond$[ebp]
  00006	6a 00		 push	 0
  00008	6a 09		 push	 9
  0000a	cd 7f		 int	 127			; 0000007fH
  0000c	58		 pop	 eax
  0000d	58		 pop	 eax
  0000e	8f 45 08	 pop	 DWORD PTR _dwMillionSecond$[ebp]

; 74   : }

  00011	5d		 pop	 ebp
  00012	c3		 ret	 0
_Sleep	ENDP
_TEXT	ENDS
; Function compile flags: /Odtp
; File c:\hellox\personal\hellox_os\app\yeelight\hxlib\hellox\hellox.c
;	COMDAT _SendMessage
_TEXT	SEGMENT
_hThread$ = 8						; size = 4
_lpMsg$ = 12						; size = 4
_SendMessage PROC					; COMDAT

; 67   : {

  00000	55		 push	 ebp
  00001	8b ec		 mov	 ebp, esp

; 68   : 	SYSCALL_PARAM_2(SYSCALL_SENDMESSAGE, hThread, lpMsg);

  00003	ff 75 0c	 push	 DWORD PTR _lpMsg$[ebp]
  00006	ff 75 08	 push	 DWORD PTR _hThread$[ebp]
  00009	6a 00		 push	 0
  0000b	6a 08		 push	 8
  0000d	cd 7f		 int	 127			; 0000007fH
  0000f	58		 pop	 eax
  00010	58		 pop	 eax
  00011	8f 45 08	 pop	 DWORD PTR _hThread$[ebp]
  00014	8f 45 0c	 pop	 DWORD PTR _lpMsg$[ebp]

; 69   : }

  00017	5d		 pop	 ebp
  00018	c3		 ret	 0
_SendMessage ENDP
_TEXT	ENDS
; Function compile flags: /Odtp
; File c:\hellox\personal\hellox_os\app\yeelight\hxlib\hellox\hellox.c
;	COMDAT _GetMessage
_TEXT	SEGMENT
_lpMsg$ = 8						; size = 4
_GetMessage PROC					; COMDAT

; 62   : {

  00000	55		 push	 ebp
  00001	8b ec		 mov	 ebp, esp

; 63   : 	SYSCALL_PARAM_1(SYSCALL_GETMESSAGE, lpMsg);

  00003	ff 75 08	 push	 DWORD PTR _lpMsg$[ebp]
  00006	6a 00		 push	 0
  00008	6a 07		 push	 7
  0000a	cd 7f		 int	 127			; 0000007fH
  0000c	58		 pop	 eax
  0000d	58		 pop	 eax
  0000e	8f 45 08	 pop	 DWORD PTR _lpMsg$[ebp]

; 64   : }

  00011	5d		 pop	 ebp
  00012	c3		 ret	 0
_GetMessage ENDP
_TEXT	ENDS
; Function compile flags: /Odtp
; File c:\hellox\personal\hellox_os\app\yeelight\hxlib\hellox\hellox.c
;	COMDAT _GetCurrentThread
_TEXT	SEGMENT
_GetCurrentThread PROC					; COMDAT

; 414  : {

  00000	55		 push	 ebp
  00001	8b ec		 mov	 ebp, esp

; 415  : 	SYSCALL_PARAM_0(SYSCALL_GETCURRENTTHREAD);

  00003	6a 00		 push	 0
  00005	6a 32		 push	 50			; 00000032H
  00007	cd 7f		 int	 127			; 0000007fH
  00009	58		 pop	 eax
  0000a	58		 pop	 eax

; 416  : }

  0000b	5d		 pop	 ebp
  0000c	c3		 ret	 0
_GetCurrentThread ENDP
_TEXT	ENDS
; Function compile flags: /Odtp
; File c:\hellox\personal\hellox_os\app\yeelight\hxlib\hellox\hellox.c
;	COMDAT _TerminateKernelThread
_TEXT	SEGMENT
_hThread$ = 8						; size = 4
_status$ = 12						; size = 4
_TerminateKernelThread PROC				; COMDAT

; 468  : {

  00000	55		 push	 ebp
  00001	8b ec		 mov	 ebp, esp

; 469  : 	SYSCALL_PARAM_2(SYSCALL_TERMINATEKERNELTHREAD,

  00003	ff 75 0c	 push	 DWORD PTR _status$[ebp]
  00006	ff 75 08	 push	 DWORD PTR _hThread$[ebp]
  00009	6a 00		 push	 0
  0000b	6a 3d		 push	 61			; 0000003dH
  0000d	cd 7f		 int	 127			; 0000007fH
  0000f	58		 pop	 eax
  00010	58		 pop	 eax
  00011	8f 45 08	 pop	 DWORD PTR _hThread$[ebp]
  00014	8f 45 0c	 pop	 DWORD PTR _status$[ebp]

; 470  : 		hThread,
; 471  : 		status);
; 472  : }

  00017	5d		 pop	 ebp
  00018	c3		 ret	 0
_TerminateKernelThread ENDP
_TEXT	ENDS
; Function compile flags: /Odtp
; File c:\hellox\personal\hellox_os\app\yeelight\hxlib\hellox\hellox.c
;	COMDAT _SetThreadPriority
_TEXT	SEGMENT
_hThread$ = 8						; size = 4
_dwPriority$ = 12					; size = 4
_SetThreadPriority PROC					; COMDAT

; 57   : {

  00000	55		 push	 ebp
  00001	8b ec		 mov	 ebp, esp

; 58   : 	SYSCALL_PARAM_2(SYSCALL_SETTHREADPRIORITY, hThread, dwPriority);

  00003	ff 75 0c	 push	 DWORD PTR _dwPriority$[ebp]
  00006	ff 75 08	 push	 DWORD PTR _hThread$[ebp]
  00009	6a 00		 push	 0
  0000b	6a 06		 push	 6
  0000d	cd 7f		 int	 127			; 0000007fH
  0000f	58		 pop	 eax
  00010	58		 pop	 eax
  00011	8f 45 08	 pop	 DWORD PTR _hThread$[ebp]
  00014	8f 45 0c	 pop	 DWORD PTR _dwPriority$[ebp]

; 59   : }

  00017	5d		 pop	 ebp
  00018	c3		 ret	 0
_SetThreadPriority ENDP
_TEXT	ENDS
; Function compile flags: /Odtp
; File c:\hellox\personal\hellox_os\app\yeelight\hxlib\hellox\hellox.c
;	COMDAT _GetThreadID
_TEXT	SEGMENT
_hThread$ = 8						; size = 4
_GetThreadID PROC					; COMDAT

; 52   : {

  00000	55		 push	 ebp
  00001	8b ec		 mov	 ebp, esp

; 53   : 	SYSCALL_PARAM_1(SYSCALL_GETTHREADID, hThread);

  00003	ff 75 08	 push	 DWORD PTR _hThread$[ebp]
  00006	6a 00		 push	 0
  00008	6a 05		 push	 5
  0000a	cd 7f		 int	 127			; 0000007fH
  0000c	58		 pop	 eax
  0000d	58		 pop	 eax
  0000e	8f 45 08	 pop	 DWORD PTR _hThread$[ebp]

; 54   : }

  00011	5d		 pop	 ebp
  00012	c3		 ret	 0
_GetThreadID ENDP
_TEXT	ENDS
; Function compile flags: /Odtp
; File c:\hellox\personal\hellox_os\app\yeelight\hxlib\hellox\hellox.c
;	COMDAT _GetLastError
_TEXT	SEGMENT
_GetLastError PROC					; COMDAT

; 47   : {

  00000	55		 push	 ebp
  00001	8b ec		 mov	 ebp, esp

; 48   : 	SYSCALL_PARAM_0(SYSCALL_GETLASTERROR);

  00003	6a 00		 push	 0
  00005	6a 04		 push	 4
  00007	cd 7f		 int	 127			; 0000007fH
  00009	58		 pop	 eax
  0000a	58		 pop	 eax

; 49   : }

  0000b	5d		 pop	 ebp
  0000c	c3		 ret	 0
_GetLastError ENDP
_TEXT	ENDS
; Function compile flags: /Odtp
; File c:\hellox\personal\hellox_os\app\yeelight\hxlib\hellox\hellox.c
;	COMDAT _SetLastError
_TEXT	SEGMENT
_dwNewError$ = 8					; size = 4
_SetLastError PROC					; COMDAT

; 42   : {

  00000	55		 push	 ebp
  00001	8b ec		 mov	 ebp, esp

; 43   : 	SYSCALL_PARAM_1(SYSCALL_SETLASTERROR, dwNewError);

  00003	ff 75 08	 push	 DWORD PTR _dwNewError$[ebp]
  00006	6a 00		 push	 0
  00008	6a 03		 push	 3
  0000a	cd 7f		 int	 127			; 0000007fH
  0000c	58		 pop	 eax
  0000d	58		 pop	 eax
  0000e	8f 45 08	 pop	 DWORD PTR _dwNewError$[ebp]

; 44   : }

  00011	5d		 pop	 ebp
  00012	c3		 ret	 0
_SetLastError ENDP
_TEXT	ENDS
; Function compile flags: /Odtp
; File c:\hellox\personal\hellox_os\app\yeelight\hxlib\hellox\hellox.c
;	COMDAT _DestroyKernelThread
_TEXT	SEGMENT
_hThread$ = 8						; size = 4
_DestroyKernelThread PROC				; COMDAT

; 37   : {

  00000	55		 push	 ebp
  00001	8b ec		 mov	 ebp, esp

; 38   : 	SYSCALL_PARAM_1(SYSCALL_DESTROYKERNELTHREAD, hThread);

  00003	ff 75 08	 push	 DWORD PTR _hThread$[ebp]
  00006	6a 00		 push	 0
  00008	6a 02		 push	 2
  0000a	cd 7f		 int	 127			; 0000007fH
  0000c	58		 pop	 eax
  0000d	58		 pop	 eax
  0000e	8f 45 08	 pop	 DWORD PTR _hThread$[ebp]

; 39   : }

  00011	5d		 pop	 ebp
  00012	c3		 ret	 0
_DestroyKernelThread ENDP
_TEXT	ENDS
; Function compile flags: /Odtp
; File c:\hellox\personal\hellox_os\app\yeelight\hxlib\hellox\hellox.c
;	COMDAT _CreateKernelThread
_TEXT	SEGMENT
_dwStackSize$ = 8					; size = 4
_dwInitStatus$ = 12					; size = 4
_dwPriority$ = 16					; size = 4
_lpStartRoutine$ = 20					; size = 4
_lpRoutineParam$ = 24					; size = 4
_lpReserved$ = 28					; size = 4
_lpszName$ = 32						; size = 4
_CreateKernelThread PROC				; COMDAT

; 29   : {

  00000	55		 push	 ebp
  00001	8b ec		 mov	 ebp, esp

; 30   : 	SYSCALL_PARAM_7(SYSCALL_CREATEKERNELTHREAD,

  00003	ff 75 20	 push	 DWORD PTR _lpszName$[ebp]
  00006	ff 75 1c	 push	 DWORD PTR _lpReserved$[ebp]
  00009	ff 75 18	 push	 DWORD PTR _lpRoutineParam$[ebp]
  0000c	ff 75 14	 push	 DWORD PTR _lpStartRoutine$[ebp]
  0000f	ff 75 10	 push	 DWORD PTR _dwPriority$[ebp]
  00012	ff 75 0c	 push	 DWORD PTR _dwInitStatus$[ebp]
  00015	ff 75 08	 push	 DWORD PTR _dwStackSize$[ebp]
  00018	6a 00		 push	 0
  0001a	6a 01		 push	 1
  0001c	cd 7f		 int	 127			; 0000007fH
  0001e	58		 pop	 eax
  0001f	58		 pop	 eax
  00020	8f 45 08	 pop	 DWORD PTR _dwStackSize$[ebp]
  00023	8f 45 0c	 pop	 DWORD PTR _dwInitStatus$[ebp]
  00026	8f 45 10	 pop	 DWORD PTR _dwPriority$[ebp]
  00029	8f 45 14	 pop	 DWORD PTR _lpStartRoutine$[ebp]
  0002c	8f 45 18	 pop	 DWORD PTR _lpRoutineParam$[ebp]
  0002f	8f 45 1c	 pop	 DWORD PTR _lpReserved$[ebp]
  00032	8f 45 20	 pop	 DWORD PTR _lpszName$[ebp]

; 31   : 		dwStackSize, dwInitStatus,
; 32   : 		dwPriority, lpStartRoutine, lpRoutineParam,
; 33   : 		lpReserved, lpszName);
; 34   : }

  00035	5d		 pop	 ebp
  00036	c3		 ret	 0
_CreateKernelThread ENDP
_TEXT	ENDS
END
