; Listing generated by Microsoft (R) Optimizing Compiler Version 19.13.26128.0 

	TITLE	C:\HelloX\personal\HelloX_OS\app\yeelight\hxlib\socket\sockets.c
	.686P
	.XMM
	include listing.inc
	.model	flat

INCLUDELIB MSVCRT
INCLUDELIB OLDNAMES

PUBLIC	_accept
PUBLIC	_bind
PUBLIC	_getsockopt
PUBLIC	_setsockopt
PUBLIC	_close
PUBLIC	_connect
PUBLIC	_listen
PUBLIC	_recv
PUBLIC	_read
PUBLIC	_recvfrom
PUBLIC	_send
PUBLIC	_sendto
PUBLIC	_socket
PUBLIC	_write
PUBLIC	_select
PUBLIC	_ioctl
PUBLIC	_fcntl
; Function compile flags: /Odtp
; File c:\hellox\personal\hellox_os\app\yeelight\hxlib\socket\sockets.c
;	COMDAT _fcntl
_TEXT	SEGMENT
_s$ = 8							; size = 4
_cmd$ = 12						; size = 4
_val$ = 16						; size = 4
_fcntl	PROC						; COMDAT

; 102  : {

  00000	55		 push	 ebp
  00001	8b ec		 mov	 ebp, esp

; 103  : 	return 0;

  00003	33 c0		 xor	 eax, eax

; 104  : 	//SYSCALL_PARAM_3(SYSCALL_FCN,s,cmd,val);
; 105  : }

  00005	5d		 pop	 ebp
  00006	c3		 ret	 0
_fcntl	ENDP
_TEXT	ENDS
; Function compile flags: /Odtp
; File c:\hellox\personal\hellox_os\app\yeelight\hxlib\socket\sockets.c
;	COMDAT _ioctl
_TEXT	SEGMENT
_s$ = 8							; size = 4
_cmd$ = 12						; size = 4
_argp$ = 16						; size = 4
_ioctl	PROC						; COMDAT

; 97   : {

  00000	55		 push	 ebp
  00001	8b ec		 mov	 ebp, esp

; 98   : 	SYSCALL_PARAM_3(SYSCALL_IOCONTROL, s, cmd, argp);

  00003	ff 75 10	 push	 DWORD PTR _argp$[ebp]
  00006	ff 75 0c	 push	 DWORD PTR _cmd$[ebp]
  00009	ff 75 08	 push	 DWORD PTR _s$[ebp]
  0000c	6a 00		 push	 0
  0000e	6a 26		 push	 38			; 00000026H
  00010	cd 7f		 int	 127			; 0000007fH
  00012	58		 pop	 eax
  00013	58		 pop	 eax
  00014	8f 45 08	 pop	 DWORD PTR _s$[ebp]
  00017	8f 45 0c	 pop	 DWORD PTR _cmd$[ebp]
  0001a	8f 45 10	 pop	 DWORD PTR _argp$[ebp]

; 99   : }

  0001d	5d		 pop	 ebp
  0001e	c3		 ret	 0
_ioctl	ENDP
_TEXT	ENDS
; Function compile flags: /Odtp
; File c:\hellox\personal\hellox_os\app\yeelight\hxlib\socket\sockets.c
;	COMDAT _select
_TEXT	SEGMENT
_maxfdp1$ = 8						; size = 4
_readset$ = 12						; size = 4
_writeset$ = 16						; size = 4
_exceptset$ = 20					; size = 4
_timeout$ = 24						; size = 4
_select	PROC						; COMDAT

; 92   : {

  00000	55		 push	 ebp
  00001	8b ec		 mov	 ebp, esp

; 93   : 	SYSCALL_PARAM_5(SYSCALL_SELECT, maxfdp1, readset, writeset, exceptset, timeout);

  00003	ff 75 18	 push	 DWORD PTR _timeout$[ebp]
  00006	ff 75 14	 push	 DWORD PTR _exceptset$[ebp]
  00009	ff 75 10	 push	 DWORD PTR _writeset$[ebp]
  0000c	ff 75 0c	 push	 DWORD PTR _readset$[ebp]
  0000f	ff 75 08	 push	 DWORD PTR _maxfdp1$[ebp]
  00012	6a 00		 push	 0
  00014	68 06 02 00 00	 push	 518			; 00000206H
  00019	cd 7f		 int	 127			; 0000007fH
  0001b	58		 pop	 eax
  0001c	58		 pop	 eax
  0001d	8f 45 08	 pop	 DWORD PTR _maxfdp1$[ebp]
  00020	8f 45 0c	 pop	 DWORD PTR _readset$[ebp]
  00023	8f 45 10	 pop	 DWORD PTR _writeset$[ebp]
  00026	8f 45 14	 pop	 DWORD PTR _exceptset$[ebp]
  00029	8f 45 18	 pop	 DWORD PTR _timeout$[ebp]

; 94   : }

  0002c	5d		 pop	 ebp
  0002d	c3		 ret	 0
_select	ENDP
_TEXT	ENDS
; Function compile flags: /Odtp
; File c:\hellox\personal\hellox_os\app\yeelight\hxlib\socket\sockets.c
;	COMDAT _write
_TEXT	SEGMENT
_flags$ = -4						; size = 4
_s$ = 8							; size = 4
_dataptr$ = 12						; size = 4
_datasize$ = 16						; size = 4
_write	PROC						; COMDAT

; 86   : {

  00000	55		 push	 ebp
  00001	8b ec		 mov	 ebp, esp
  00003	51		 push	 ecx

; 87   : 	int flags = 0x01;

  00004	c7 45 fc 01 00
	00 00		 mov	 DWORD PTR _flags$[ebp], 1

; 88   : 	SYSCALL_PARAM_4(SYSCALL_SEND,s,dataptr,datasize,flags);

  0000b	ff 75 fc	 push	 DWORD PTR _flags$[ebp]
  0000e	ff 75 10	 push	 DWORD PTR _datasize$[ebp]
  00011	ff 75 0c	 push	 DWORD PTR _dataptr$[ebp]
  00014	ff 75 08	 push	 DWORD PTR _s$[ebp]
  00017	6a 00		 push	 0
  00019	68 04 02 00 00	 push	 516			; 00000204H
  0001e	cd 7f		 int	 127			; 0000007fH
  00020	58		 pop	 eax
  00021	58		 pop	 eax
  00022	8f 45 08	 pop	 DWORD PTR _s$[ebp]
  00025	8f 45 0c	 pop	 DWORD PTR _dataptr$[ebp]
  00028	8f 45 10	 pop	 DWORD PTR _datasize$[ebp]
  0002b	8f 45 fc	 pop	 DWORD PTR _flags$[ebp]

; 89   : }

  0002e	8b e5		 mov	 esp, ebp
  00030	5d		 pop	 ebp
  00031	c3		 ret	 0
_write	ENDP
_TEXT	ENDS
; Function compile flags: /Odtp
; File c:\hellox\personal\hellox_os\app\yeelight\hxlib\socket\sockets.c
;	COMDAT _socket
_TEXT	SEGMENT
_domain$ = 8						; size = 4
_ntype$ = 12						; size = 4
_protocol$ = 16						; size = 4
_socket	PROC						; COMDAT

; 81   : {

  00000	55		 push	 ebp
  00001	8b ec		 mov	 ebp, esp

; 82   : 	SYSCALL_PARAM_3(SYSCALL_SOCKET, domain, ntype, protocol);

  00003	ff 75 10	 push	 DWORD PTR _protocol$[ebp]
  00006	ff 75 0c	 push	 DWORD PTR _ntype$[ebp]
  00009	ff 75 08	 push	 DWORD PTR _domain$[ebp]
  0000c	6a 00		 push	 0
  0000e	68 00 02 00 00	 push	 512			; 00000200H
  00013	cd 7f		 int	 127			; 0000007fH
  00015	58		 pop	 eax
  00016	58		 pop	 eax
  00017	8f 45 08	 pop	 DWORD PTR _domain$[ebp]
  0001a	8f 45 0c	 pop	 DWORD PTR _ntype$[ebp]
  0001d	8f 45 10	 pop	 DWORD PTR _protocol$[ebp]

; 83   : }

  00020	5d		 pop	 ebp
  00021	c3		 ret	 0
_socket	ENDP
_TEXT	ENDS
; Function compile flags: /Odtp
; File c:\hellox\personal\hellox_os\app\yeelight\hxlib\socket\sockets.c
;	COMDAT _sendto
_TEXT	SEGMENT
_s$ = 8							; size = 4
_dataptr$ = 12						; size = 4
_datasize$ = 16						; size = 4
_flags$ = 20						; size = 4
_to$ = 24						; size = 4
_tolen$ = 28						; size = 4
_sendto	PROC						; COMDAT

; 76   : {

  00000	55		 push	 ebp
  00001	8b ec		 mov	 ebp, esp

; 77   : 	SYSCALL_PARAM_6(SYSCALL_SENDTO, s, dataptr, datasize, flags, to, tolen);

  00003	ff 75 1c	 push	 DWORD PTR _tolen$[ebp]
  00006	ff 75 18	 push	 DWORD PTR _to$[ebp]
  00009	ff 75 14	 push	 DWORD PTR _flags$[ebp]
  0000c	ff 75 10	 push	 DWORD PTR _datasize$[ebp]
  0000f	ff 75 0c	 push	 DWORD PTR _dataptr$[ebp]
  00012	ff 75 08	 push	 DWORD PTR _s$[ebp]
  00015	6a 00		 push	 0
  00017	68 0e 02 00 00	 push	 526			; 0000020eH
  0001c	cd 7f		 int	 127			; 0000007fH
  0001e	58		 pop	 eax
  0001f	58		 pop	 eax
  00020	8f 45 08	 pop	 DWORD PTR _s$[ebp]
  00023	8f 45 0c	 pop	 DWORD PTR _dataptr$[ebp]
  00026	8f 45 10	 pop	 DWORD PTR _datasize$[ebp]
  00029	8f 45 14	 pop	 DWORD PTR _flags$[ebp]
  0002c	8f 45 18	 pop	 DWORD PTR _to$[ebp]
  0002f	8f 45 1c	 pop	 DWORD PTR _tolen$[ebp]

; 78   : }

  00032	5d		 pop	 ebp
  00033	c3		 ret	 0
_sendto	ENDP
_TEXT	ENDS
; Function compile flags: /Odtp
; File c:\hellox\personal\hellox_os\app\yeelight\hxlib\socket\sockets.c
;	COMDAT _send
_TEXT	SEGMENT
_s$ = 8							; size = 4
_dataptr$ = 12						; size = 4
_datasize$ = 16						; size = 4
_flags$ = 20						; size = 4
_send	PROC						; COMDAT

; 71   : {

  00000	55		 push	 ebp
  00001	8b ec		 mov	 ebp, esp

; 72   : 	SYSCALL_PARAM_4(SYSCALL_SEND, s, dataptr, datasize, flags);

  00003	ff 75 14	 push	 DWORD PTR _flags$[ebp]
  00006	ff 75 10	 push	 DWORD PTR _datasize$[ebp]
  00009	ff 75 0c	 push	 DWORD PTR _dataptr$[ebp]
  0000c	ff 75 08	 push	 DWORD PTR _s$[ebp]
  0000f	6a 00		 push	 0
  00011	68 04 02 00 00	 push	 516			; 00000204H
  00016	cd 7f		 int	 127			; 0000007fH
  00018	58		 pop	 eax
  00019	58		 pop	 eax
  0001a	8f 45 08	 pop	 DWORD PTR _s$[ebp]
  0001d	8f 45 0c	 pop	 DWORD PTR _dataptr$[ebp]
  00020	8f 45 10	 pop	 DWORD PTR _datasize$[ebp]
  00023	8f 45 14	 pop	 DWORD PTR _flags$[ebp]

; 73   : }

  00026	5d		 pop	 ebp
  00027	c3		 ret	 0
_send	ENDP
_TEXT	ENDS
; Function compile flags: /Odtp
; File c:\hellox\personal\hellox_os\app\yeelight\hxlib\socket\sockets.c
;	COMDAT _recvfrom
_TEXT	SEGMENT
_s$ = 8							; size = 4
_mem$ = 12						; size = 4
_len$ = 16						; size = 4
_flags$ = 20						; size = 4
_from$ = 24						; size = 4
_fromlen$ = 28						; size = 4
_recvfrom PROC						; COMDAT

; 66   : {

  00000	55		 push	 ebp
  00001	8b ec		 mov	 ebp, esp

; 67   : 	SYSCALL_PARAM_6(SYSCALL_RECVFROM, s, mem, len, flags, from, fromlen);

  00003	ff 75 1c	 push	 DWORD PTR _fromlen$[ebp]
  00006	ff 75 18	 push	 DWORD PTR _from$[ebp]
  00009	ff 75 14	 push	 DWORD PTR _flags$[ebp]
  0000c	ff 75 10	 push	 DWORD PTR _len$[ebp]
  0000f	ff 75 0c	 push	 DWORD PTR _mem$[ebp]
  00012	ff 75 08	 push	 DWORD PTR _s$[ebp]
  00015	6a 00		 push	 0
  00017	68 0d 02 00 00	 push	 525			; 0000020dH
  0001c	cd 7f		 int	 127			; 0000007fH
  0001e	58		 pop	 eax
  0001f	58		 pop	 eax
  00020	8f 45 08	 pop	 DWORD PTR _s$[ebp]
  00023	8f 45 0c	 pop	 DWORD PTR _mem$[ebp]
  00026	8f 45 10	 pop	 DWORD PTR _len$[ebp]
  00029	8f 45 14	 pop	 DWORD PTR _flags$[ebp]
  0002c	8f 45 18	 pop	 DWORD PTR _from$[ebp]
  0002f	8f 45 1c	 pop	 DWORD PTR _fromlen$[ebp]

; 68   : }

  00032	5d		 pop	 ebp
  00033	c3		 ret	 0
_recvfrom ENDP
_TEXT	ENDS
; Function compile flags: /Odtp
; File c:\hellox\personal\hellox_os\app\yeelight\hxlib\socket\sockets.c
;	COMDAT _read
_TEXT	SEGMENT
_flags$ = -4						; size = 4
_s$ = 8							; size = 4
_mem$ = 12						; size = 4
_len$ = 16						; size = 4
_read	PROC						; COMDAT

; 60   : {

  00000	55		 push	 ebp
  00001	8b ec		 mov	 ebp, esp
  00003	51		 push	 ecx

; 61   : 	int flags = 0;

  00004	c7 45 fc 00 00
	00 00		 mov	 DWORD PTR _flags$[ebp], 0

; 62   : 	SYSCALL_PARAM_4(SYSCALL_RECV, s, mem, len, flags);

  0000b	ff 75 fc	 push	 DWORD PTR _flags$[ebp]
  0000e	ff 75 10	 push	 DWORD PTR _len$[ebp]
  00011	ff 75 0c	 push	 DWORD PTR _mem$[ebp]
  00014	ff 75 08	 push	 DWORD PTR _s$[ebp]
  00017	6a 00		 push	 0
  00019	68 03 02 00 00	 push	 515			; 00000203H
  0001e	cd 7f		 int	 127			; 0000007fH
  00020	58		 pop	 eax
  00021	58		 pop	 eax
  00022	8f 45 08	 pop	 DWORD PTR _s$[ebp]
  00025	8f 45 0c	 pop	 DWORD PTR _mem$[ebp]
  00028	8f 45 10	 pop	 DWORD PTR _len$[ebp]
  0002b	8f 45 fc	 pop	 DWORD PTR _flags$[ebp]

; 63   : }

  0002e	8b e5		 mov	 esp, ebp
  00030	5d		 pop	 ebp
  00031	c3		 ret	 0
_read	ENDP
_TEXT	ENDS
; Function compile flags: /Odtp
; File c:\hellox\personal\hellox_os\app\yeelight\hxlib\socket\sockets.c
;	COMDAT _recv
_TEXT	SEGMENT
_s$ = 8							; size = 4
_mem$ = 12						; size = 4
_len$ = 16						; size = 4
_flags$ = 20						; size = 4
_recv	PROC						; COMDAT

; 55   : {

  00000	55		 push	 ebp
  00001	8b ec		 mov	 ebp, esp

; 56   : 	SYSCALL_PARAM_4(SYSCALL_RECV, s, mem, len, flags);

  00003	ff 75 14	 push	 DWORD PTR _flags$[ebp]
  00006	ff 75 10	 push	 DWORD PTR _len$[ebp]
  00009	ff 75 0c	 push	 DWORD PTR _mem$[ebp]
  0000c	ff 75 08	 push	 DWORD PTR _s$[ebp]
  0000f	6a 00		 push	 0
  00011	68 03 02 00 00	 push	 515			; 00000203H
  00016	cd 7f		 int	 127			; 0000007fH
  00018	58		 pop	 eax
  00019	58		 pop	 eax
  0001a	8f 45 08	 pop	 DWORD PTR _s$[ebp]
  0001d	8f 45 0c	 pop	 DWORD PTR _mem$[ebp]
  00020	8f 45 10	 pop	 DWORD PTR _len$[ebp]
  00023	8f 45 14	 pop	 DWORD PTR _flags$[ebp]

; 57   : }

  00026	5d		 pop	 ebp
  00027	c3		 ret	 0
_recv	ENDP
_TEXT	ENDS
; Function compile flags: /Odtp
; File c:\hellox\personal\hellox_os\app\yeelight\hxlib\socket\sockets.c
;	COMDAT _listen
_TEXT	SEGMENT
_s$ = 8							; size = 4
_backlog$ = 12						; size = 4
_listen	PROC						; COMDAT

; 50   : {

  00000	55		 push	 ebp
  00001	8b ec		 mov	 ebp, esp

; 51   : 	SYSCALL_PARAM_2(SYSCALL_LISTEN, s, backlog);

  00003	ff 75 0c	 push	 DWORD PTR _backlog$[ebp]
  00006	ff 75 08	 push	 DWORD PTR _s$[ebp]
  00009	6a 00		 push	 0
  0000b	68 0c 02 00 00	 push	 524			; 0000020cH
  00010	cd 7f		 int	 127			; 0000007fH
  00012	58		 pop	 eax
  00013	58		 pop	 eax
  00014	8f 45 08	 pop	 DWORD PTR _s$[ebp]
  00017	8f 45 0c	 pop	 DWORD PTR _backlog$[ebp]

; 52   : }

  0001a	5d		 pop	 ebp
  0001b	c3		 ret	 0
_listen	ENDP
_TEXT	ENDS
; Function compile flags: /Odtp
; File c:\hellox\personal\hellox_os\app\yeelight\hxlib\socket\sockets.c
;	COMDAT _connect
_TEXT	SEGMENT
_s$ = 8							; size = 4
_name$ = 12						; size = 4
_namelen$ = 16						; size = 4
_connect PROC						; COMDAT

; 45   : {

  00000	55		 push	 ebp
  00001	8b ec		 mov	 ebp, esp

; 46   : 	SYSCALL_PARAM_3(SYSCALL_CONNECT, s, name, namelen);

  00003	ff 75 10	 push	 DWORD PTR _namelen$[ebp]
  00006	ff 75 0c	 push	 DWORD PTR _name$[ebp]
  00009	ff 75 08	 push	 DWORD PTR _s$[ebp]
  0000c	6a 00		 push	 0
  0000e	68 02 02 00 00	 push	 514			; 00000202H
  00013	cd 7f		 int	 127			; 0000007fH
  00015	58		 pop	 eax
  00016	58		 pop	 eax
  00017	8f 45 08	 pop	 DWORD PTR _s$[ebp]
  0001a	8f 45 0c	 pop	 DWORD PTR _name$[ebp]
  0001d	8f 45 10	 pop	 DWORD PTR _namelen$[ebp]

; 47   : }

  00020	5d		 pop	 ebp
  00021	c3		 ret	 0
_connect ENDP
_TEXT	ENDS
; Function compile flags: /Odtp
; File c:\hellox\personal\hellox_os\app\yeelight\hxlib\socket\sockets.c
;	COMDAT _close
_TEXT	SEGMENT
_s$ = 8							; size = 4
_close	PROC						; COMDAT

; 40   : {

  00000	55		 push	 ebp
  00001	8b ec		 mov	 ebp, esp

; 41   : 	SYSCALL_PARAM_1(SYSCALL_CLOSESOCKET, s);

  00003	ff 75 08	 push	 DWORD PTR _s$[ebp]
  00006	6a 00		 push	 0
  00008	68 0b 02 00 00	 push	 523			; 0000020bH
  0000d	cd 7f		 int	 127			; 0000007fH
  0000f	58		 pop	 eax
  00010	58		 pop	 eax
  00011	8f 45 08	 pop	 DWORD PTR _s$[ebp]

; 42   : }

  00014	5d		 pop	 ebp
  00015	c3		 ret	 0
_close	ENDP
_TEXT	ENDS
; Function compile flags: /Odtp
; File c:\hellox\personal\hellox_os\app\yeelight\hxlib\socket\sockets.c
;	COMDAT _setsockopt
_TEXT	SEGMENT
_s$ = 8							; size = 4
_level$ = 12						; size = 4
_optname$ = 16						; size = 4
_optval$ = 20						; size = 4
_optlen$ = 24						; size = 4
_setsockopt PROC					; COMDAT

; 35   : {

  00000	55		 push	 ebp
  00001	8b ec		 mov	 ebp, esp

; 36   : 	SYSCALL_PARAM_5(SYSCALL_SETSOCKET, s, level, optname, optval, optlen);

  00003	ff 75 18	 push	 DWORD PTR _optlen$[ebp]
  00006	ff 75 14	 push	 DWORD PTR _optval$[ebp]
  00009	ff 75 10	 push	 DWORD PTR _optname$[ebp]
  0000c	ff 75 0c	 push	 DWORD PTR _level$[ebp]
  0000f	ff 75 08	 push	 DWORD PTR _s$[ebp]
  00012	6a 00		 push	 0
  00014	68 08 02 00 00	 push	 520			; 00000208H
  00019	cd 7f		 int	 127			; 0000007fH
  0001b	58		 pop	 eax
  0001c	58		 pop	 eax
  0001d	8f 45 08	 pop	 DWORD PTR _s$[ebp]
  00020	8f 45 0c	 pop	 DWORD PTR _level$[ebp]
  00023	8f 45 10	 pop	 DWORD PTR _optname$[ebp]
  00026	8f 45 14	 pop	 DWORD PTR _optval$[ebp]
  00029	8f 45 18	 pop	 DWORD PTR _optlen$[ebp]

; 37   : }

  0002c	5d		 pop	 ebp
  0002d	c3		 ret	 0
_setsockopt ENDP
_TEXT	ENDS
; Function compile flags: /Odtp
; File c:\hellox\personal\hellox_os\app\yeelight\hxlib\socket\sockets.c
;	COMDAT _getsockopt
_TEXT	SEGMENT
_s$ = 8							; size = 4
_level$ = 12						; size = 4
_optname$ = 16						; size = 4
_optval$ = 20						; size = 4
_optlen$ = 24						; size = 4
_getsockopt PROC					; COMDAT

; 30   : {

  00000	55		 push	 ebp
  00001	8b ec		 mov	 ebp, esp

; 31   : 	SYSCALL_PARAM_5(SYSCALL_GETSOCKET, s, level, optname, optval, optlen);

  00003	ff 75 18	 push	 DWORD PTR _optlen$[ebp]
  00006	ff 75 14	 push	 DWORD PTR _optval$[ebp]
  00009	ff 75 10	 push	 DWORD PTR _optname$[ebp]
  0000c	ff 75 0c	 push	 DWORD PTR _level$[ebp]
  0000f	ff 75 08	 push	 DWORD PTR _s$[ebp]
  00012	6a 00		 push	 0
  00014	68 07 02 00 00	 push	 519			; 00000207H
  00019	cd 7f		 int	 127			; 0000007fH
  0001b	58		 pop	 eax
  0001c	58		 pop	 eax
  0001d	8f 45 08	 pop	 DWORD PTR _s$[ebp]
  00020	8f 45 0c	 pop	 DWORD PTR _level$[ebp]
  00023	8f 45 10	 pop	 DWORD PTR _optname$[ebp]
  00026	8f 45 14	 pop	 DWORD PTR _optval$[ebp]
  00029	8f 45 18	 pop	 DWORD PTR _optlen$[ebp]

; 32   : }

  0002c	5d		 pop	 ebp
  0002d	c3		 ret	 0
_getsockopt ENDP
_TEXT	ENDS
; Function compile flags: /Odtp
; File c:\hellox\personal\hellox_os\app\yeelight\hxlib\socket\sockets.c
;	COMDAT _bind
_TEXT	SEGMENT
_s$ = 8							; size = 4
_name$ = 12						; size = 4
_namelen$ = 16						; size = 4
_bind	PROC						; COMDAT

; 25   : {

  00000	55		 push	 ebp
  00001	8b ec		 mov	 ebp, esp

; 26   : 	SYSCALL_PARAM_3(SYSCALL_BIND, s, name, namelen);

  00003	ff 75 10	 push	 DWORD PTR _namelen$[ebp]
  00006	ff 75 0c	 push	 DWORD PTR _name$[ebp]
  00009	ff 75 08	 push	 DWORD PTR _s$[ebp]
  0000c	6a 00		 push	 0
  0000e	68 01 02 00 00	 push	 513			; 00000201H
  00013	cd 7f		 int	 127			; 0000007fH
  00015	58		 pop	 eax
  00016	58		 pop	 eax
  00017	8f 45 08	 pop	 DWORD PTR _s$[ebp]
  0001a	8f 45 0c	 pop	 DWORD PTR _name$[ebp]
  0001d	8f 45 10	 pop	 DWORD PTR _namelen$[ebp]

; 27   : }

  00020	5d		 pop	 ebp
  00021	c3		 ret	 0
_bind	ENDP
_TEXT	ENDS
; Function compile flags: /Odtp
; File c:\hellox\personal\hellox_os\app\yeelight\hxlib\socket\sockets.c
;	COMDAT _accept
_TEXT	SEGMENT
_s$ = 8							; size = 4
_addr$ = 12						; size = 4
_addrlen$ = 16						; size = 4
_accept	PROC						; COMDAT

; 20   : {

  00000	55		 push	 ebp
  00001	8b ec		 mov	 ebp, esp

; 21   : 	SYSCALL_PARAM_3(SYSCALL_ACCEPT, s, addr, addrlen);

  00003	ff 75 10	 push	 DWORD PTR _addrlen$[ebp]
  00006	ff 75 0c	 push	 DWORD PTR _addr$[ebp]
  00009	ff 75 08	 push	 DWORD PTR _s$[ebp]
  0000c	6a 00		 push	 0
  0000e	68 0a 02 00 00	 push	 522			; 0000020aH
  00013	cd 7f		 int	 127			; 0000007fH
  00015	58		 pop	 eax
  00016	58		 pop	 eax
  00017	8f 45 08	 pop	 DWORD PTR _s$[ebp]
  0001a	8f 45 0c	 pop	 DWORD PTR _addr$[ebp]
  0001d	8f 45 10	 pop	 DWORD PTR _addrlen$[ebp]

; 22   : }

  00020	5d		 pop	 ebp
  00021	c3		 ret	 0
_accept	ENDP
_TEXT	ENDS
END
