; Listing generated by Microsoft (R) Optimizing Compiler Version 19.13.26128.0 

	TITLE	C:\HelloX\personal\HelloX_OS\app\yeelight\hxlib\stat.c
	.686P
	.XMM
	include listing.inc
	.model	flat

INCLUDELIB MSVCRT
INCLUDELIB OLDNAMES

PUBLIC	_fstat
PUBLIC	_stat
PUBLIC	_getcwd
; Function compile flags: /Odtp
; File c:\hellox\personal\hellox_os\app\yeelight\hxlib\stat.c
;	COMDAT _getcwd
_TEXT	SEGMENT
_buff$ = 8						; size = 4
_len$ = 12						; size = 4
_getcwd	PROC						; COMDAT

; 18   : {

  00000	55		 push	 ebp
  00001	8b ec		 mov	 ebp, esp

; 19   : 	return NULL;

  00003	33 c0		 xor	 eax, eax

; 20   : }

  00005	5d		 pop	 ebp
  00006	c3		 ret	 0
_getcwd	ENDP
_TEXT	ENDS
; Function compile flags: /Odtp
; File c:\hellox\personal\hellox_os\app\yeelight\hxlib\stat.c
;	COMDAT _stat
_TEXT	SEGMENT
_name$ = 8						; size = 4
__stat$ = 12						; size = 4
_stat	PROC						; COMDAT

; 13   : {

  00000	55		 push	 ebp
  00001	8b ec		 mov	 ebp, esp

; 14   : 	return 0;

  00003	33 c0		 xor	 eax, eax

; 15   : }

  00005	5d		 pop	 ebp
  00006	c3		 ret	 0
_stat	ENDP
_TEXT	ENDS
; Function compile flags: /Odtp
; File c:\hellox\personal\hellox_os\app\yeelight\hxlib\stat.c
;	COMDAT _fstat
_TEXT	SEGMENT
_mode$ = 8						; size = 4
__stat$ = 12						; size = 4
_fstat	PROC						; COMDAT

; 8    : {

  00000	55		 push	 ebp
  00001	8b ec		 mov	 ebp, esp

; 9    : 	return 0;

  00003	33 c0		 xor	 eax, eax

; 10   : }

  00005	5d		 pop	 ebp
  00006	c3		 ret	 0
_fstat	ENDP
_TEXT	ENDS
END
