 JerryEngine

 Timestamp is 58b149d4 (Sat Feb 25 17:09:40 2017)

 Preferred load address is 00400000

 Start         Length     Name                   Class
 0001:00000000 000379e4H .text$mn                CODE
 0002:00000000 00000008H .idata$5                DATA
 0002:00000010 00011c69H .rdata                  DATA
 0002:00011c79 00000000H .edata                  DATA
 0002:00011c7c 00000070H .rdata$debug            DATA
 0002:00011cec 00000014H .idata$2                DATA
 0002:00011d00 00000014H .idata$3                DATA
 0002:00011d14 00000008H .idata$4                DATA
 0002:00011d1c 0000002aH .idata$6                DATA
 0003:00000000 00000094H .data                   DATA
 0003:000000a0 00080940H .bss                    DATA
 0004:00000000 00000004H .CRT$XIC                DATA
 0005:00000000 00000058H .rsrc$01                DATA
 0005:00000060 00000180H .rsrc$02                DATA

  Address         Publics by Value              Rva+Base       Lib:Object

 0000:00000000       ___guard_flags             00000000     <absolute>
 0000:00000000       __except_list              00000000     <absolute>
 0000:00000000       ___safe_se_handler_table   00000000     <absolute>
 0000:00000000       ___safe_se_handler_count   00000000     <absolute>
 0000:00000000       ___guard_fids_table        00000000     <absolute>
 0000:00000000       ___guard_fids_count        00000000     <absolute>
 0000:00009876       __fltused                  00009876     <absolute>
 0000:00009876       __ldused                   00009876     <absolute>
 0001:00000000       _ecma_alloc_collection_chunk 00400300 f   ecma-alloc.obj
 0001:00000024       _ecma_alloc_collection_header 00400324 f   ecma-alloc.obj
 0001:00000048       _ecma_alloc_extended_object 00400348 f   ecma-alloc.obj
 0001:00000051       _ecma_alloc_number         00400351 f   ecma-alloc.obj
 0001:00000075       _ecma_alloc_object         00400375 f   ecma-alloc.obj
 0001:00000099       _ecma_alloc_property_pair  00400399 f   ecma-alloc.obj
 0001:000000a2       _ecma_alloc_string         004003a2 f   ecma-alloc.obj
 0001:000000c6       _ecma_dealloc_property_pair 004003c6 f   ecma-alloc.obj
 0001:000000d7       _ecma_dealloc_object       004003d7 f   ecma-alloc.obj
 0001:000000d7       _ecma_dealloc_number       004003d7 f   ecma-alloc.obj
 0001:000000d7       _ecma_dealloc_string       004003d7 f   ecma-alloc.obj
 0001:000000d7       _ecma_dealloc_collection_header 004003d7 f   ecma-alloc.obj
 0001:000000d7       _ecma_dealloc_collection_chunk 004003d7 f   ecma-alloc.obj
 0001:000000e8       _ecma_deref_object         004003e8 f   ecma-gc.obj
 0001:00000118       _ecma_free_unused_memory   00400418 f   ecma-gc.obj
 0001:0000044c       _ecma_gc_run               0040074c f   ecma-gc.obj
 0001:000009fd       _ecma_init_gc_info         00400cfd f   ecma-gc.obj
 0001:00000a7a       _ecma_ref_object           00400d7a f   ecma-gc.obj
 0001:00000a9d       _ecma_number_to_decimal    00400d9d f   ecma-helpers-conversion.obj
 0001:00000b64       _ecma_number_to_int32      00400e64 f   ecma-helpers-conversion.obj
 0001:00000bf9       _ecma_number_to_uint32     00400ef9 f   ecma-helpers-conversion.obj
 0001:00000d6b       _ecma_number_to_utf8_string 0040106b f   ecma-helpers-conversion.obj
 0001:00001064       _ecma_uint32_to_utf8_string 00401364 f   ecma-helpers-conversion.obj
 0001:000010cc       _ecma_utf8_string_to_number 004013cc f   ecma-helpers-conversion.obj
 0001:00002487       _ecma_errol0_dtoa          00402787 f   ecma-helpers-errol.obj
 0001:00002800       _ecma_free_external_pointer_in_property 00402b00 f   ecma-helpers-external-pointers.obj
 0001:0000282f       _ecma_get_external_pointer_value 00402b2f f   ecma-helpers-external-pointers.obj
 0001:0000287c       _ecma_number_add           00402b7c f   ecma-helpers-number.obj
 0001:00002887       _ecma_number_calc_remainder 00402b87 f   ecma-helpers-number.obj
 0001:000029a4       _ecma_number_divide        00402ca4 f   ecma-helpers-number.obj
 0001:000029af       _ecma_number_get_fraction_and_exponent 00402caf f   ecma-helpers-number.obj
 0001:00002aef       _ecma_number_get_next      00402def f   ecma-helpers-number.obj
 0001:00002bf6       _ecma_number_get_prev      00402ef6 f   ecma-helpers-number.obj
 0001:00002cd0       _ecma_number_is_infinity   00402fd0 f   ecma-helpers-number.obj
 0001:00002d39       _ecma_number_is_nan        00403039 f   ecma-helpers-number.obj
 0001:00002da2       _ecma_number_is_negative   004030a2 f   ecma-helpers-number.obj
 0001:00002df5       _ecma_number_is_zero       004030f5 f   ecma-helpers-number.obj
 0001:00002e8b       _ecma_number_make_from_sign_mantissa_and_exponent 0040318b f   ecma-helpers-number.obj
 0001:00002fa9       _ecma_number_make_infinity 004032a9 f   ecma-helpers-number.obj
 0001:00002fc2       _ecma_number_make_nan      004032c2 f   ecma-helpers-number.obj
 0001:00002fd6       _ecma_number_make_normal_positive_from_fraction_and_exponent 004032d6 f   ecma-helpers-number.obj
 0001:00003068       _ecma_number_multiply      00403368 f   ecma-helpers-number.obj
 0001:00003073       _ecma_number_negate        00403373 f   ecma-helpers-number.obj
 0001:0000317f       _ecma_number_substract     0040347f f   ecma-helpers-number.obj
 0001:00003196       _ecma_number_trunc         00403496 f   ecma-helpers-number.obj
 0001:000032a5       _ecma_compare_ecma_strings 004035a5 f   ecma-helpers-string.obj
 0001:000033ad       _ecma_compare_ecma_strings_relational 004036ad f   ecma-helpers-string.obj
 0001:000034fb       _ecma_concat_ecma_strings  004037fb f   ecma-helpers-string.obj
 0001:000038c8       _ecma_deref_ecma_string    00403bc8 f   ecma-helpers-string.obj
 0001:000039dc       _ecma_get_magic_string     00403cdc f   ecma-helpers-string.obj
 0001:000039e5       _ecma_get_string_magic     00403ce5 f   ecma-helpers-string.obj
 0001:00003a01       _ecma_init_ecma_string_from_uint32 00403d01 f   ecma-helpers-string.obj
 0001:00003a19       _ecma_new_ecma_length_string 00403d19 f   ecma-helpers-string.obj
 0001:00003a2f       _ecma_new_ecma_string_from_code_unit 00403d2f f   ecma-helpers-string.obj
 0001:00003a50       _ecma_new_ecma_string_from_magic_string_ex_id 00403d50 f   ecma-helpers-string.obj
 0001:00003a95       _ecma_new_ecma_string_from_magic_string_id 00403d95 f   ecma-helpers-string.obj
 0001:00003ad3       _ecma_new_ecma_string_from_number 00403dd3 f   ecma-helpers-string.obj
 0001:00003c3d       _ecma_new_ecma_string_from_uint32 00403f3d f   ecma-helpers-string.obj
 0001:00003c57       _ecma_new_ecma_string_from_utf8 00403f57 f   ecma-helpers-string.obj
 0001:00003dab       _ecma_ref_ecma_string      004040ab f   ecma-helpers-string.obj
 0001:00003e06       _ecma_string_compare_to_property_name 00404106 f   ecma-helpers-string.obj
 0001:00003e71       _ecma_string_copy_to_cesu8_buffer 00404171 f   ecma-helpers-string.obj
 0001:00003fb4       _ecma_string_from_property_name 004042b4 f   ecma-helpers-string.obj
 0001:00004034       _ecma_string_get_array_index 00404334 f   ecma-helpers-string.obj
 0001:00004049       _ecma_string_get_char_at_pos 00404349 f   ecma-helpers-string.obj
 0001:00004158       _ecma_string_get_length    00404458 f   ecma-helpers-string.obj
 0001:00004235       _ecma_string_get_property_index 00404535 f   ecma-helpers-string.obj
 0001:0000426d       _ecma_string_get_property_name_hash 0040456d f   ecma-helpers-string.obj
 0001:000042a3       _ecma_string_get_size      004045a3 f   ecma-helpers-string.obj
 0001:0000430c       _ecma_string_hash          0040460c f   ecma-helpers-string.obj
 0001:00004318       _ecma_string_is_empty      00404618 f   ecma-helpers-string.obj
 0001:00004332       _ecma_string_is_length     00404632 f   ecma-helpers-string.obj
 0001:0000434f       _ecma_string_raw_chars     0040464f f   ecma-helpers-string.obj
 0001:00004474       _ecma_string_substr        00404774 f   ecma-helpers-string.obj
 0001:000046ac       _ecma_string_to_number     004049ac f   ecma-helpers-string.obj
 0001:00004798       _ecma_string_to_property_name 00404a98 f   ecma-helpers-string.obj
 0001:000047d8       _ecma_string_to_utf8_bytes 00404ad8 f   ecma-helpers-string.obj
 0001:0000480d       _ecma_string_trim          00404b0d f   ecma-helpers-string.obj
 0001:00004931       _ecma_are_values_integer_numbers 00404c31 f   ecma-helpers-value.obj
 0001:00004944       _ecma_check_value_type_is_spec_defined 00404c44 f   ecma-helpers-value.obj
 0001:00004999       _ecma_copy_value           00404c99 f   ecma-helpers-value.obj
 0001:000049fc       _ecma_copy_value_if_not_object 00404cfc f   ecma-helpers-value.obj
 0001:00004a2d       _ecma_fast_copy_value      00404d2d f   ecma-helpers-value.obj
 0001:00004a40       _ecma_fast_free_value      00404d40 f   ecma-helpers-value.obj
 0001:00004a51       _ecma_free_value           00404d51 f   ecma-helpers-value.obj
 0001:00004a8e       _ecma_free_value_if_not_object 00404d8e f   ecma-helpers-value.obj
 0001:00004aa3       _ecma_get_float_from_value 00404da3 f   ecma-helpers-value.obj
 0001:00004ad2       _ecma_get_integer_from_value 00404dd2 f   ecma-helpers-value.obj
 0001:00004afb       _ecma_get_number_from_value 00404dfb f   ecma-helpers-value.obj
 0001:00004b26       _ecma_get_object_from_value 00404e26 f   ecma-helpers-value.obj
 0001:00004b56       _ecma_get_string_from_value 00404e56 f   ecma-helpers-value.obj
 0001:00004b85       _ecma_get_value_from_error_value 00404e85 f   ecma-helpers-value.obj
 0001:00004bc8       _ecma_invert_boolean_value 00404ec8 f   ecma-helpers-value.obj
 0001:00004c11       _ecma_is_value_array_hole  00404f11 f   ecma-helpers-value.obj
 0001:00004c24       _ecma_is_value_boolean     00404f24 f   ecma-helpers-value.obj
 0001:00004c37       _ecma_is_value_direct      00404f37 f   ecma-helpers-value.obj
 0001:00004c46       _ecma_is_value_empty       00404f46 f   ecma-helpers-value.obj
 0001:00004c59       _ecma_is_value_false       00404f59 f   ecma-helpers-value.obj
 0001:00004c6c       _ecma_is_value_float_number 00404f6c f   ecma-helpers-value.obj
 0001:00004c7f       _ecma_is_value_found       00404f7f f   ecma-helpers-value.obj
 0001:00004c8d       _ecma_is_value_integer_number 00404f8d f   ecma-helpers-value.obj
 0001:00004c9c       _ecma_is_value_null        00404f9c f   ecma-helpers-value.obj
 0001:00004caf       _ecma_is_value_number      00404faf f   ecma-helpers-value.obj
 0001:00004cc8       _ecma_is_value_object      00404fc8 f   ecma-helpers-value.obj
 0001:00004cdb       _ecma_is_value_simple      00404fdb f   ecma-helpers-value.obj
 0001:00004cee       _ecma_is_value_string      00404fee f   ecma-helpers-value.obj
 0001:00004d01       _ecma_is_value_true        00405001 f   ecma-helpers-value.obj
 0001:00004d14       _ecma_is_value_undefined   00405014 f   ecma-helpers-value.obj
 0001:00004d27       _ecma_make_boolean_value   00405027 f   ecma-helpers-value.obj
 0001:00004d3d       _ecma_make_error_obj_value 0040503d f   ecma-helpers-value.obj
 0001:00004d52       _ecma_make_error_value     00405052 f   ecma-helpers-value.obj
 0001:00004d7b       _ecma_make_int32_value     0040507b f   ecma-helpers-value.obj
 0001:00004db0       _ecma_make_integer_value   004050b0 f   ecma-helpers-value.obj
 0001:00004de3       _ecma_make_nan_value       004050e3 f   ecma-helpers-value.obj
 0001:00004df5       _ecma_make_number_value    004050f5 f   ecma-helpers-value.obj
 0001:00004e5e       _ecma_make_object_value    0040515e f   ecma-helpers-value.obj
 0001:00004e8f       _ecma_make_simple_value    0040518f f   ecma-helpers-value.obj
 0001:00004e9d       _ecma_make_string_value    0040519d f   ecma-helpers-value.obj
 0001:00004ece       _ecma_make_uint32_value    004051ce f   ecma-helpers-value.obj
 0001:00004f2e       _ecma_update_float_number  0040522e f   ecma-helpers-value.obj
 0001:00005004       _ecma_value_assign_number  00405304 f   ecma-helpers-value.obj
 0001:0000508f       _ecma_value_assign_value   0040538f f   ecma-helpers-value.obj
 0001:000050e7       _ecma_append_to_values_collection 004053e7 f   ecma-helpers-values-collection.obj
 0001:000051c2       _ecma_collection_iterator_init 004054c2 f   ecma-helpers-values-collection.obj
 0001:000051ea       _ecma_collection_iterator_next 004054ea f   ecma-helpers-values-collection.obj
 0001:000052e2       _ecma_free_values_collection 004055e2 f   ecma-helpers-values-collection.obj
 0001:000053be       _ecma_new_strings_collection 004056be f   ecma-helpers-values-collection.obj
 0001:00005424       _ecma_new_values_collection 00405724 f   ecma-helpers-values-collection.obj
 0001:00005518       _ecma_remove_last_value_from_values_collection 00405818 f   ecma-helpers-values-collection.obj
 0001:000056bf       _ecma_bytecode_deref       004059bf f   ecma-helpers.obj
 0001:00005764       _ecma_bytecode_ref         00405a64 f   ecma-helpers.obj
 0001:00005787       _ecma_create_decl_lex_env  00405a87 f   ecma-helpers.obj
 0001:000057bc       _ecma_create_named_accessor_property 00405abc f   ecma-helpers.obj
 0001:00005885       _ecma_create_named_data_property 00405b85 f   ecma-helpers.obj
 0001:00005917       _ecma_create_object        00405c17 f   ecma-helpers.obj
 0001:00005960       _ecma_create_object_lex_env 00405c60 f   ecma-helpers.obj
 0001:00005b8a       _ecma_delete_array_properties 00405e8a f   ecma-helpers.obj
 0001:00005de5       _ecma_delete_property      004060e5 f   ecma-helpers.obj
 0001:00005f39       _ecma_find_internal_property 00406239 f   ecma-helpers.obj
 0001:00005fc0       _ecma_find_named_property  004062c0 f   ecma-helpers.obj
 0001:00006189       _ecma_free_property        00406489 f   ecma-helpers.obj
 0001:0000625f       _ecma_free_property_descriptor 0040655f f   ecma-helpers.obj
 0001:000062b6       _ecma_get_lex_env_binding_object 004065b6 f   ecma-helpers.obj
 0001:00006338       _ecma_get_lex_env_outer_reference 00406638 f   ecma-helpers.obj
 0001:00006395       _ecma_get_lex_env_provide_this 00406695 f   ecma-helpers.obj
 0001:0000641b       _ecma_get_lex_env_type     0040671b f   ecma-helpers.obj
 0001:0000646a       _ecma_get_named_accessor_property_getter 0040676a f   ecma-helpers.obj
 0001:00006485       _ecma_get_named_accessor_property_setter 00406785 f   ecma-helpers.obj
 0001:000064a1       _ecma_get_named_data_property 004067a1 f   ecma-helpers.obj
 0001:00006519       _ecma_get_object_extensible 00406819 f   ecma-helpers.obj
 0001:0000656b       _ecma_get_object_is_builtin 0040686b f   ecma-helpers.obj
 0001:000065bd       _ecma_get_object_prototype 004068bd f   ecma-helpers.obj
 0001:0000661a       _ecma_get_object_type      0040691a f   ecma-helpers.obj
 0001:00006669       _ecma_get_property_list    00406969 f   ecma-helpers.obj
 0001:000066d2       _ecma_is_lexical_environment 004069d2 f   ecma-helpers.obj
 0001:00006701       _ecma_is_property_configurable 00406a01 f   ecma-helpers.obj
 0001:0000673c       _ecma_is_property_enumerable 00406a3c f   ecma-helpers.obj
 0001:00006777       _ecma_is_property_lcached  00406a77 f   ecma-helpers.obj
 0001:000067b0       _ecma_is_property_writable 00406ab0 f   ecma-helpers.obj
 0001:000067e7       _ecma_make_empty_property_descriptor 00406ae7 f   ecma-helpers.obj
 0001:0000680f       _ecma_named_data_property_assign_value 00406b0f f   ecma-helpers.obj
 0001:0000682f       _ecma_set_named_accessor_property_getter 00406b2f f   ecma-helpers.obj
 0001:0000685d       _ecma_set_named_accessor_property_setter 00406b5d f   ecma-helpers.obj
 0001:0000688c       _ecma_set_object_extensible 00406b8c f   ecma-helpers.obj
 0001:000068e9       _ecma_set_object_is_builtin 00406be9 f   ecma-helpers.obj
 0001:00006951       _ecma_set_property_configurable_attr 00406c51 f   ecma-helpers.obj
 0001:00006992       _ecma_set_property_enumerable_attr 00406c92 f   ecma-helpers.obj
 0001:000069d3       _ecma_set_property_lcached 00406cd3 f   ecma-helpers.obj
 0001:00006a14       _ecma_set_property_writable_attr 00406d14 f   ecma-helpers.obj
 0001:00006a50       _ecma_finalize             00406d50 f   ecma-init-finalize.obj
 0001:00006a72       _ecma_init                 00406d72 f   ecma-init-finalize.obj
 0001:00006a96       _ecma_lcache_init          00406d96 f   ecma-lcache.obj
 0001:00006aab       _ecma_lcache_insert        00406dab f   ecma-lcache.obj
 0001:00006ba5       _ecma_lcache_invalidate    00406ea5 f   ecma-lcache.obj
 0001:00006d03       _ecma_lcache_lookup        00407003 f   ecma-lcache.obj
 0001:00006e06       _ecma_finalize_lit_storage 00407106 f   ecma-literal-storage.obj
 0001:00006e1f       _ecma_find_or_create_literal_number 0040711f f   ecma-literal-storage.obj
 0001:00006f81       _ecma_find_or_create_literal_string 00407281 f   ecma-literal-storage.obj
 0001:000070d7       _ecma_property_hashmap_create 004073d7 f   ecma-property-hashmap.obj
 0001:00007387       _ecma_property_hashmap_delete 00407687 f   ecma-property-hashmap.obj
 0001:000074f0       _ecma_property_hashmap_find 004077f0 f   ecma-property-hashmap.obj
 0001:000076e7       _ecma_property_hashmap_free 004079e7 f   ecma-property-hashmap.obj
 0001:0000773c       _ecma_property_hashmap_insert 00407a3c f   ecma-property-hashmap.obj
 0001:0000786f       _ecma_builtin_array_prototype_dispatch_routine 00407b6f f   ecma-builtin-array-prototype.obj
 0001:0000c711       _ecma_builtin_array_dispatch_call 0040ca11 f   ecma-builtin-array.obj
 0001:0000c73d       _ecma_builtin_array_dispatch_construct 0040ca3d f   ecma-builtin-array.obj
 0001:0000c775       _ecma_builtin_array_dispatch_routine 0040ca75 f   ecma-builtin-array.obj
 0001:0000c823       _ecma_builtin_arraybuffer_prototype_dispatch_routine 0040cb23 f   ecma-builtin-arraybuffer-prototype.obj
 0001:0000cada       _ecma_builtin_arraybuffer_dispatch_call 0040cdda f   ecma-builtin-arraybuffer.obj
 0001:0000cb0a       _ecma_builtin_arraybuffer_dispatch_construct 0040ce0a f   ecma-builtin-arraybuffer.obj
 0001:0000cb36       _ecma_builtin_arraybuffer_dispatch_routine 0040ce36 f   ecma-builtin-arraybuffer.obj
 0001:0000cb6d       _ecma_builtin_boolean_prototype_dispatch_routine 0040ce6d f   ecma-builtin-boolean-prototype.obj
 0001:0000cca5       _ecma_builtin_boolean_dispatch_call 0040cfa5 f   ecma-builtin-boolean.obj
 0001:0000ccf1       _ecma_builtin_boolean_dispatch_construct 0040cff1 f   ecma-builtin-boolean.obj
 0001:0000cd32       _ecma_builtin_boolean_dispatch_routine 0040d032 f   ecma-builtin-boolean.obj
 0001:0000ce8d       _ecma_builtin_date_prototype_dispatch_routine 0040d18d f   ecma-builtin-date-prototype.obj
 0001:0000d64f       _ecma_builtin_date_dispatch_call 0040d94f f   ecma-builtin-date.obj
 0001:0000d6c2       _ecma_builtin_date_dispatch_construct 0040d9c2 f   ecma-builtin-date.obj
 0001:0000d925       _ecma_builtin_date_dispatch_routine 0040dc25 f   ecma-builtin-date.obj
 0001:0000e256       _ecma_builtin_error_prototype_dispatch_routine 0040e556 f   ecma-builtin-error-prototype.obj
 0001:0000e591       _ecma_builtin_error_dispatch_call 0040e891 f   ecma-builtin-error.obj
 0001:0000e5a6       _ecma_builtin_error_dispatch_construct 0040e8a6 f   ecma-builtin-error.obj
 0001:0000e5af       _ecma_builtin_error_dispatch_routine 0040e8af f   ecma-builtin-error.obj
 0001:0000e5c4       _ecma_builtin_eval_error_prototype_dispatch_routine 0040e8c4 f   ecma-builtin-evalerror-prototype.obj
 0001:0000e5d9       _ecma_builtin_eval_error_dispatch_call 0040e8d9 f   ecma-builtin-evalerror.obj
 0001:0000e5ee       _ecma_builtin_eval_error_dispatch_construct 0040e8ee f   ecma-builtin-evalerror.obj
 0001:0000e5f7       _ecma_builtin_eval_error_dispatch_routine 0040e8f7 f   ecma-builtin-evalerror.obj
 0001:0000e60c       _ecma_builtin_function_prototype_dispatch_call 0040e90c f   ecma-builtin-function-prototype.obj
 0001:0000e63f       _ecma_builtin_function_prototype_dispatch_construct 0040e93f f   ecma-builtin-function-prototype.obj
 0001:0000e672       _ecma_builtin_function_prototype_dispatch_routine 0040e972 f   ecma-builtin-function-prototype.obj
 0001:0000ecd4       _ecma_builtin_function_dispatch_call 0040efd4 f   ecma-builtin-function.obj
 0001:0000ed00       _ecma_builtin_function_dispatch_construct 0040f000 f   ecma-builtin-function.obj
 0001:0000ed90       _ecma_builtin_function_dispatch_routine 0040f090 f   ecma-builtin-function.obj
 0001:0000f00d       _ecma_builtin_global_dispatch_routine 0040f30d f   ecma-builtin-global.obj
 0001:000108d1       _ecma_date_date_from_time  00410bd1 f   ecma-builtin-helpers-date.obj
 0001:00010a35       _ecma_date_day             00410d35 f   ecma-builtin-helpers-date.obj
 0001:00010a62       _ecma_date_day_from_year   00410d62 f   ecma-builtin-helpers-date.obj
 0001:00010ae5       _ecma_date_day_within_year 00410de5 f   ecma-builtin-helpers-date.obj
 0001:00010b29       _ecma_date_daylight_saving_ta 00410e29 f   ecma-builtin-helpers-date.obj
 0001:00010b6f       _ecma_date_days_in_year    00410e6f f   ecma-builtin-helpers-date.obj
 0001:00010c24       _ecma_date_hour_from_time  00410f24 f   ecma-builtin-helpers-date.obj
 0001:00010c7b       _ecma_date_in_leap_year    00410f7b f   ecma-builtin-helpers-date.obj
 0001:00010cb0       _ecma_date_local_time      00410fb0 f   ecma-builtin-helpers-date.obj
 0001:00010cea       _ecma_date_local_tza       00410fea f   ecma-builtin-helpers-date.obj
 0001:00010d18       _ecma_date_make_date       00411018 f   ecma-builtin-helpers-date.obj
 0001:00010d7b       _ecma_date_make_day        0041107b f   ecma-builtin-helpers-date.obj
 0001:00010f28       _ecma_date_make_time       00411228 f   ecma-builtin-helpers-date.obj
 0001:00011043       _ecma_date_min_from_time   00411343 f   ecma-builtin-helpers-date.obj
 0001:0001109a       _ecma_date_month_from_time 0041139a f   ecma-builtin-helpers-date.obj
 0001:00011264       _ecma_date_ms_from_time    00411564 f   ecma-builtin-helpers-date.obj
 0001:000112ad       _ecma_date_sec_from_time   004115ad f   ecma-builtin-helpers-date.obj
 0001:00011304       _ecma_date_time_clip       00411604 f   ecma-builtin-helpers-date.obj
 0001:00011360       _ecma_date_time_from_year  00411660 f   ecma-builtin-helpers-date.obj
 0001:0001138d       _ecma_date_time_within_day 0041168d f   ecma-builtin-helpers-date.obj
 0001:000113c5       _ecma_date_timezone_offset 004116c5 f   ecma-builtin-helpers-date.obj
 0001:000113fb       _ecma_date_utc             004116fb f   ecma-builtin-helpers-date.obj
 0001:00011511       _ecma_date_value_to_date_string 00411811 f   ecma-builtin-helpers-date.obj
 0001:00011607       _ecma_date_value_to_iso_string 00411907 f   ecma-builtin-helpers-date.obj
 0001:0001179e       _ecma_date_value_to_string 00411a9e f   ecma-builtin-helpers-date.obj
 0001:0001198c       _ecma_date_value_to_time_string 00411c8c f   ecma-builtin-helpers-date.obj
 0001:00011aa2       _ecma_date_value_to_utc_string 00411da2 f   ecma-builtin-helpers-date.obj
 0001:00011bf3       _ecma_date_week_day        00411ef3 f   ecma-builtin-helpers-date.obj
 0001:00011c4a       _ecma_date_year_from_time  00411f4a f   ecma-builtin-helpers-date.obj
 0001:00011cfd       _ecma_builtin_helper_error_dispatch_call 00411ffd f   ecma-builtin-helpers-error.obj
 0001:00011dab       _ecma_builtin_helper_json_create_formatted_json 004120ab f   ecma-builtin-helpers-json.obj
 0001:00011e7d       _ecma_builtin_helper_json_create_hex_digit_ecma_string 0041217d f   ecma-builtin-helpers-json.obj
 0001:00011f2f       _ecma_builtin_helper_json_create_non_formatted_json 0041222f f   ecma-builtin-helpers-json.obj
 0001:00011f7f       _ecma_builtin_helper_json_create_separated_properties 0041227f f   ecma-builtin-helpers-json.obj
 0001:00012013       _ecma_has_object_value_in_collection 00412313 f   ecma-builtin-helpers-json.obj
 0001:00012089       _ecma_has_string_value_in_collection 00412389 f   ecma-builtin-helpers-json.obj
 0001:00012108       _ecma_builtin_helper_array_concat_value 00412408 f   ecma-builtin-helpers.obj
 0001:00012390       _ecma_builtin_helper_array_index_normalize 00412690 f   ecma-builtin-helpers.obj
 0001:00012477       _ecma_builtin_helper_def_prop 00412777 f   ecma-builtin-helpers.obj
 0001:000124e7       _ecma_builtin_helper_get_to_locale_string_at_index 004127e7 f   ecma-builtin-helpers.obj
 0001:0001268b       _ecma_builtin_helper_object_get_properties 0041298b f   ecma-builtin-helpers.obj
 0001:00012784       _ecma_builtin_helper_object_to_string 00412a84 f   ecma-builtin-helpers.obj
 0001:000128a4       _ecma_builtin_helper_string_find_index 00412ba4 f   ecma-builtin-helpers.obj
 0001:00012abf       _ecma_builtin_helper_string_index_normalize 00412dbf f   ecma-builtin-helpers.obj
 0001:00012b23       _ecma_builtin_helper_string_prototype_object_index_of 00412e23 f   ecma-builtin-helpers.obj
 0001:000130e9       _ecma_builtin_json_dispatch_routine 004133e9 f   ecma-builtin-json.obj
 0001:00014bb4       _ecma_builtin_math_dispatch_routine 00414eb4 f   ecma-builtin-math.obj
 0001:0001508b       _ecma_builtin_number_prototype_dispatch_routine 0041538b f   ecma-builtin-number-prototype.obj
 0001:0001634c       _ecma_builtin_number_dispatch_call 0041664c f   ecma-builtin-number.obj
 0001:00016396       _ecma_builtin_number_dispatch_construct 00416696 f   ecma-builtin-number.obj
 0001:000163d7       _ecma_builtin_number_dispatch_routine 004166d7 f   ecma-builtin-number.obj
 0001:000163ec       _ecma_builtin_object_prototype_dispatch_routine 004166ec f   ecma-builtin-object-prototype.obj
 0001:000167c1       _ecma_builtin_object_dispatch_call 00416ac1 f   ecma-builtin-object.obj
 0001:00016825       _ecma_builtin_object_dispatch_construct 00416b25 f   ecma-builtin-object.obj
 0001:00016863       _ecma_builtin_object_dispatch_routine 00416b63 f   ecma-builtin-object.obj
 0001:00017541       _ecma_builtin_range_error_prototype_dispatch_routine 00417841 f   ecma-builtin-rangeerror-prototype.obj
 0001:00017556       _ecma_builtin_range_error_dispatch_call 00417856 f   ecma-builtin-rangeerror.obj
 0001:0001756b       _ecma_builtin_range_error_dispatch_construct 0041786b f   ecma-builtin-rangeerror.obj
 0001:00017574       _ecma_builtin_range_error_dispatch_routine 00417874 f   ecma-builtin-rangeerror.obj
 0001:00017589       _ecma_builtin_reference_error_prototype_dispatch_routine 00417889 f   ecma-builtin-referenceerror-prototype.obj
 0001:0001759e       _ecma_builtin_reference_error_dispatch_call 0041789e f   ecma-builtin-referenceerror.obj
 0001:000175b3       _ecma_builtin_reference_error_dispatch_construct 004178b3 f   ecma-builtin-referenceerror.obj
 0001:000175bc       _ecma_builtin_reference_error_dispatch_routine 004178bc f   ecma-builtin-referenceerror.obj
 0001:000179f4       _ecma_builtin_regexp_prototype_dispatch_routine 00417cf4 f   ecma-builtin-regexp-prototype.obj
 0001:00017ea3       _ecma_builtin_regexp_dispatch_call 004181a3 f   ecma-builtin-regexp.obj
 0001:00017eac       _ecma_builtin_regexp_dispatch_construct 004181ac f   ecma-builtin-regexp.obj
 0001:00018047       _ecma_builtin_regexp_dispatch_routine 00418347 f   ecma-builtin-regexp.obj
 0001:000182df       _ecma_builtin_string_prototype_dispatch_routine 004185df f   ecma-builtin-string-prototype.obj
 0001:0001b5e6       _ecma_builtin_string_dispatch_call 0041b8e6 f   ecma-builtin-string.obj
 0001:0001b637       _ecma_builtin_string_dispatch_construct 0041b937 f   ecma-builtin-string.obj
 0001:0001b666       _ecma_builtin_string_dispatch_routine 0041b966 f   ecma-builtin-string.obj
 0001:0001b892       _ecma_builtin_syntax_error_prototype_dispatch_routine 0041bb92 f   ecma-builtin-syntaxerror-prototype.obj
 0001:0001b8a7       _ecma_builtin_syntax_error_dispatch_call 0041bba7 f   ecma-builtin-syntaxerror.obj
 0001:0001b8bc       _ecma_builtin_syntax_error_dispatch_construct 0041bbbc f   ecma-builtin-syntaxerror.obj
 0001:0001b8c5       _ecma_builtin_syntax_error_dispatch_routine 0041bbc5 f   ecma-builtin-syntaxerror.obj
 0001:0001b8da       _ecma_builtin_type_error_thrower_dispatch_call 0041bbda f   ecma-builtin-type-error-thrower.obj
 0001:0001b90a       _ecma_builtin_type_error_thrower_dispatch_construct 0041bc0a f   ecma-builtin-type-error-thrower.obj
 0001:0001b93a       _ecma_builtin_type_error_thrower_dispatch_routine 0041bc3a f   ecma-builtin-type-error-thrower.obj
 0001:0001b94f       _ecma_builtin_type_error_prototype_dispatch_routine 0041bc4f f   ecma-builtin-typeerror-prototype.obj
 0001:0001b964       _ecma_builtin_type_error_dispatch_call 0041bc64 f   ecma-builtin-typeerror.obj
 0001:0001b979       _ecma_builtin_type_error_dispatch_construct 0041bc79 f   ecma-builtin-typeerror.obj
 0001:0001b982       _ecma_builtin_type_error_dispatch_routine 0041bc82 f   ecma-builtin-typeerror.obj
 0001:0001b997       _ecma_builtin_uri_error_prototype_dispatch_routine 0041bc97 f   ecma-builtin-urierror-prototype.obj
 0001:0001b9ac       _ecma_builtin_uri_error_dispatch_call 0041bcac f   ecma-builtin-urierror.obj
 0001:0001b9c1       _ecma_builtin_uri_error_dispatch_construct 0041bcc1 f   ecma-builtin-urierror.obj
 0001:0001b9ca       _ecma_builtin_uri_error_dispatch_routine 0041bcca f   ecma-builtin-urierror.obj
 0001:0001b9df       _ecma_builtin_dispatch_call 0041bcdf f   ecma-builtins.obj
 0001:0001bc40       _ecma_builtin_dispatch_construct 0041bf40 f   ecma-builtins.obj
 0001:0001c241       _ecma_builtin_function_is_routine 0041c541 f   ecma-builtins.obj
 0001:0001c29a       _ecma_builtin_get          0041c59a f   ecma-builtins.obj
 0001:0001c501       _ecma_builtin_is           0041c801 f   ecma-builtins.obj
 0001:0001c55e       _ecma_builtin_list_lazy_property_names 0041c85e f   ecma-builtins.obj
 0001:0001c79e       _ecma_builtin_try_to_instantiate_property 0041ca9e f   ecma-builtins.obj
 0001:0001cab3       _ecma_finalize_builtins    0041cdb3 f   ecma-builtins.obj
 0001:0001d836       _ecma_op_array_list_lazy_property_names 0041db36 f   ecma-array-object.obj
 0001:0001d893       _ecma_op_array_object_define_own_property 0041db93 f   ecma-array-object.obj
 0001:0001da28       _ecma_op_array_object_set_length 0041dd28 f   ecma-array-object.obj
 0001:0001dba2       _ecma_op_create_array_object 0041dea2 f   ecma-array-object.obj
 0001:0001dcb1       _ecma_arraybuffer_get_buffer 0041dfb1 f   ecma-arraybuffer-object.obj
 0001:0001dce6       _ecma_arraybuffer_get_length 0041dfe6 f   ecma-arraybuffer-object.obj
 0001:0001dd1b       _ecma_arraybuffer_new_object 0041e01b f   ecma-arraybuffer-object.obj
 0001:0001dd57       _ecma_op_create_arraybuffer_object 0041e057 f   ecma-arraybuffer-object.obj
 0001:0001de9f       _ecma_op_create_boolean_object 0041e19f f   ecma-boolean-object.obj
 0001:0001dee8       _ecma_op_abstract_equality_compare 0041e1e8 f   ecma-comparison.obj
 0001:0001e136       _ecma_op_abstract_relational_compare 0041e436 f   ecma-comparison.obj
 0001:0001e5a6       _ecma_op_strict_equality_compare 0041e8a6 f   ecma-comparison.obj
 0001:0001e814       _ecma_op_check_object_coercible 0041eb14 f   ecma-conversion.obj
 0001:0001e84c       _ecma_op_from_property_descriptor 0041eb4c f   ecma-conversion.obj
 0001:0001eab7       _ecma_op_same_value        0041edb7 f   ecma-conversion.obj
 0001:0001ecbf       _ecma_op_to_boolean        0041efbf f   ecma-conversion.obj
 0001:0001edc3       _ecma_op_to_number         0041f0c3 f   ecma-conversion.obj
 0001:0001eee2       _ecma_op_to_object         0041f1e2 f   ecma-conversion.obj
 0001:0001ef86       _ecma_op_to_primitive      0041f286 f   ecma-conversion.obj
 0001:0001efbd       _ecma_op_to_property_descriptor 0041f2bd f   ecma-conversion.obj
 0001:0001f472       _ecma_op_to_string         0041f772 f   ecma-conversion.obj
 0001:0001f5be       _ecma_op_eval              0041f8be f   ecma-eval.obj
 0001:0001f663       _ecma_op_eval_chars_buffer 0041f963 f   ecma-eval.obj
 0001:0001f6bf       _ecma_new_standard_error   0041f9bf f   ecma-exceptions.obj
 0001:0001f726       _ecma_new_standard_error_with_message 0041fa26 f   ecma-exceptions.obj
 0001:0001f76e       _ecma_raise_common_error   0041fa6e f   ecma-exceptions.obj
 0001:0001f77f       _ecma_raise_range_error    0041fa7f f   ecma-exceptions.obj
 0001:0001f790       _ecma_raise_reference_error 0041fa90 f   ecma-exceptions.obj
 0001:0001f7a1       _ecma_raise_standard_error 0041faa1 f   ecma-exceptions.obj
 0001:0001f7e8       _ecma_raise_syntax_error   0041fae8 f   ecma-exceptions.obj
 0001:0001f7f9       _ecma_raise_type_error     0041faf9 f   ecma-exceptions.obj
 0001:0001f80a       _ecma_raise_uri_error      0041fb0a f   ecma-exceptions.obj
 0001:0001f81b       _ecma_is_constructor       0041fb1b f   ecma-function-object.obj
 0001:0001f8b4       _ecma_op_create_function_object 0041fbb4 f   ecma-function-object.obj
 0001:0001f987       _ecma_op_function_call     0041fc87 f   ecma-function-object.obj
 0001:0001fc61       _ecma_op_function_construct 0041ff61 f   ecma-function-object.obj
 0001:0001ffaf       _ecma_op_function_has_instance 004202af f   ecma-function-object.obj
 0001:00020144       _ecma_op_function_list_lazy_property_names 00420444 f   ecma-function-object.obj
 0001:0002019e       _ecma_op_function_try_lazy_instantiate_property 0042049e f   ecma-function-object.obj
 0001:00020270       _ecma_op_is_callable       00420570 f   ecma-function-object.obj
 0001:000202f5       _ecma_op_get_value_lex_env_base 004205f5 f   ecma-get-put-value.obj
 0001:00020332       _ecma_op_get_value_object_base 00420632 f   ecma-get-put-value.obj
 0001:00020485       _ecma_op_put_value_lex_env_base 00420785 f   ecma-get-put-value.obj
 0001:00020525       _ecma_finalize_global_lex_env 00420825 f   ecma-lex-env.obj
 0001:00020539       _ecma_get_global_environment 00420839 f   ecma-lex-env.obj
 0001:0002053f       _ecma_init_global_lex_env  0042083f f   ecma-lex-env.obj
 0001:00020563       _ecma_op_create_immutable_binding 00420863 f   ecma-lex-env.obj
 0001:000205d4       _ecma_op_create_mutable_binding 004208d4 f   ecma-lex-env.obj
 0001:000206d6       _ecma_op_delete_binding    004209d6 f   ecma-lex-env.obj
 0001:000207dc       _ecma_op_get_binding_value 00420adc f   ecma-lex-env.obj
 0001:000208bd       _ecma_op_has_binding       00420bbd f   ecma-lex-env.obj
 0001:00020949       _ecma_op_implicit_this_value 00420c49 f   ecma-lex-env.obj
 0001:000209e2       _ecma_op_set_mutable_binding 00420ce2 f   ecma-lex-env.obj
 0001:00020b22       _ecma_op_number_remainder  00420e22 f   ecma-number-arithmetic.obj
 0001:00020bd3       _ecma_op_create_number_object 00420ed3 f   ecma-number-object.obj
 0001:00020c1c       _ecma_op_arguments_object_define_own_property 00420f1c f   ecma-objects-arguments.obj
 0001:00020cd3       _ecma_op_arguments_object_delete 00420fd3 f   ecma-objects-arguments.obj
 0001:00020d67       _ecma_op_create_arguments_object 00421067 f   ecma-objects-arguments.obj
 0001:00021023       _ecma_op_create_object_object_arg 00421323 f   ecma-objects-general.obj
 0001:000210a1       _ecma_op_create_object_object_noarg 004213a1 f   ecma-objects-general.obj
 0001:000210c2       _ecma_op_create_object_object_noarg_and_set_prototype 004213c2 f   ecma-objects-general.obj
 0001:000210d6       _ecma_op_general_object_default_value 004213d6 f   ecma-objects-general.obj
 0001:00021208       _ecma_op_general_object_define_own_property 00421508 f   ecma-objects-general.obj
 0001:000216e5       _ecma_op_general_object_delete 004219e5 f   ecma-objects-general.obj
 0001:0002178b       _ecma_reject               00421a8b f   ecma-objects-general.obj
 0001:000217a7       _ecma_object_class_is      00421aa7 f   ecma-objects.obj
 0001:000217c8       _ecma_object_get_class_name 00421ac8 f   ecma-objects.obj
 0001:000218a6       _ecma_op_object_default_value 00421ba6 f   ecma-objects.obj
 0001:0002194d       _ecma_op_object_define_own_property 00421c4d f   ecma-objects.obj
 0001:00021a02       _ecma_op_object_delete     00421d02 f   ecma-objects.obj
 0001:00021a98       _ecma_op_object_find       00421d98 f   ecma-objects.obj
 0001:00021af0       _ecma_op_object_find_own   00421df0 f   ecma-objects.obj
 0001:00021d1b       _ecma_op_object_get        0042201b f   ecma-objects.obj
 0001:00021d73       _ecma_op_object_get_own_data_prop 00422073 f   ecma-objects.obj
 0001:00021dd4       _ecma_op_object_get_own_property 004220d4 f   ecma-objects.obj
 0001:0002202c       _ecma_op_object_get_own_property_descriptor 0042232c f   ecma-objects.obj
 0001:0002213d       _ecma_op_object_get_property 0042243d f   ecma-objects.obj
 0001:00022176       _ecma_op_object_get_property_names 00422476 f   ecma-objects.obj
 0001:00022995       _ecma_op_object_has_instance 00422c95 f   ecma-objects.obj
 0001:00022a16       _ecma_op_object_has_own_property 00422d16 f   ecma-objects.obj
 0001:00022a36       _ecma_op_object_has_property 00422d36 f   ecma-objects.obj
 0001:00022a56       _ecma_op_object_is_prototype_of 00422d56 f   ecma-objects.obj
 0001:00022a77       _ecma_op_object_put        00422d77 f   ecma-objects.obj
 0001:00022db1       _ecma_op_resolve_reference_base 004230b1 f   ecma-reference.obj
 0001:00022df6       _ecma_op_resolve_reference_value 004230f6 f   ecma-reference.obj
 0001:00022f22       _ecma_op_create_regexp_object 00423222 f   ecma-regexp-object.obj
 0001:00023055       _ecma_op_create_regexp_object_from_bytecode 00423355 f   ecma-regexp-object.obj
 0001:000230cf       _ecma_regexp_exec_helper   004233cf f   ecma-regexp-object.obj
 0001:000236eb       _re_canonicalize           004239eb f   ecma-regexp-object.obj
 0001:0002373f       _re_initialize_props       00423a3f f   ecma-regexp-object.obj
 0001:000245fa       _re_parse_regexp_flags     004248fa f   ecma-regexp-object.obj
 0001:00024787       _re_set_result_array_properties 00424a87 f   ecma-regexp-object.obj
 0001:0002482a       _ecma_op_create_string_object 00424b2a f   ecma-string-object.obj
 0001:000248cc       _ecma_op_string_list_lazy_property_names 00424bcc f   ecma-string-object.obj
 0001:00024993       __hx_jerry_entry           00424c93 f   entry.obj
 0001:00024c3e       _jerry_port_console        00424f3e f   hellox-port.obj
 0001:00024c6d       _jerry_port_fatal          00424f6d f   hellox-port.obj
 0001:00024c89       _jerry_port_get_current_time 00424f89 f   hellox-port.obj
 0001:00024cc4       _jerry_port_get_time_zone  00424fc4 f   hellox-port.obj
 0001:00024cd9       _jerry_port_log            00424fd9 f   hellox-port.obj
 0001:00024d10       _acos                      00425010 f   acos.obj
 0001:00024f0e       _asin                      0042520e f   asin.obj
 0001:000250dc       _atan                      004253dc f   atan.obj
 0001:0002524e       _atan2                     0042554e f   atan2.obj
 0001:000253fd       _ceil                      004256fd f   ceil.obj
 0001:000254f7       _copysign                  004257f7 f   copysign.obj
 0001:00025510       _exp                       00425810 f   exp.obj
 0001:000256ac       _fabs                      004259ac f   fabs.obj
 0001:000256bb       _ChangeLine                004259bb f   kapi.obj
 0001:000256c4       _GetCursorPos              004259c4 f   kapi.obj
 0001:000256dd       _GetMessage                004259dd f   kapi.obj
 0001:000256f0       _GetSystemTime             004259f0 f   kapi.obj
 0001:00025703       _GotoHome                  00425a03 f   kapi.obj
 0001:0002570c       _GotoPrev                  00425a0c f   kapi.obj
 0001:00025715       _KMemAlloc                 00425a15 f   kapi.obj
 0001:0002572e       _KMemFree                  00425a2e f   kapi.obj
 0001:0002574d       _PrintChar                 00425a4d f   kapi.obj
 0001:00025769       _SetCursorPos              00425a69 f   kapi.obj
 0001:00025786       _TerminateKernelThread     00425a86 f   kapi.obj
 0001:0002579f       ___BUG                     00425a9f f   kapi.obj
 0001:000257b7       _log                       00425ab7 f   log.obj
 0001:000257ba       _floor                     00425aba f   math.obj
 0001:000258bb       _fmod                      00425bbb f   math.obj
 0001:00025b61       _memcmp                    00425e61 f   memory.obj
 0001:00025b8e       _memcpy                    00425e8e f   memory.obj
 0001:00025bb1       _memmove                   00425eb1 f   memory.obj
 0001:00025c05       _memset                    00425f05 f   memory.obj
 0001:00025c33       _nextafter                 00425f33 f   nextafter.obj
 0001:00025d22       _pow                       00426022 f   pow.obj
 0001:00026374       _rand                      00426674 f   rand.obj
 0001:000263a4       _scalbn                    004266a4 f   scalbn.obj
 0001:00026488       _exit                      00426788 f   sched.obj
 0001:00026499       ___longjmp                 00426799 f   setjmp.obj
 0001:000264b6       ___setjmp                  004267b6 f   setjmp.obj
 0001:000264d1       _sqrt                      004267d1 f   sqrt.obj
 0001:00026675       __hx_printf                00426975 f   stdio.obj
 0001:00026725       __hx_vsprintf              00426a25 f   stdio.obj
 0001:00026da1       _strlen                    004270a1 f   string.obj
 0001:00026db6       _strncmp                   004270b6 f   string.obj
 0001:00026e2c       __hx_free                  0042712c f   sysmem.obj
 0001:00026e6a       __hx_malloc                0042716a f   sysmem.obj
 0001:00026e8b       __gmtotime_t               0042718b f   time.obj
 0001:00026eff       __time                     004271ff f   time.obj
 0001:00026f45       _gettimeofday              00427245 f   time.obj
 0001:00027a4e       _cos                       00427d4e f   trig.obj
 0001:00027b0a       _sin                       00427e0a f   trig.obj
 0001:00027bc8       _tan                       00427ec8 f   trig.obj
 0001:00027c4e       _jerry_cleanup             00427f4e f   jerry.obj
 0001:00027c65       _jerry_dispatch_external_function 00427f65 f   jerry.obj
 0001:00027c88       _jerry_dispatch_object_free_callback 00427f88 f   jerry.obj
 0001:00027ca2       _jerry_eval                00427fa2 f   jerry.obj
 0001:00027cbf       _jerry_get_boolean_value   00427fbf f   jerry.obj
 0001:00027ce1       _jerry_get_string_size     00427fe1 f   jerry.obj
 0001:00027d0a       _jerry_init                0042800a f   jerry.obj
 0001:00027d60       _jerry_release_value       00428060 f   jerry.obj
 0001:00027d6e       _jerry_string_to_char_buffer 0042806e f   jerry.obj
 0001:00027db7       _jerry_value_has_error_flag 004280b7 f   jerry.obj
 0001:00027dca       _jerry_value_is_boolean    004280ca f   jerry.obj
 0001:00027dd8       _jerry_value_is_null       004280d8 f   jerry.obj
 0001:00027de6       _jerry_value_is_number     004280e6 f   jerry.obj
 0001:00027df4       _jerry_value_is_object     004280f4 f   jerry.obj
 0001:00027e02       _jerry_value_is_string     00428102 f   jerry.obj
 0001:00027e10       _jerry_value_is_undefined  00428110 f   jerry.obj
 0001:00027e1e       _jmem_compress_pointer     0042811e f   jmem-allocator.obj
 0001:00027eb7       _jmem_decompress_pointer   004281b7 f   jmem-allocator.obj
 0001:00027f1d       _jmem_finalize             0042821d f   jmem-allocator.obj
 0001:00027f27       _jmem_init                 00428227 f   jmem-allocator.obj
 0001:00027f2c       _jmem_register_free_unused_memory_callback 0042822c f   jmem-allocator.obj
 0001:00027f5c       _jmem_run_free_unused_memory_callbacks 0042825c f   jmem-allocator.obj
 0001:00027f74       _jmem_unregister_free_unused_memory_callback 00428274 f   jmem-allocator.obj
 0001:00027fa4       _jmem_heap_alloc_block     004282a4 f   jmem-heap.obj
 0001:0002814b       _jmem_heap_alloc_block_null_on_error 0042844b f   jmem-heap.obj
 0001:0002815c       _jmem_heap_finalize        0042845c f   jmem-heap.obj
 0001:00028180       _jmem_heap_free_block      00428480 f   jmem-heap.obj
 0001:0002833d       _jmem_heap_init            0042863d f   jmem-heap.obj
 0001:00028392       _jmem_is_heap_pointer      00428692 f   jmem-heap.obj
 0001:000283b0       _jmem_pools_alloc          004286b0 f   jmem-poolman.obj
 0001:000283eb       _jmem_pools_collect_empty  004286eb f   jmem-poolman.obj
 0001:00028410       _jmem_pools_finalize       00428710 f   jmem-poolman.obj
 0001:00028436       _jmem_pools_free           00428736 f   jmem-poolman.obj
 0001:00028483       _jerry_assert_fail         00428783 f   jrt-fatals.obj
 0001:000284a9       _jerry_fatal               004287a9 f   jrt-fatals.obj
 0001:000284e4       _jerry_unreachable         004287e4 f   jrt-fatals.obj
 0001:00028507       _lit_char_get_utf8_length  00428807 f   lit-char-helpers.obj
 0001:0002854d       _lit_char_hex_to_int       0042884d f   lit-char-helpers.obj
 0001:000285a1       _lit_char_is_decimal_digit 004288a1 f   lit-char-helpers.obj
 0001:000285b6       _lit_char_is_hex_digit     004288b6 f   lit-char-helpers.obj
 0001:000285e0       _lit_char_is_identifier_part 004288e0 f   lit-char-helpers.obj
 0001:0002860b       _lit_char_is_identifier_part_character 0042890b f   lit-char-helpers.obj
 0001:00028683       _lit_char_is_identifier_start 00428983 f   lit-char-helpers.obj
 0001:000286ae       _lit_char_is_identifier_start_character 004289ae f   lit-char-helpers.obj
 0001:000286e9       _lit_char_is_line_terminator 004289e9 f   lit-char-helpers.obj
 0001:00028715       _lit_char_is_octal_digit   00428a15 f   lit-char-helpers.obj
 0001:00028768       _lit_char_is_white_space   00428a68 f   lit-char-helpers.obj
 0001:000287cf       _lit_char_is_word_char     00428acf f   lit-char-helpers.obj
 0001:00028809       _lit_char_to_lower_case    00428b09 f   lit-char-helpers.obj
 0001:00028846       _lit_char_to_upper_case    00428b46 f   lit-char-helpers.obj
 0001:00028883       _lit_char_to_utf8_bytes    00428b83 f   lit-char-helpers.obj
 0001:00028908       _lit_read_code_unit_from_hex 00428c08 f   lit-char-helpers.obj
 0001:00028a48       _lit_copy_magic_string_to_buffer 00428d48 f   lit-magic-strings.obj
 0001:00028a9f       _lit_get_magic_string_ex_count 00428d9f f   lit-magic-strings.obj
 0001:00028aa5       _lit_get_magic_string_ex_size 00428da5 f   lit-magic-strings.obj
 0001:00028ab5       _lit_get_magic_string_ex_utf8 00428db5 f   lit-magic-strings.obj
 0001:00028ae3       _lit_get_magic_string_size 00428de3 f   lit-magic-strings.obj
 0001:00028b10       _lit_get_magic_string_size_block_start 00428e10 f   lit-magic-strings.obj
 0001:00028b3b       _lit_get_magic_string_utf8 00428e3b f   lit-magic-strings.obj
 0001:00028b68       _lit_is_ex_utf8_string_magic 00428e68 f   lit-magic-strings.obj
 0001:00028bb3       _lit_is_ex_utf8_string_pair_magic 00428eb3 f   lit-magic-strings.obj
 0001:00028c22       _lit_is_utf8_string_magic  00428f22 f   lit-magic-strings.obj
 0001:00028c8c       _lit_is_utf8_string_pair_magic 00428f8c f   lit-magic-strings.obj
 0001:00028d66       _lit_code_point_to_cesu8   00429066 f   lit-strings.obj
 0001:00028dba       _lit_code_point_to_utf8    004290ba f   lit-strings.obj
 0001:00028eca       _lit_code_unit_to_utf8     004291ca f   lit-strings.obj
 0001:00028f68       _lit_compare_utf8_strings_relational 00429268 f   lit-strings.obj
 0001:00028fcb       _lit_convert_surrogate_pair_to_code_point 004292cb f   lit-strings.obj
 0001:0002903f       _lit_get_unicode_char_size_by_utf8_first_byte 0042933f f   lit-strings.obj
 0001:00029081       _lit_is_cesu8_string_valid 00429381 f   lit-strings.obj
 0001:0002912b       _lit_is_code_point_utf16_high_surrogate 0042942b f   lit-strings.obj
 0001:00029142       _lit_is_code_point_utf16_low_surrogate 00429442 f   lit-strings.obj
 0001:00029159       _lit_is_utf8_string_valid  00429459 f   lit-strings.obj
 0001:00029254       _lit_read_code_point_from_utf8 00429554 f   lit-strings.obj
 0001:00029327       _lit_read_code_unit_from_utf8 00429627 f   lit-strings.obj
 0001:000293df       _lit_read_prev_code_unit_from_utf8 004296df f   lit-strings.obj
 0001:00029412       _lit_utf8_decr             00429712 f   lit-strings.obj
 0001:00029445       _lit_utf8_incr             00429745 f   lit-strings.obj
 0001:0002947b       _lit_utf8_peek_next        0042977b f   lit-strings.obj
 0001:000294b5       _lit_utf8_peek_prev        004297b5 f   lit-strings.obj
 0001:000294ef       _lit_utf8_read_next        004297ef f   lit-strings.obj
 0001:0002952b       _lit_utf8_read_prev        0042982b f   lit-strings.obj
 0001:0002956c       _lit_utf8_string_calc_hash 0042986c f   lit-strings.obj
 0001:000295aa       _lit_utf8_string_code_unit_at 004298aa f   lit-strings.obj
 0001:000295f7       _lit_utf8_string_hash_combine 004298f7 f   lit-strings.obj
 0001:00029648       _lit_utf8_string_length    00429948 f   lit-strings.obj
 0001:0002968b       _lit_zt_utf8_string_size   0042998b f   lit-strings.obj
 0001:00029694       _util_free_literal         00429994 f   common.obj
 0001:000296cc       _lexer_compare_identifier_to_current 004299cc f   js-lexer.obj
 0001:000297fa       _lexer_construct_function_object 00429afa f   js-lexer.obj
 0001:0002986c       _lexer_construct_literal_object 00429b6c f   js-lexer.obj
 0001:00029d75       _lexer_construct_number_object 0042a075 f   js-lexer.obj
 0001:00029ecd       _lexer_construct_regexp_object 0042a1cd f   js-lexer.obj
 0001:0002a136       _lexer_expect_identifier   0042a436 f   js-lexer.obj
 0001:0002a216       _lexer_expect_object_literal_id 0042a516 f   js-lexer.obj
 0001:0002a340       _lexer_hex_to_character    0042a640 f   js-lexer.obj
 0001:0002a38d       _lexer_next_token          0042a68d f   js-lexer.obj
 0001:0002aecc       _lexer_scan_identifier     0042b1cc f   js-lexer.obj
 0001:0002ba5f       _parser_parse_expression   0042bd5f f   js-parser-expr.obj
 0001:0002cb50       _parser_cbc_stream_alloc_page 0042ce50 f   js-parser-mem.obj
 0001:0002cb7b       _parser_cbc_stream_free    0042ce7b f   js-parser-mem.obj
 0001:0002cb8c       _parser_cbc_stream_init    0042ce8c f   js-parser-mem.obj
 0001:0002cbc5       _parser_free_local         0042cec5 f   js-parser-mem.obj
 0001:0002cbc5       _parser_free               0042cec5 f   js-parser-mem.obj
 0001:0002cbc5       _ecma_dealloc_extended_object 0042cec5 f   ecma-alloc.obj
 0001:0002cbca       _parser_list_append        0042ceca f   js-parser-mem.obj
 0001:0002cc1b       _parser_list_free          0042cf1b f   js-parser-mem.obj
 0001:0002cc32       _parser_list_get           0042cf32 f   js-parser-mem.obj
 0001:0002cca7       _parser_list_init          0042cfa7 f   js-parser-mem.obj
 0001:0002ccd5       _parser_list_iterator_init 0042cfd5 f   js-parser-mem.obj
 0001:0002cceb       _parser_list_iterator_next 0042cfeb f   js-parser-mem.obj
 0001:0002cd33       _parser_list_reset         0042d033 f   js-parser-mem.obj
 0001:0002cd48       _parser_malloc             0042d048 f   js-parser-mem.obj
 0001:0002cd89       _parser_malloc_local       0042d089 f   js-parser-mem.obj
 0001:0002cdca       _parser_stack_free         0042d0ca f   js-parser-mem.obj
 0001:0002cdf8       _parser_stack_init         0042d0f8 f   js-parser-mem.obj
 0001:0002ce1e       _parser_stack_iterator_read 0042d11e f   js-parser-mem.obj
 0001:0002ceb2       _parser_stack_iterator_skip 0042d1b2 f   js-parser-mem.obj
 0001:0002cefb       _parser_stack_iterator_write 0042d1fb f   js-parser-mem.obj
 0001:0002cf91       _parser_stack_pop          0042d291 f   js-parser-mem.obj
 0001:0002d0be       _parser_stack_pop_uint16   0042d3be f   js-parser-mem.obj
 0001:0002d144       _parser_stack_pop_uint8    0042d444 f   js-parser-mem.obj
 0001:0002d1ee       _parser_stack_push         0042d4ee f   js-parser-mem.obj
 0001:0002d2af       _parser_stack_push_uint16  0042d5af f   js-parser-mem.obj
 0001:0002d33c       _parser_stack_push_uint8   0042d63c f   js-parser-mem.obj
 0001:0002d86f       _parser_scan_until         0042db6f f   js-parser-scanner.obj
 0001:0002db5a       _parser_free_jumps         0042de5a f   js-parser-statm.obj
 0001:0002eac9       _parser_parse_statements   0042edc9 f   js-parser-statm.obj
 0001:0002fc22       _parser_emit_cbc           0042ff22 f   js-parser-util.obj
 0001:0002fc85       _parser_emit_cbc_backward_branch 0042ff85 f   js-parser-util.obj
 0001:0002feef       _parser_emit_cbc_call      004301ef f   js-parser-util.obj
 0001:0002ff7e       _parser_emit_cbc_forward_branch 0043027e f   js-parser-util.obj
 0001:00030114       _parser_emit_cbc_forward_branch_item 00430414 f   js-parser-util.obj
 0001:0003014a       _parser_emit_cbc_literal   0043044a f   js-parser-util.obj
 0001:000301c6       _parser_emit_cbc_literal_from_token 004304c6 f   js-parser-util.obj
 0001:00030248       _parser_emit_cbc_push_number 00430548 f   js-parser-util.obj
 0001:00030399       _parser_flush_cbc          00430699 f   js-parser-util.obj
 0001:00030592       _parser_set_branch_to_current_position 00430892 f   js-parser-util.obj
 0001:00030637       _parser_set_breaks_to_current_position 00430937 f   js-parser-util.obj
 0001:0003066d       _parser_set_continues_to_current_position 0043096d f   js-parser-util.obj
 0001:00031255       _parser_parse_function     00431555 f   js-parser.obj
 0001:000315eb       _parser_parse_script       004318eb f   js-parser.obj
 0001:00032066       _parser_raise_error        00432366 f   js-parser.obj
 0001:00032199       _re_append_char            00432499 f   re-bytecode.obj
 0001:000321af       _re_append_jump_offset     004324af f   re-bytecode.obj
 0001:000321c5       _re_append_opcode          004324c5 f   re-bytecode.obj
 0001:000321db       _re_append_u32             004324db f   re-bytecode.obj
 0001:00032243       _re_bytecode_list_insert   00432543 f   re-bytecode.obj
 0001:000322f3       _re_get_bytecode_length    004325f3 f   re-bytecode.obj
 0001:00032300       _re_get_char               00432600 f   re-bytecode.obj
 0001:00032312       _re_get_opcode             00432612 f   re-bytecode.obj
 0001:00032324       _re_get_value              00432624 f   re-bytecode.obj
 0001:00032335       _re_insert_opcode          00432635 f   re-bytecode.obj
 0001:0003234e       _re_insert_u32             0043264e f   re-bytecode.obj
 0001:0003244e       _re_cache_gc_run           0043274e f   re-compiler.obj
 0001:0003247a       _re_compile_bytecode       0043277a f   re-compiler.obj
 0001:00032dff       _re_parse_char_class       004330ff f   re-parser.obj
 0001:000333ed       _re_parse_next_token       004336ed f   re-parser.obj
 0001:0003388f       _do_number_arithmetic      00433b8f f   opcodes-ecma-arithmetics.obj
 0001:00033a81       _opfunc_addition           00433d81 f   opcodes-ecma-arithmetics.obj
 0001:00033d58       _opfunc_unary_minus        00434058 f   opcodes-ecma-arithmetics.obj
 0001:00033e36       _opfunc_unary_plus         00434136 f   opcodes-ecma-arithmetics.obj
 0001:00033f0c       _do_number_bitwise_logic   0043420c f   opcodes-ecma-bitwise.obj
 0001:00034260       _opfunc_equal_value        00434560 f   opcodes-ecma-equality.obj
 0001:000342be       _opfunc_not_equal_value    004345be f   opcodes-ecma-equality.obj
 0001:0003432c       _opfunc_greater_or_equal_than 0043462c f   opcodes-ecma-relational.obj
 0001:000343ac       _opfunc_greater_than       004346ac f   opcodes-ecma-relational.obj
 0001:00034424       _opfunc_in                 00434724 f   opcodes-ecma-relational.obj
 0001:000344b2       _opfunc_instanceof         004347b2 f   opcodes-ecma-relational.obj
 0001:0003452a       _opfunc_less_or_equal_than 0043482a f   opcodes-ecma-relational.obj
 0001:000345a4       _opfunc_less_than          004348a4 f   opcodes-ecma-relational.obj
 0001:0003461c       _opfunc_for_in             0043491c f   opcodes.obj
 0001:000346f8       _opfunc_logical_not        004349f8 f   opcodes.obj
 0001:00034712       _opfunc_set_accessor       00434a12 f   opcodes.obj
 0001:000347f9       _opfunc_typeof             00434af9 f   opcodes.obj
 0001:00034898       _vm_op_delete_prop         00434b98 f   opcodes.obj
 0001:00034a37       _vm_op_delete_var          00434d37 f   opcodes.obj
 0001:00034a9e       _vm_var_decl               00434d9e f   opcodes.obj
 0001:00034b6a       _vm_stack_context_abort    00434e6a f   vm-stack.obj
 0001:00034c56       _vm_stack_find_finally     00434f56 f   vm-stack.obj
 0001:00035392       _vm_is_direct_eval_form_call 00435692 f   vm.obj
 0001:0003539a       _vm_is_strict_mode         0043569a f   vm.obj
 0001:00037553       _vm_run                    00437853 f   vm.obj
 0001:00037625       _vm_run_eval               00437925 f   vm.obj
 0001:000376c0       __allmul                   004379c0 f   MSVCRT:llmul.obj
 0001:00037700       __ftol2_sse                00437a00 f   MSVCRT:ftol2.obj
 0001:00037709       __ftol2_pentium4           00437a09 f   MSVCRT:ftol2.obj
 0001:0003771c       __ftol2_sse_excpt          00437a1c f   MSVCRT:ftol2.obj
 0001:00037736       __ftol2                    00437a36 f   MSVCRT:ftol2.obj
 0001:000377b0       __allshl                   00437ab0 f   MSVCRT:llshl.obj
 0001:000377d0       __aulldvrm                 00437ad0 f   MSVCRT:ulldvrm.obj
 0001:00037865       ___isa_available_init      00437b65 f   MSVCRT:cpu_disp.obj
 0001:000379de       _IsProcessorFeaturePresent@4 00437cde f   kernel32:KERNEL32.dll
 0002:00000000       __imp__IsProcessorFeaturePresent@4 00437d00     kernel32:KERNEL32.dll
 0002:00000004       \177KERNEL32_NULL_THUNK_DATA 00437d04     kernel32:KERNEL32.dll
 0002:00000048       ??_C@_0BC@IKHGKNGB@ecma_alloc_object?$AA@ 00437d48     ecma-alloc.obj
 0002:0000005c       ??_C@_0BH@DCADEOID@ecma?2base?2ecma?9alloc?4c?$AA@ 00437d5c     ecma-alloc.obj
 0002:00000074       ??_C@_0BB@NOMKPHHH@object_p?5?$CB?$DN?5NULL?$AA@ 00437d74     ecma-alloc.obj
 0002:00000088       ??_C@_0BC@EPPCKLGL@ecma_alloc_number?$AA@ 00437d88     ecma-alloc.obj
 0002:0000009c       ??_C@_0BB@PDKGCFDI@number_p?5?$CB?$DN?5NULL?$AA@ 00437d9c     ecma-alloc.obj
 0002:000000b0       ??_C@_0BN@BFBOCJJ@ecma_alloc_collection_header?$AA@ 00437db0     ecma-alloc.obj
 0002:000000d0       ??_C@_0BM@BIEHPLGF@collection_header_p?5?$CB?$DN?5NULL?$AA@ 00437dd0     ecma-alloc.obj
 0002:000000ec       ??_C@_0BM@OKKANDLD@ecma_alloc_collection_chunk?$AA@ 00437dec     ecma-alloc.obj
 0002:00000108       ??_C@_0BL@GFAOPNEF@collection_chunk_p?5?$CB?$DN?5NULL?$AA@ 00437e08     ecma-alloc.obj
 0002:00000124       ??_C@_0BC@IMPGALGH@ecma_alloc_string?$AA@ 00437e24     ecma-alloc.obj
 0002:00000138       ??_C@_0BB@HEIBMMLG@string_p?5?$CB?$DN?5NULL?$AA@ 00437e38     ecma-alloc.obj
 0002:0000014c       ??_C@_0BI@DCFJKDJC@ecma_gc_get_object_next?$AA@ 00437e4c     ecma-gc.obj
 0002:00000164       ??_C@_0BE@HMJIDAJL@ecma?2base?2ecma?9gc?4c?$AA@ 00437e64     ecma-gc.obj
 0002:00000178       ??_C@_0BI@EPNBIL@ecma_gc_set_object_next?$AA@ 00437e78     ecma-gc.obj
 0002:00000190       ??_C@_0BK@HCLBCKLK@ecma_gc_is_object_visited?$AA@ 00437e90     ecma-gc.obj
 0002:000001ac       ??_C@_0BL@KCLJCPIH@ecma_gc_set_object_visited?$AA@ 00437eac     ecma-gc.obj
 0002:000001c8       ??_C@_0BC@EMGCMHGH@ecma_init_gc_info?$AA@ 00437ec8     ecma-gc.obj
 0002:000001e0       ??_C@_0EO@PMHJNKIP@JERRY_CONTEXT?5?$CIecma_gc_new_objec@ 00437ee0     ecma-gc.obj
 0002:00000230       ??_C@_0DA@FLGJGANF@object_p?9?$DOtype_flags_refs?5?$DM?5ECMA@ 00437f30     ecma-gc.obj
 0002:00000260       ??_C@_0BC@KLMFBOKI@ecma_deref_object?$AA@ 00437f60     ecma-gc.obj
 0002:00000274       ??_C@_0DB@KBIGEBNO@object_p?9?$DOtype_flags_refs?5?$DO?$DN?5ECM@ 00437f74     ecma-gc.obj
 0002:000002a8       ??_C@_0BG@NGAOGKNN@ecma_gc_mark_property?$AA@ 00437fa8     ecma-gc.obj
 0002:000002c0       ??_C@_0LB@HNIKFMNL@ECMA_PROPERTY_GET_INTERNAL_PROPE@ 00437fc0     ecma-gc.obj
 0002:00000374       ??_C@_0N@BKPJDMCO@ecma_gc_mark?$AA@ 00438074     ecma-gc.obj
 0002:00000384       ??_C@_0CF@LLGILIBN@ecma_gc_is_object_visited?5?$CIobjec@ 00438084     ecma-gc.obj
 0002:000003ac       ??_C@_0BA@GDEHKCIK@args_length?5?$DO?50?$AA@ 004380ac     ecma-gc.obj
 0002:000003c0       ??_C@_0GE@IBLOLMJJ@prop_iter_p?9?$DOtypes?$FL0?$FN?5?$DN?$DN?5ECMA_PR@ 004380c0     ecma-gc.obj
 0002:00000424       ??_C@_0O@OCNPMOOA@ecma_gc_sweep?$AA@ 00438124     ecma-gc.obj
 0002:00000438       ??_C@_0GN@HENCFDH@object_p?5?$CB?$DN?5NULL?5?$CG?$CG?5?$CBecma_gc_is_@ 00438138     ecma-gc.obj
 0002:000004a8       ??_C@_0N@JCKCCIM@is_retrieved?$AA@ 004381a8     ecma-gc.obj
 0002:000004b8       ??_C@_0CN@JKBNEPCE@ECMA_PROPERTY_IS_PROPERTY_PAIR?5?$CI@ 004381b8     ecma-gc.obj
 0002:000004e8       ??_C@_0GL@OAPMCIMK@prop_iter_p?9?$DOtypes?$FL0?$FN?5?$CB?$DN?5ECMA_PR@ 004381e8     ecma-gc.obj
 0002:00000558       ??_C@_0GL@MBLFBKKG@prop_iter_p?9?$DOtypes?$FL0?$FN?5?$DN?$DN?5ECMA_PR@ 00438258     ecma-gc.obj
 0002:000005c4       ??_C@_0CL@PEMGPMJF@JERRY_CONTEXT?5?$CIecma_gc_objects_n@ 004382c4     ecma-gc.obj
 0002:000005f0       ??_C@_0M@MKKPKPM@ecma_gc_run?$AA@ 004382f0     ecma-gc.obj
 0002:00000600       ??_C@_0EE@IAKKOODA@JERRY_CONTEXT?5?$CIecma_gc_objects_l@ 00438300     ecma-gc.obj
 0002:00000644       ??_C@_0CI@GFCOJPHF@?$CBecma_gc_is_object_visited?5?$CIobj_@ 00438344     ecma-gc.obj
 0002:0000066c       ??_C@_0DD@HHLNLEHP@ecma_gc_get_object_next?5?$CIobj_pre@ 0043836c     ecma-gc.obj
 0002:000006a0       ??_C@_0CH@JBMLMFBO@ecma_gc_is_object_visited?5?$CIobj_i@ 004383a0     ecma-gc.obj
 0002:000006c8       ??_C@_0BI@DOLKBKAG@ecma_free_unused_memory?$AA@ 004383c8     ecma-gc.obj
 0002:000006e0       ??_C@_0DC@LMAGLLEC@severity?5?$DN?$DN?5JMEM_FREE_UNUSED_MEM@ 004383e0     ecma-gc.obj
 0002:00000714       ??_C@_0BL@FAEINABE@ecma_utf8_string_to_number?$AA@ 00438414     ecma-helpers-conversion.obj
 0002:00000730       ??_C@_0CE@PLIFEFDP@ecma?2base?2ecma?9helpers?9conversio@ 00438430     ecma-helpers-conversion.obj
 0002:00000754       ??_C@_0BF@JBHEMMID@begin_p?5?$DN?$DN?5end_p?5?$CL?51?$AA@ 00438454     ecma-helpers-conversion.obj
 0002:0000076c       ??_C@_0CC@CMIIIGNE@fraction_uint128?$FL0?$FN?5?$DM?$DN?5UINT32_MA@ 0043846c     ecma-helpers-conversion.obj
 0002:00000790       ??_C@_0CC@KLCOENJH@fraction_uint128?$FL1?$FN?5?$DM?$DN?5UINT32_MA@ 00438490     ecma-helpers-conversion.obj
 0002:000007b4       ??_C@_0CC@PILEBGBD@fraction_uint128?$FL2?$FN?5?$DM?$DN?5UINT32_MA@ 004384b4     ecma-helpers-conversion.obj
 0002:000007d8       ??_C@_0CC@HPBCNNFA@fraction_uint128?$FL3?$FN?5?$DM?$DN?5UINT32_MA@ 004384d8     ecma-helpers-conversion.obj
 0002:00000800       ??_C@_0FE@PDAMKHLI@ECMA_NUMBER_CONVERSION_128BIT_IN@ 00438500     ecma-helpers-conversion.obj
 0002:00000858       ??_C@_0EC@MOBHKNHP@?$CBECMA_NUMBER_CONVERSION_128BIT_I@ 00438558     ecma-helpers-conversion.obj
 0002:0000089c       ??_C@_06EHOKBAHN@e?5?$DO?$DN?50?$AA@ 0043859c     ecma-helpers-conversion.obj
 0002:000008a4       ??_C@_0CG@EGMPBJPL@fraction_uint128_tmp?$FL0?$FN?5?$DM?$DN?5UINT3@ 004385a4     ecma-helpers-conversion.obj
 0002:000008cc       ??_C@_0CG@MBGJNCLI@fraction_uint128_tmp?$FL1?$FN?5?$DM?$DN?5UINT3@ 004385cc     ecma-helpers-conversion.obj
 0002:000008f4       ??_C@_0CG@JCPDIJDM@fraction_uint128_tmp?$FL2?$FN?5?$DM?$DN?5UINT3@ 004385f4     ecma-helpers-conversion.obj
 0002:0000091c       ??_C@_0CG@BFFFECHP@fraction_uint128_tmp?$FL3?$FN?5?$DM?$DN?5UINT3@ 0043861c     ecma-helpers-conversion.obj
 0002:00000944       ??_C@_06KFFKBACO@e?5?$CB?$DN?50?$AA@ 00438644     ecma-helpers-conversion.obj
 0002:00000950       ??_C@_0FI@MFCDCHFP@ECMA_NUMBER_CONVERSION_128BIT_IN@ 00438650     ecma-helpers-conversion.obj
 0002:000009a8       ??_C@_0BL@FMHECEAD@ecma_uint32_to_utf8_string?$AA@ 004386a8     ecma-helpers-conversion.obj
 0002:000009c4       ??_C@_0BG@IIMHPIE@buf_p?5?$DO?$DN?5out_buffer_p?$AA@ 004386c4     ecma-helpers-conversion.obj
 0002:000009dc       ??_C@_0BG@BNJCLOFB@ecma_number_to_uint32?$AA@ 004386dc     ecma-helpers-conversion.obj
 0002:000009f4       ??_C@_0CG@OFIMCP@num_in_uint32_range?5?$DM?5uint64_2_p@ 004386f4     ecma-helpers-conversion.obj
 0002:00000a1c       ??_C@_0CE@GHFDHKOH@ret?5?$DN?$DN?5uint64_2_pow_32?5?9?5uint32_@ 0043871c     ecma-helpers-conversion.obj
 0002:00000a40       ??_C@_0BC@DJBPLNPI@ret?5?$DN?$DN?5uint32_num?$AA@ 00438740     ecma-helpers-conversion.obj
 0002:00000a54       ??_C@_0BF@HICHGHJP@ecma_number_to_int32?$AA@ 00438754     ecma-helpers-conversion.obj
 0002:00000a6c       ??_C@_0P@GMFEKPMJ@int64_num?5?$DO?$DN?50?$AA@ 0043876c     ecma-helpers-conversion.obj
 0002:00000a7c       ??_C@_0CC@IHLHOLJG@ret?5?$DN?$DN?5int64_num?5?9?5int64_2_pow_3@ 0043877c     ecma-helpers-conversion.obj
 0002:00000aa0       ??_C@_0BB@OOEJKKFC@ret?5?$DN?$DN?5int64_num?$AA@ 004387a0     ecma-helpers-conversion.obj
 0002:00000ab4       ??_C@_0BH@MDEOCECD@ecma_number_to_decimal?$AA@ 004387b4     ecma-helpers-conversion.obj
 0002:00000acc       ??_C@_0BK@KCLNKHIB@?$CBecma_number_is_nan?5?$CInum?$CJ?$AA@ 004387cc     ecma-helpers-conversion.obj
 0002:00000ae8       ??_C@_0BL@GMDGLMAE@?$CBecma_number_is_zero?5?$CInum?$CJ?$AA@ 004387e8     ecma-helpers-conversion.obj
 0002:00000b04       ??_C@_0BP@ELHJBID@?$CBecma_number_is_infinity?5?$CInum?$CJ?$AA@ 00438804     ecma-helpers-conversion.obj
 0002:00000b24       ??_C@_0BP@ECKPJKKC@?$CBecma_number_is_negative?5?$CInum?$CJ?$AA@ 00438824     ecma-helpers-conversion.obj
 0002:00000b44       ??_C@_0BL@OPHEHCPJ@ecma_number_to_utf8_string?$AA@ 00438844     ecma-helpers-conversion.obj
 0002:00000b60       ??_C@_0BB@KGHDGHOG@1?5?$DM?$DN?5buffer_size?$AA@ 00438860     ecma-helpers-conversion.obj
 0002:00000b74       ??_C@_0CA@CDMCIHFA@dst_p?5?$DM?$DN?5buffer_p?5?$CL?5buffer_size?$AA@ 00438874     ecma-helpers-conversion.obj
 0002:00000b94       ??_C@_0DJ@MJNBIBHL@ecma_number_get_next?5?$CIecma_numbe@ 00438894     ecma-helpers-conversion.obj
 0002:00000bd0       __real@0000000000000000    004388d0     ecma-helpers-conversion.obj
 0002:00000bd8       __real@4030000000000000    004388d8     ecma-helpers-conversion.obj
 0002:00000be0       __real@41f0000000000000    004388e0     ecma-helpers-conversion.obj
 0002:00000be8       __real@8000000000000000    004388e8     ecma-helpers-conversion.obj
 0002:00000bf0       __real@3fe0000000000000    004388f0     ecma-helpers-errol.obj
 0002:00000bf8       __real@3ff0000000000000    004388f8     ecma-helpers-errol.obj
 0002:00000c00       __real@400000000d6bf94d    00438900     ecma-helpers-errol.obj
 0002:00000c08       __real@4020000000000000    00438908     ecma-helpers-errol.obj
 0002:00000c10       __real@4024000000000000    00438910     ecma-helpers-errol.obj
 0002:00000c18       __real@7ff0000000000000    00438918     ecma-helpers-errol.obj
 0002:00000c20       __real@fff0000000000000    00438920     ecma-helpers-errol.obj
 0002:00000c28       ??_C@_0CL@MLLNDKOB@ecma?2base?2ecma?9helpers?9external?9@ 00438928     ecma-helpers-external-pointers.obj
 0002:00000c58       ??_C@_0FJ@PAEMIBID@id?5?$DN?$DN?5ECMA_INTERNAL_PROPERTY_NAT@ 00438958     ecma-helpers-external-pointers.obj
 0002:00000cb4       ??_C@_0CA@IMJABMAF@ecma_get_external_pointer_value?$AA@ 004389b4     ecma-helpers-external-pointers.obj
 0002:00000cd4       ??_C@_0CH@KLDPELAO@ecma_free_external_pointer_in_pr@ 004389d4     ecma-helpers-external-pointers.obj
 0002:00000d00       ??_C@_0LH@JEAECGNM@ECMA_PROPERTY_GET_INTERNAL_PROPE@ 00438a00     ecma-helpers-external-pointers.obj
 0002:00000db8       _ecma_number_exponent_bias 00438ab8     ecma-helpers-number.obj
 0002:00000dbc       ??_C@_0BB@JAKEDCEH@ecma_number_pack?$AA@ 00438abc     ecma-helpers-number.obj
 0002:00000dd0       ??_C@_0CA@CJBEFDBO@ecma?2base?2ecma?9helpers?9number?4c?$AA@ 00438ad0     ecma-helpers-number.obj
 0002:00000df0       ??_C@_0EA@MJCFNIOK@?$CIbiased_exp?5?$CG?5?$HO?$CI?$CI1u?5?$DM?$DM?5ECMA_NUMB@ 00438af0     ecma-helpers-number.obj
 0002:00000e30       ??_C@_0DO@INAAOJKE@?$CIfraction?5?$CG?5?$HO?$CI?$CI1ull?5?$DM?$DM?5ECMA_NUMB@ 00438b30     ecma-helpers-number.obj
 0002:00000e70       ??_C@_0BD@CKNDCAOA@ecma_number_is_nan?$AA@ 00438b70     ecma-helpers-number.obj
 0002:00000e84       ??_C@_0BJ@JFFCMCPK@is_nan?5?$DN?$DN?5is_nan_ieee754?$AA@ 00438b84     ecma-helpers-number.obj
 0002:00000ea0       ??_C@_0BI@LILCMNPA@ecma_number_is_negative?$AA@ 00438ba0     ecma-helpers-number.obj
 0002:00000eb8       ??_C@_0BE@ENHLLKDB@ecma_number_is_zero?$AA@ 00438bb8     ecma-helpers-number.obj
 0002:00000ecc       ??_C@_0BL@FLGLGGHI@is_zero?5?$DN?$DN?5is_zero_ieee754?$AA@ 00438bcc     ecma-helpers-number.obj
 0002:00000ee8       ??_C@_0BI@EDODDKG@ecma_number_is_infinity?$AA@ 00438be8     ecma-helpers-number.obj
 0002:00000f00       ??_C@_0CG@JOFGHKKO@ecma_number_get_fraction_and_exp@ 00438c00     ecma-helpers-number.obj
 0002:00000f28       ??_C@_0O@DJFFJPGJ@fraction?5?$CB?$DN?50?$AA@ 00438c28     ecma-helpers-number.obj
 0002:00000f38       ??_C@_0DH@EPFKPIKL@?$CIfraction?5?$CG?5?$CI1ull?5?$DM?$DM?5ECMA_NUMBER@ 00438c38     ecma-helpers-number.obj
 0002:00000f70       ??_C@_0EI@BNHEPMDD@biased_exp?5?$DO?50?5?$CG?$CG?5biased_exp?5?$DM?5?$CI@ 00438c70     ecma-helpers-number.obj
 0002:00000fb8       ??_C@_0DM@GCMGFHLN@ecma_number_make_normal_positive@ 00438cb8     ecma-helpers-number.obj
 0002:00000ff8       ??_C@_0EE@LOECMLLK@?$CIfraction?5?$CG?5?$HO?$CI?$CI1ull?5?$DM?$DM?5?$CIECMA_NUM@ 00438cf8     ecma-helpers-number.obj
 0002:0000103c       ??_C@_0DH@OKEKICCI@?$CIfraction?5?$CG?5?$CI1ull?5?$DM?$DM?5ECMA_NUMBER@ 00438d3c     ecma-helpers-number.obj
 0002:00001074       ??_C@_0DB@LIJNMGCB@ecma_number_make_from_sign_manti@ 00438d74     ecma-helpers-number.obj
 0002:000010a8       ??_C@_0IC@IKENHCKM@?$CI?$CImantissa?5?$CG?5?$HO?$CI?$CI1ull?5?$DM?$DM?5?$CIECMA_NU@ 00438da8     ecma-helpers-number.obj
 0002:0000112c       ??_C@_0DO@JBCKDEOE@?$CImantissa?5?$CG?5?$HO?$CI?$CI1ull?5?$DM?$DM?5ECMA_NUMB@ 00438e2c     ecma-helpers-number.obj
 0002:0000116c       ??_C@_0BF@GFKMCCAJ@ecma_number_get_prev?$AA@ 00438e6c     ecma-helpers-number.obj
 0002:00001184       ??_C@_0BF@FBHKDGGN@ecma_number_get_next?$AA@ 00438e84     ecma-helpers-number.obj
 0002:0000119c       ??_C@_0DA@DDCLDNDG@fraction?5?$CG?5?$CI1ull?5?$DM?$DM?5ECMA_NUMBER_@ 00438e9c     ecma-helpers-number.obj
 0002:000011cc       ??_C@_0BD@KNAKEKJ@ecma_number_negate?$AA@ 00438ecc     ecma-helpers-number.obj
 0002:000011e0       ??_C@_0GF@FIMLCBNK@negated?5?$DN?$DN?5negated_ieee754?5?$HM?$HM?5?$CIe@ 00438ee0     ecma-helpers-number.obj
 0002:00001248       ??_C@_0BC@GJJACNIJ@ecma_number_trunc?$AA@ 00438f48     ecma-helpers-number.obj
 0002:0000125c       ??_C@_0BL@EOIEJCPI@ecma_number_calc_remainder?$AA@ 00438f5c     ecma-helpers-number.obj
 0002:00001278       ??_C@_0GJ@CAEIADL@?$CBecma_number_is_nan?5?$CIleft_num?$CJ?5?$CG@ 00438f78     ecma-helpers-number.obj
 0002:000012e8       ??_C@_0GM@KBPJOLK@?$CBecma_number_is_nan?5?$CIright_num?$CJ?5@ 00438fe8     ecma-helpers-number.obj
 0002:00001380       ??_C@_0BL@KDDIMHD@ecma_string_to_array_index?$AA@ 00439080     ecma-helpers-string.obj
 0002:0000139c       ??_C@_0CA@FDHHHMPO@ecma?2base?2ecma?9helpers?9string?4c?$AA@ 0043909c     ecma-helpers-string.obj
 0002:000013c0       ??_C@_0EG@HEHJLGPC@string_size?5?$DO?50?5?$CG?$CG?5?$CKstring_p?5?$DO?$DN?5@ 004390c0     ecma-helpers-string.obj
 0002:00001408       ??_C@_0BP@DNHPEIHN@ecma_new_ecma_string_from_utf8?$AA@ 00439108     ecma-helpers-string.obj
 0002:00001428       ??_C@_0CF@HLIGDENI@string_p?5?$CB?$DN?5NULL?5?$HM?$HM?5string_size?5@ 00439128     ecma-helpers-string.obj
 0002:00001450       ??_C@_0DC@DKNEOCMN@lit_is_cesu8_string_valid?5?$CIstrin@ 00439150     ecma-helpers-string.obj
 0002:00001484       ??_C@_0BA@DLKLMPDB@string_size?5?$DO?50?$AA@ 00439184     ecma-helpers-string.obj
 0002:00001494       ??_C@_0BF@JMGHJLHG@character?5?$DO?$DN?50x10000?$AA@ 00439194     ecma-helpers-string.obj
 0002:000014ac       ??_C@_0CB@MMGGCEJP@ecma_new_ecma_string_from_number@ 004391ac     ecma-helpers-string.obj
 0002:000014d0       ??_C@_0N@BODNKAMC@str_size?5?$DO?50?$AA@ 004391d0     ecma-helpers-string.obj
 0002:000014e0       ??_C@_0JP@ODHPCHEF@lit_is_utf8_string_magic?5?$CIstr_bu@ 004391e0     ecma-helpers-string.obj
 0002:00001580       ??_C@_0CK@BKDOLNJD@ecma_new_ecma_string_from_magic_@ 00439280     ecma-helpers-string.obj
 0002:000015ac       ??_C@_0BN@HJMLKLAJ@id?5?$DM?5LIT_MAGIC_STRING__COUNT?$AA@ 004392ac     ecma-helpers-string.obj
 0002:000015cc       ??_C@_0CN@GIHEDAON@ecma_new_ecma_string_from_magic_@ 004392cc     ecma-helpers-string.obj
 0002:000015fc       ??_C@_0CG@GDMHNLHL@id?5?$DM?5lit_get_magic_string_ex_cou@ 004392fc     ecma-helpers-string.obj
 0002:00001624       ??_C@_0BJ@NLCNLBMD@ecma_concat_ecma_strings?$AA@ 00439324     ecma-helpers-string.obj
 0002:00001640       ??_C@_0CH@OFHNIPOB@string1_p?5?$CB?$DN?5NULL?5?$CG?$CG?5string2_p?5?$CB@ 00439340     ecma-helpers-string.obj
 0002:00001668       ??_C@_0EP@DEMJCHLL@ECMA_STRING_GET_CONTAINER?5?$CIstrin@ 00439368     ecma-helpers-string.obj
 0002:000016b8       ??_C@_0EP@LEJDILAO@ECMA_STRING_GET_CONTAINER?5?$CIstrin@ 004393b8     ecma-helpers-string.obj
 0002:00001708       ??_C@_0BG@KBMFGHGD@utf8_string1_size?5?$DO?50?$AA@ 00439408     ecma-helpers-string.obj
 0002:00001720       ??_C@_0BG@DICHABGC@utf8_string2_size?5?$DO?50?$AA@ 00439420     ecma-helpers-string.obj
 0002:00001738       ??_C@_0CJ@JADOEEFL@utf8_string1_length?5?$DM?$DN?5utf8_stri@ 00439438     ecma-helpers-string.obj
 0002:00001764       ??_C@_0CJ@OFHHHLNO@utf8_string2_length?5?$DM?$DN?5utf8_stri@ 00439464     ecma-helpers-string.obj
 0002:00001790       ??_C@_0BF@BFHBNOJ@ecma_ref_ecma_string?$AA@ 00439490     ecma-helpers-string.obj
 0002:000017a8       ??_C@_0DE@LCGKOENH@string_p?9?$DOrefs_and_container?5?$DO?$DN?5@ 004394a8     ecma-helpers-string.obj
 0002:000017dc       ??_C@_0BH@JEDAJPKB@ecma_deref_ecma_string?$AA@ 004394dc     ecma-helpers-string.obj
 0002:000017f8       ??_C@_0FC@PJCFBKOA@?$CBecma_string_to_array_index?5?$CIcha@ 004394f8     ecma-helpers-string.obj
 0002:0000184c       ??_C@_0CP@KBGHDDG@string_p?9?$DOu?4long_utf8_string_siz@ 0043954c     ecma-helpers-string.obj
 0002:0000187c       ??_C@_0BG@CBOCDCJP@ecma_string_to_number?$AA@ 0043957c     ecma-helpers-string.obj
 0002:00001894       ??_C@_0O@FABAPJHP@str_p?5?$CB?$DN?5NULL?$AA@ 00439594     ecma-helpers-string.obj
 0002:000018a4       ??_C@_0BF@JFNKDHCK@str_buffer_p?5?$CB?$DN?5NULL?$AA@ 004395a4     ecma-helpers-string.obj
 0002:000018bc       ??_C@_0CB@IGJPOLBK@ecma_string_copy_to_cesu8_buffer@ 004395bc     ecma-helpers-string.obj
 0002:000018e0       ??_C@_0BG@CGPFJNCF@string_desc_p?5?$CB?$DN?5NULL?$AA@ 004395e0     ecma-helpers-string.obj
 0002:000018f8       ??_C@_0DJ@BIDPADEO@string_desc_p?9?$DOrefs_and_containe@ 004395f8     ecma-helpers-string.obj
 0002:00001934       ??_C@_0CF@LECKGNOK@buffer_p?5?$CB?$DN?5NULL?5?$HM?$HM?5buffer_size?5@ 00439634     ecma-helpers-string.obj
 0002:0000195c       ??_C@_0DE@PMICMKGB@ecma_string_get_size?5?$CIstring_des@ 0043965c     ecma-helpers-string.obj
 0002:00001990       ??_C@_0FD@GMLMFLLD@ECMA_STRING_GET_CONTAINER?5?$CIstrin@ 00439690     ecma-helpers-string.obj
 0002:000019e4       ??_C@_0BE@FHBPJGEE@size?5?$DM?$DN?5buffer_size?$AA@ 004396e4     ecma-helpers-string.obj
 0002:000019f8       ??_C@_0BK@JDBPHGFC@ecma_string_to_utf8_bytes?$AA@ 004396f8     ecma-helpers-string.obj
 0002:00001a14       ??_C@_0BE@OOOEENKM@size?5?$DN?$DN?5buffer_size?$AA@ 00439714     ecma-helpers-string.obj
 0002:00001a28       ??_C@_0BG@MPBBALOD@ecma_string_raw_chars?$AA@ 00439728     ecma-helpers-string.obj
 0002:00001a40       ??_C@_0CK@FNODBCKG@ecma_string_get_length?5?$CIstring_p@ 00439740     ecma-helpers-string.obj
 0002:00001a6c       ??_C@_0CG@DMDPLJGK@ECMA_STRING_IS_ASCII?5?$CIresult_p?0?5@ 0043976c     ecma-helpers-string.obj
 0002:00001a98       ??_C@_0EO@MBEIEHCF@ECMA_STRING_GET_CONTAINER?5?$CIstrin@ 00439798     ecma-helpers-string.obj
 0002:00001ae8       ??_C@_0BP@KAKFPLPG@ecma_string_from_property_name?$AA@ 004397e8     ecma-helpers-string.obj
 0002:00001b08       ??_C@_0EJ@CIBNHBL@ECMA_PROPERTY_GET_NAME_TYPE?5?$CIpro@ 00439808     ecma-helpers-string.obj
 0002:00001b54       ??_C@_0CF@ELIEIJHG@ecma_string_compare_to_property_@ 00439854     ecma-helpers-string.obj
 0002:00001b7c       ??_C@_0DF@PDNPKAEJ@property_name_type?5?$DN?$DN?5ECMA_PROPE@ 0043987c     ecma-helpers-string.obj
 0002:00001bb4       ??_C@_0CD@KHIGBMCC@ecma_compare_ecma_strings_longpa@ 004398b4     ecma-helpers-string.obj
 0002:00001bd8       ??_C@_0EP@FOPLFAAH@ECMA_STRING_GET_CONTAINER?5?$CIstrin@ 004398d8     ecma-helpers-string.obj
 0002:00001c28       ??_C@_0FF@KHEONAKH@ECMA_STRING_GET_CONTAINER?5?$CIstrin@ 00439928     ecma-helpers-string.obj
 0002:00001c80       ??_C@_0BK@GFDNLDCE@ecma_compare_ecma_strings?$AA@ 00439980     ecma-helpers-string.obj
 0002:00001c9c       ??_C@_0CF@BKJCDJGB@ecma_compare_ecma_strings_relati@ 0043999c     ecma-helpers-string.obj
 0002:00001cc4       ??_C@_0BH@NBCBPCJO@ecma_string_get_length?$AA@ 004399c4     ecma-helpers-string.obj
 0002:00001ce0       ??_C@_0II@ODKFDJKH@ECMA_STRING_IS_ASCII?5?$CIlit_get_ma@ 004399e0     ecma-helpers-string.obj
 0002:00001d68       ??_C@_0BF@PMMLHBAJ@ecma_string_get_size?$AA@ 00439a68     ecma-helpers-string.obj
 0002:00001d80       ??_C@_0BM@HKHLDLLL@ecma_string_get_char_at_pos?$AA@ 00439a80     ecma-helpers-string.obj
 0002:00001d9c       ??_C@_0CK@PGKPLGM@index?5?$DM?5ecma_string_get_length?5?$CI@ 00439a9c     ecma-helpers-string.obj
 0002:00001dc8       ??_C@_0EN@PAMDGPNF@ECMA_STRING_GET_CONTAINER?5?$CIstrin@ 00439ac8     ecma-helpers-string.obj
 0002:00001e18       ??_C@_08LJAEONMP@is_ascii?$AA@ 00439b18     ecma-helpers-string.obj
 0002:00001e24       ??_C@_0BH@IINEHCIM@utf8_str_p___size?5?$CB?$DN?50?$AA@ 00439b24     ecma-helpers-string.obj
 0002:00001e3c       ??_C@_0BH@CNMEAIAP@utf8_str_p___size?5?$DN?$DN?50?$AA@ 00439b3c     ecma-helpers-string.obj
 0002:00001e54       ??_C@_0BD@HHLIFDHM@ecma_string_substr?$AA@ 00439b54     ecma-helpers-string.obj
 0002:00001e68       ??_C@_0BL@ILGCHDMB@start_pos?5?$DM?$DN?5string_length?$AA@ 00439b68     ecma-helpers-string.obj
 0002:00001e84       ??_C@_0BJ@HOBLFPIL@end_pos?5?$DM?$DN?5string_length?$AA@ 00439b84     ecma-helpers-string.obj
 0002:00001ea0       ??_C@_0BB@BDAAJGPD@ecma_string_trim?$AA@ 00439ba0     ecma-helpers-string.obj
 0002:00001eb4       ??_C@_0BD@FDOMDLBA@utf8_str_p?5?$CB?$DN?5NULL?$AA@ 00439bb4     ecma-helpers-string.obj
 0002:00001ec8       ??_C@_0BL@JNJJIGPE@ecma_pointer_to_ecma_value?$AA@ 00439bc8     ecma-helpers-value.obj
 0002:00001ee4       ??_C@_0BP@BMADFKHD@ecma?2base?2ecma?9helpers?9value?4c?$AA@ 00439be4     ecma-helpers-value.obj
 0002:00001f04       ??_C@_0CH@MPLKCOKP@?$CIuint_ptr?5?$CG?5ECMA_VALUE_FULL_MASK@ 00439c04     ecma-helpers-value.obj
 0002:00001f2c       ??_C@_0CG@MDLIDCPG@ecma_check_value_type_is_spec_de@ 00439c2c     ecma-helpers-value.obj
 0002:00001f58       ??_C@_0LP@LBAKHLHE@ecma_is_value_undefined?5?$CIvalue?$CJ?5@ 00439c58     ecma-helpers-value.obj
 0002:00002018       ??_C@_0BI@HPNDGJOA@ecma_make_integer_value?$AA@ 00439d18     ecma-helpers-value.obj
 0002:00002030       ??_C@_0CH@OKGAAONI@ECMA_IS_INTEGER_NUMBER?5?$CIinteger_@ 00439d30     ecma-helpers-value.obj
 0002:00002058       ??_C@_0BH@HJCIFFC@ecma_make_string_value?$AA@ 00439d58     ecma-helpers-value.obj
 0002:00002070       ??_C@_0BG@EDECEECB@ecma_string_p?5?$CB?$DN?5NULL?$AA@ 00439d70     ecma-helpers-value.obj
 0002:00002088       ??_C@_0BH@MHHIMGPA@ecma_make_object_value?$AA@ 00439d88     ecma-helpers-value.obj
 0002:000020a0       ??_C@_0BG@FDLHKHEI@ecma_make_error_value?$AA@ 00439da0     ecma-helpers-value.obj
 0002:000020b8       ??_C@_0BN@MCBDHJKB@?$CBECMA_IS_VALUE_ERROR?5?$CIvalue?$CJ?$AA@ 00439db8     ecma-helpers-value.obj
 0002:000020d8       ??_C@_0BM@ONLLBPAG@ecma_get_integer_from_value?$AA@ 00439dd8     ecma-helpers-value.obj
 0002:000020f4       ??_C@_0CF@FHMFMCCG@ecma_is_value_integer_number?5?$CIva@ 00439df4     ecma-helpers-value.obj
 0002:0000211c       ??_C@_0BK@LIPOEBDP@ecma_get_float_from_value?$AA@ 00439e1c     ecma-helpers-value.obj
 0002:00002138       ??_C@_0DF@IDCFJKME@ecma_get_value_type_field?5?$CIvalue@ 00439e38     ecma-helpers-value.obj
 0002:00002170       ??_C@_0BL@HNOHDDMN@ecma_get_string_from_value?$AA@ 00439e70     ecma-helpers-value.obj
 0002:0000218c       ??_C@_0DG@LFKEJEBE@ecma_get_value_type_field?5?$CIvalue@ 00439e8c     ecma-helpers-value.obj
 0002:000021c4       ??_C@_0BL@JBCOIKNA@ecma_get_object_from_value?$AA@ 00439ec4     ecma-helpers-value.obj
 0002:000021e0       ??_C@_0DG@LDCEDCBC@ecma_get_value_type_field?5?$CIvalue@ 00439ee0     ecma-helpers-value.obj
 0002:00002218       ??_C@_0BK@CLELFLNB@ecma_invert_boolean_value?$AA@ 00439f18     ecma-helpers-value.obj
 0002:00002234       ??_C@_0BO@LFJKODHP@ecma_is_value_boolean?5?$CIvalue?$CJ?$AA@ 00439f34     ecma-helpers-value.obj
 0002:00002254       ??_C@_0CA@HCPHKMCB@ecma_get_value_from_error_value?$AA@ 00439f54     ecma-helpers-value.obj
 0002:00002274       ??_C@_0BM@PMNAAOAB@ECMA_IS_VALUE_ERROR?5?$CIvalue?$CJ?$AA@ 00439f74     ecma-helpers-value.obj
 0002:00002290       ??_C@_0BA@JICAEAEC@ecma_copy_value?$AA@ 00439f90     ecma-helpers-value.obj
 0002:000022a0       ??_C@_0BJ@KGGPGOG@ecma_update_float_number?$AA@ 00439fa0     ecma-helpers-value.obj
 0002:000022bc       ??_C@_0CJ@NCAAPELE@ecma_is_value_float_number?5?$CIfloa@ 00439fbc     ecma-helpers-value.obj
 0002:000022e8       ??_C@_0BL@ODCHMFDG@ecma_new_values_collection?$AA@ 00439fe8     ecma-helpers-values-collection.obj
 0002:00002304       ??_C@_0CL@CLINLHFO@ecma?2base?2ecma?9helpers?9values?9co@ 0043a004     ecma-helpers-values-collection.obj
 0002:00002330       ??_C@_0CM@EKDPKFIA@values_buffer?5?$CB?$DN?5NULL?5?$HM?$HM?5values_@ 0043a030     ecma-helpers-values-collection.obj
 0002:0000235c       ??_C@_0DA@JHKAKEOJ@cur_value_buf_iter_p?5?$CL?51?5?$DM?$DN?5cur_@ 0043a05c     ecma-helpers-values-collection.obj
 0002:0000238c       ??_C@_0BM@DJFKJHAE@ecma_free_values_collection?$AA@ 0043a08c     ecma-helpers-values-collection.obj
 0002:000023a8       ??_C@_0BB@PICEOPM@header_p?5?$CB?$DN?5NULL?$AA@ 0043a0a8     ecma-helpers-values-collection.obj
 0002:000023bc       ??_C@_0CE@EFHPDOOC@value_index?5?$DM?5header_p?9?$DOunit_num@ 0043a0bc     ecma-helpers-values-collection.obj
 0002:000023e0       ??_C@_0CL@CNHEIIHE@cur_value_buf_iter_p?5?$DM?5cur_value@ 0043a0e0     ecma-helpers-values-collection.obj
 0002:0000240c       ??_C@_0CB@EOOGEJN@ecma_append_to_values_collection@ 0043a10c     ecma-helpers-values-collection.obj
 0002:00002430       ??_C@_0CO@CJCHFCJD@header_p?9?$DOfirst_chunk_cp?5?$DN?$DN?5ECMA@ 0043a130     ecma-helpers-values-collection.obj
 0002:00002460       ??_C@_0DB@HIOCHGMP@last_chunk_p?9?$DOnext_chunk_cp?5?$DN?$DN?5E@ 0043a160     ecma-helpers-values-collection.obj
 0002:00002498       ??_C@_0FE@DNKHKOIJ@?$CIuint8_t?5?$CK?$CJ?5?$CIvalues_p?5?$CL?5pos_of_n@ 0043a198     ecma-helpers-values-collection.obj
 0002:000024ec       ??_C@_0CO@NOPOAGLC@ecma_remove_last_value_from_valu@ 0043a1ec     ecma-helpers-values-collection.obj
 0002:0000251c       ??_C@_0CO@PPDJPFLJ@header_p?5?$CB?$DN?5NULL?5?$CG?$CG?5header_p?9?$DOun@ 0043a21c     ecma-helpers-values-collection.obj
 0002:00002550       ??_C@_0FP@BAIOGEFN@?$CIuint8_t?5?$CK?$CJ?5?$CIvalues_p?5?$CL?5pos_of_v@ 0043a250     ecma-helpers-values-collection.obj
 0002:000025b0       ??_C@_0GK@FNNJIIFK@ECMA_GET_NON_NULL_POINTER?5?$CIecma_@ 0043a2b0     ecma-helpers-values-collection.obj
 0002:0000261c       ??_C@_0BM@HBDBAHKB@ecma_new_strings_collection?$AA@ 0043a31c     ecma-helpers-values-collection.obj
 0002:00002638       ??_C@_0DC@JPFJOMGI@string_ptrs_buffer?5?$CB?$DN?5NULL?5?$HM?$HM?5st@ 0043a338     ecma-helpers-values-collection.obj
 0002:0000266c       ??_C@_0BO@FGDJIAPE@ecma_collection_iterator_next?$AA@ 0043a36c     ecma-helpers-values-collection.obj
 0002:0000268c       ??_C@_0BP@DHPAGCLG@iterator_p?9?$DOcurrent_index?5?$DN?$DN?50?$AA@ 0043a38c     ecma-helpers-values-collection.obj
 0002:000026b0       ??_C@_0EC@BMPLGBHL@iterator_p?9?$DOcurrent_index?5?$CL?51?5?$DM?5@ 0043a3b0     ecma-helpers-values-collection.obj
 0002:000026f4       ??_C@_0BF@DBOINNDP@next_chunk_p?5?$CB?$DN?5NULL?$AA@ 0043a3f4     ecma-helpers-values-collection.obj
 0002:0000270c       ??_C@_0DO@BPEABACD@iterator_p?9?$DOcurrent_value_p?5?$DM?5it@ 0043a40c     ecma-helpers-values-collection.obj
 0002:0000274c       ??_C@_0BL@EDIAKGGD@ecma_create_object_lex_env?$AA@ 0043a44c     ecma-helpers.obj
 0002:00002768       ??_C@_0BJ@EHEKCBGM@ecma?2base?2ecma?9helpers?4c?$AA@ 0043a468     ecma-helpers.obj
 0002:00002788       ??_C@_0EG@OADGBFJF@binding_obj_p?5?$CB?$DN?5NULL?5?$CG?$CG?5?$CBecma_i@ 0043a488     ecma-helpers.obj
 0002:000027d0       ??_C@_0BM@IOOMKIID@ecma_is_lexical_environment?$AA@ 0043a4d0     ecma-helpers.obj
 0002:000027ec       ??_C@_0BL@HPBPCAFJ@ecma_get_object_extensible?$AA@ 0043a4ec     ecma-helpers.obj
 0002:00002808       ??_C@_0CI@NFIDOJPH@?$CBecma_is_lexical_environment?5?$CIob@ 0043a508     ecma-helpers.obj
 0002:00002830       ??_C@_0BL@IKEJPJBI@ecma_set_object_extensible?$AA@ 0043a530     ecma-helpers.obj
 0002:0000284c       ??_C@_0BF@PAFLIPK@ecma_get_object_type?$AA@ 0043a54c     ecma-helpers.obj
 0002:00002868       ??_C@_0EI@OBBOOFIK@?$CB?$CIobject_p?9?$DOtype_flags_refs?5?$CG?5EC@ 0043a568     ecma-helpers.obj
 0002:000028b0       ??_C@_0BK@BLCBJJND@ecma_get_object_prototype?$AA@ 0043a5b0     ecma-helpers.obj
 0002:000028cc       ??_C@_0BL@BILNCJNE@ecma_get_object_is_builtin?$AA@ 0043a5cc     ecma-helpers.obj
 0002:000028e8       ??_C@_0BL@ONOLPAJF@ecma_set_object_is_builtin?$AA@ 0043a5e8     ecma-helpers.obj
 0002:00002908       ??_C@_0FK@EPABIFIC@?$CIobject_p?9?$DOtype_flags_refs?5?$CG?5ECM@ 0043a608     ecma-helpers.obj
 0002:00002964       ??_C@_0BG@DDKOFMJB@ecma_get_lex_env_type?$AA@ 0043a664     ecma-helpers.obj
 0002:0000297c       ??_C@_0CH@CBGGLDJM@ecma_is_lexical_environment?5?$CIobj@ 0043a67c     ecma-helpers.obj
 0002:000029a4       ??_C@_0CB@OKJPCFIL@ecma_get_lex_env_outer_reference@ 0043a6a4     ecma-helpers.obj
 0002:000029c8       ??_C@_0BH@HANCFDLD@ecma_get_property_list?$AA@ 0043a6c8     ecma-helpers.obj
 0002:000029e0       ??_C@_0HE@GFFBIPO@?$CBecma_is_lexical_environment?5?$CIob@ 0043a6e0     ecma-helpers.obj
 0002:00002a54       ??_C@_0BO@LDJHECLN@ecma_get_lex_env_provide_this?$AA@ 0043a754     ecma-helpers.obj
 0002:00002a78       ??_C@_0JM@IIBJLHGL@ecma_get_lex_env_type?5?$CIobject_p?$CJ@ 0043a778     ecma-helpers.obj
 0002:00002b14       ??_C@_0CA@PPOECIGC@ecma_get_lex_env_binding_object?$AA@ 0043a814     ecma-helpers.obj
 0002:00002b34       ??_C@_0BF@HGIEMIEO@ecma_create_property?$AA@ 0043a834     ecma-helpers.obj
 0002:00002b4c       ??_C@_0DC@MIEAJDKG@ECMA_PROPERTY_IS_PROPERTY_PAIR?5?$CI@ 0043a84c     ecma-helpers.obj
 0002:00002b80       ??_C@_0EK@MEOBEBM@ECMA_PROPERTY_VALUE_PTR?5?$CIpropert@ 0043a880     ecma-helpers.obj
 0002:00002bd0       ??_C@_0EK@BFFFCFFN@ECMA_PROPERTY_VALUE_PTR?5?$CIpropert@ 0043a8d0     ecma-helpers.obj
 0002:00002c1c       ??_C@_0BM@NPMNMLKN@ecma_find_internal_property?$AA@ 0043a91c     ecma-helpers.obj
 0002:00002c38       ??_C@_0CA@OICGLKPJ@ecma_create_named_data_property?$AA@ 0043a938     ecma-helpers.obj
 0002:00002c58       ??_C@_0CD@ILHALEFN@object_p?5?$CB?$DN?5NULL?5?$CG?$CG?5name_p?5?$CB?$DN?5NU@ 0043a958     ecma-helpers.obj
 0002:00002c7c       ??_C@_0DE@ICKCDNIH@ecma_find_named_property?5?$CIobject@ 0043a97c     ecma-helpers.obj
 0002:00002cb0       ??_C@_0EJ@GFMFHDGN@?$CIprop_attributes?5?$CG?5?$HOECMA_PROPERT@ 0043a9b0     ecma-helpers.obj
 0002:00002cfc       ??_C@_0CE@HFHECNEO@ecma_create_named_accessor_prope@ 0043a9fc     ecma-helpers.obj
 0002:00002d20       ??_C@_0EA@NGBOKDCI@?$CIprop_attributes?5?$CG?5?$HOECMA_PROPERT@ 0043aa20     ecma-helpers.obj
 0002:00002d60       ??_C@_0BJ@OFFJHIHE@ecma_find_named_property?$AA@ 0043aa60     ecma-helpers.obj
 0002:00002d7c       ??_C@_0O@CKBLGDL@obj_p?5?$CB?$DN?5NULL?$AA@ 0043aa7c     ecma-helpers.obj
 0002:00002d8c       ??_C@_0P@DFPLIOEJ@name_p?5?$CB?$DN?5NULL?$AA@ 0043aa8c     ecma-helpers.obj
 0002:00002d9c       ??_C@_0BN@LFFAEMNB@ecma_get_named_data_property?$AA@ 0043aa9c     ecma-helpers.obj
 0002:00002dc0       ??_C@_0FL@NALEGIIJ@property_p?5?$CB?$DN?5NULL?5?$CG?$CG?5ECMA_PROPE@ 0043aac0     ecma-helpers.obj
 0002:00002e1c       ??_C@_0BM@MNIKLKHP@ecma_free_internal_property?$AA@ 0043ab1c     ecma-helpers.obj
 0002:00002e38       ??_C@_0FJ@KNEDDCPJ@property_p?5?$CB?$DN?5NULL?5?$CG?$CG?5ECMA_PROPE@ 0043ab38     ecma-helpers.obj
 0002:00002e94       ??_C@_0BD@HDOOPMJK@ecma_free_property?$AA@ 0043ab94     ecma-helpers.obj
 0002:00002ea8       ??_C@_0CH@BKNNABHN@object_p?5?$CB?$DN?5NULL?5?$CG?$CG?5property_p?5?$CB@ 0043aba8     ecma-helpers.obj
 0002:00002ed0       ??_C@_0ED@GFGJAJMD@ECMA_PROPERTY_GET_TYPE?5?$CI?$CKpropert@ 0043abd0     ecma-helpers.obj
 0002:00002f14       ??_C@_0BN@IENKFAAP@name_cp?5?$DN?$DN?5ECMA_NULL_POINTER?$AA@ 0043ac14     ecma-helpers.obj
 0002:00002f34       ??_C@_0BF@DKPBDFLI@ecma_delete_property?$AA@ 0043ac34     ecma-helpers.obj
 0002:00002f4c       ??_C@_0BD@GMHGONDL@cur_prop_p?5?$CB?$DN?5NULL?$AA@ 0043ac4c     ecma-helpers.obj
 0002:00002f60       ??_C@_0CM@LDEFKFAP@ECMA_PROPERTY_IS_PROPERTY_PAIR?5?$CI@ 0043ac60     ecma-helpers.obj
 0002:00002f90       ??_C@_0EM@FOHHDPAP@ECMA_PROPERTY_GET_TYPE?5?$CIcur_prop@ 0043ac90     ecma-helpers.obj
 0002:00002fdc       ??_C@_0DD@EFIAJCPL@cur_prop_p?9?$DOtypes?$FLi?$FN?5?$DN?$DN?5ECMA_PRO@ 0043acdc     ecma-helpers.obj
 0002:00003010       ??_C@_0BN@EJLHMPEM@ecma_delete_array_properties?$AA@ 0043ad10     ecma-helpers.obj
 0002:00003030       ??_C@_0BI@CCEGJGMK@new_length?5?$DM?5old_length?$AA@ 0043ad30     ecma-helpers.obj
 0002:00003048       ??_C@_0DA@KHGIGIP@ECMA_PROPERTY_IS_PROPERTY_PAIR?5?$CI@ 0043ad48     ecma-helpers.obj
 0002:00003078       ??_C@_0CF@PPJOJHLF@index?5?$CB?$DN?5ECMA_STRING_NOT_ARRAY_I@ 0043ad78     ecma-helpers.obj
 0002:000030a0       ??_C@_0DH@CFFONBEA@current_prop_p?9?$DOtypes?$FLi?$FN?5?$DN?$DN?5ECMA@ 0043ada0     ecma-helpers.obj
 0002:000030d8       ??_C@_0CJ@JLGHGOFD@ecma_assert_object_contains_the_@ 0043add8     ecma-helpers.obj
 0002:00003104       ??_C@_0BE@EGGFGNMM@prop_iter_p?5?$CB?$DN?5NULL?$AA@ 0043ae04     ecma-helpers.obj
 0002:00003118       ??_C@_0DO@NICBIMGP@ECMA_PROPERTY_GET_TYPE?5?$CIprop_pai@ 0043ae18     ecma-helpers.obj
 0002:00003158       ??_C@_0BK@OFHCFGJB@ecma_is_property_writable?$AA@ 0043ae58     ecma-helpers.obj
 0002:00003178       ??_C@_0IF@IELMIGNK@ECMA_PROPERTY_GET_TYPE?5?$CIproperty@ 0043ae78     ecma-helpers.obj
 0002:00003200       ??_C@_0CA@NPDMNEJD@ecma_set_property_writable_attr?$AA@ 0043af00     ecma-helpers.obj
 0002:00003220       ??_C@_0EF@EEBGJHPO@ECMA_PROPERTY_GET_TYPE?5?$CI?$CKpropert@ 0043af20     ecma-helpers.obj
 0002:00003268       ??_C@_0BM@MDMDFKMH@ecma_is_property_enumerable?$AA@ 0043af68     ecma-helpers.obj
 0002:00003288       ??_C@_0MO@MOINEMME@ECMA_PROPERTY_GET_TYPE?5?$CIproperty@ 0043af88     ecma-helpers.obj
 0002:00003358       ??_C@_0CC@KJIEDMGO@ecma_set_property_enumerable_att@ 0043b058     ecma-helpers.obj
 0002:00003380       ??_C@_0JB@IKFEHLCP@ECMA_PROPERTY_GET_TYPE?5?$CI?$CKpropert@ 0043b080     ecma-helpers.obj
 0002:00003414       ??_C@_0BO@DPFKDGNJ@ecma_is_property_configurable?$AA@ 0043b114     ecma-helpers.obj
 0002:00003434       ??_C@_0CE@NNJFDOEK@ecma_set_property_configurable_a@ 0043b134     ecma-helpers.obj
 0002:00003458       ??_C@_0BJ@PEEFKJOF@ecma_is_property_lcached?$AA@ 0043b158     ecma-helpers.obj
 0002:00003474       ??_C@_0BK@OOPPCEMJ@ecma_set_property_lcached?$AA@ 0043b174     ecma-helpers.obj
 0002:00003490       ??_C@_0BE@CFCKIJFB@ecma_bytecode_deref?$AA@ 0043b190     ecma-helpers.obj
 0002:000034a4       ??_C@_0BF@OPCFEHCO@bytecode_p?9?$DOrefs?5?$DO?50?$AA@ 0043b1a4     ecma-helpers.obj
 0002:000034bc       ??_C@_0BN@IPDPHJKG@ecma_lcache_invalidate_entry?$AA@ 0043b1bc     ecma-lcache.obj
 0002:000034dc       ??_C@_0BI@EHKOENEO@ecma?2base?2ecma?9lcache?4c?$AA@ 0043b1dc     ecma-lcache.obj
 0002:000034f4       ??_C@_0BA@DFPPBHPJ@entry_p?5?$CB?$DN?5NULL?$AA@ 0043b1f4     ecma-lcache.obj
 0002:00003504       ??_C@_0CI@FADDHOKB@entry_p?9?$DOobject_cp?5?$CB?$DN?5ECMA_NULL_@ 0043b204     ecma-lcache.obj
 0002:0000352c       ??_C@_0BI@KJHDHPNC@entry_p?9?$DOprop_p?5?$CB?$DN?5NULL?$AA@ 0043b22c     ecma-lcache.obj
 0002:00003544       ??_C@_0BD@OELBBILA@ecma_lcache_insert?$AA@ 0043b244     ecma-lcache.obj
 0002:00003558       ??_C@_0DF@MAELBGIB@prop_p?5?$CB?$DN?5NULL?5?$CG?$CG?5?$CBecma_is_prope@ 0043b258     ecma-lcache.obj
 0002:00003590       ??_C@_0IJ@ENBLBKFD@ECMA_PROPERTY_GET_TYPE?5?$CI?$CKprop_p?$CJ@ 0043b290     ecma-lcache.obj
 0002:0000361c       ??_C@_0BD@FJDJDKID@ecma_lcache_lookup?$AA@ 0043b31c     ecma-lcache.obj
 0002:00003630       ??_C@_0BE@BNPGOHMJ@prop_name_p?5?$CB?$DN?5NULL?$AA@ 0043b330     ecma-lcache.obj
 0002:00003644       ??_C@_0DE@FJICHIMA@prop_p?5?$CB?$DN?5NULL?5?$CG?$CG?5ecma_is_proper@ 0043b344     ecma-lcache.obj
 0002:00003678       ??_C@_0BH@LHNAKGCM@ecma_lcache_invalidate?$AA@ 0043b378     ecma-lcache.obj
 0002:00003690       ??_C@_0CA@JMMPPNID@entry_p?9?$DOobject_cp?5?$DN?$DN?5object_cp?$AA@ 0043b390     ecma-lcache.obj
 0002:000036b0       ??_C@_0BG@LEAKCKBA@ecma_free_string_list?$AA@ 0043b3b0     ecma-literal-storage.obj
 0002:000036c8       ??_C@_0CB@FLLPBOMA@ecma?2base?2ecma?9literal?9storage?4c@ 0043b3c8     ecma-literal-storage.obj
 0002:000036ec       ??_C@_0CM@BHBBILGM@ECMA_STRING_IS_REF_EQUALS_TO_ONE@ 0043b3ec     ecma-literal-storage.obj
 0002:00003718       ??_C@_0CD@BLNLHKBD@ecma_find_or_create_literal_numb@ 0043b418     ecma-literal-storage.obj
 0002:00003740       ??_C@_0EC@OCCJMPK@ECMA_STRING_GET_CONTAINER?5?$CIvalue@ 0043b440     ecma-literal-storage.obj
 0002:0000378c       ??_C@_0BN@DNBJMGAA@ecma_property_hashmap_create?$AA@ 0043b48c     ecma-property-hashmap.obj
 0002:000037ac       ??_C@_0CC@FOFNFICH@ecma?2base?2ecma?9property?9hashmap?4@ 0043b4ac     ecma-property-hashmap.obj
 0002:000037d0       ??_C@_0CK@HIAKOFEE@ecma_get_property_list?5?$CIobject_p@ 0043b4d0     ecma-property-hashmap.obj
 0002:00003800       ??_C@_0ED@HPBCEMEG@ECMA_PROPERTY_IS_PROPERTY_PAIR?5?$CI@ 0043b500     ecma-property-hashmap.obj
 0002:00003844       ??_C@_0BE@DEMLADGE@entry_index?5?$DM?$DN?5mask?$AA@ 0043b544     ecma-property-hashmap.obj
 0002:00003858       ??_C@_0CB@CMPHHPL@entry_index?5?$CB?$DN?5start_entry_index@ 0043b558     ecma-property-hashmap.obj
 0002:0000387c       ??_C@_0BL@MJCODBAK@ecma_property_hashmap_free?$AA@ 0043b57c     ecma-property-hashmap.obj
 0002:00003898       ??_C@_0EJ@PLBKMMBB@property_p?5?$CB?$DN?5NULL?5?$CG?$CG?5property_p@ 0043b598     ecma-property-hashmap.obj
 0002:000038e4       ??_C@_0BN@NKOLPBHJ@ecma_property_hashmap_insert?$AA@ 0043b5e4     ecma-property-hashmap.obj
 0002:00003904       ??_C@_0DJ@KHAFBGIG@hashmap_p?9?$DOheader?4types?$FL0?$FN?5?$DN?$DN?5EC@ 0043b604     ecma-property-hashmap.obj
 0002:00003940       ??_C@_0CP@HCIAIEPO@property_index?5?$DM?5ECMA_PROPERTY_P@ 0043b640     ecma-property-hashmap.obj
 0002:00003970       ??_C@_0BK@BBCMHALL@hashmap_p?9?$DOnull_count?5?$DO?50?$AA@ 0043b670     ecma-property-hashmap.obj
 0002:0000398c       ??_C@_0BN@GEBPDPIL@ecma_property_hashmap_delete?$AA@ 0043b68c     ecma-property-hashmap.obj
 0002:000039ac       ??_C@_0CN@CFCHFCPM@property_pair_p?9?$DOnames_cp?$FLoffset@ 0043b6ac     ecma-property-hashmap.obj
 0002:000039dc       ??_C@_0DE@OKOCGPIJ@ECMA_PROPERTY_HASHMAP_GET_BIT?5?$CIb@ 0043b6dc     ecma-property-hashmap.obj
 0002:00003a10       ??_C@_0BL@FLHIDPDE@ecma_property_hashmap_find?$AA@ 0043b710     ecma-property-hashmap.obj
 0002:00003a2c       ??_C@_0CO@HOFFHCNG@ECMA_PROPERTY_IS_NAMED_PROPERTY?5@ 0043b72c     ecma-property-hashmap.obj
 0002:00003a5c       ??_C@_0P@OKLMCFNM@property_found?$AA@ 0043b75c     ecma-property-hashmap.obj
 0002:00003a6c       ??_C@_0BA@GIIDIHIC@?$CBproperty_found?$AA@ 0043b76c     ecma-property-hashmap.obj
 0002:00003a80       _ecma_builtin_array_prototype_property_descriptor_list 0043b780     ecma-builtin-array-prototype.obj
 0002:00003b10       ??_C@_0CO@CCHIPHJI@ecma_builtin_array_prototype_dis@ 0043b810     ecma-builtin-array-prototype.obj
 0002:00003b40       ??_C@_0HI@JKGPANEL@c?3?2hellox?2personal?2hellox_os?2jer@ 0043b840     ecma-builtin-array-prototype.obj
 0002:00003bb8       ??_C@_0CO@PIIABKIA@ecma_builtin_array_prototype_obj@ 0043b8b8     ecma-builtin-array-prototype.obj
 0002:00003be8       ??_C@_0DE@FDLAJLLI@ecma?2builtin?9objects?2ecma?9builti@ 0043b8e8     ecma-builtin-array-prototype.obj
 0002:00003c1c       ??_C@_0DO@PMNDDFLN@ret_value?5?$DN?$DN?5ecma_make_simple_va@ 0043b91c     ecma-builtin-array-prototype.obj
 0002:00003c5c       ??_C@_0DF@NAAGBIDM@ecma_builtin_array_prototype_obj@ 0043b95c     ecma-builtin-array-prototype.obj
 0002:00003c94       ??_C@_0CD@EDOGEAGC@ecma_number_is_nan?5?$CIlength_numbe@ 0043b994     ecma-builtin-array-prototype.obj
 0002:00003cb8       ??_C@_0CL@DDCKONKN@ecma_builtin_array_prototype_obj@ 0043b9b8     ecma-builtin-array-prototype.obj
 0002:00003ce4       ??_C@_0CF@IMLMFDIL@ecma_op_array_get_to_string_at_i@ 0043b9e4     ecma-builtin-array-prototype.obj
 0002:00003d0c       ??_C@_0CC@HALPHLII@ecma_builtin_array_prototype_joi@ 0043ba0c     ecma-builtin-array-prototype.obj
 0002:00003d30       ??_C@_0CI@BKGKGCFE@ecma_builtin_array_prototype_obj@ 0043ba30     ecma-builtin-array-prototype.obj
 0002:00003d58       ??_C@_0CA@BAPCJIN@ecma_number_is_nan?5?$CIlen_number?$CJ?$AA@ 0043ba58     ecma-builtin-array-prototype.obj
 0002:00003d78       ??_C@_0CJ@PMNKBHIC@ecma_builtin_array_prototype_obj@ 0043ba78     ecma-builtin-array-prototype.obj
 0002:00003da4       ??_C@_0CA@CMCEJLBJ@ecma_number_is_nan?5?$CIlength_var?$CJ?$AA@ 0043baa4     ecma-builtin-array-prototype.obj
 0002:00003dc4       ??_C@_0CM@IDJJJPAD@ecma_builtin_array_prototype_obj@ 0043bac4     ecma-builtin-array-prototype.obj
 0002:00003df0       ??_C@_0CK@GDMHDPIF@ecma_builtin_array_prototype_obj@ 0043baf0     ecma-builtin-array-prototype.obj
 0002:00003e1c       ??_C@_0CK@MDFFHILO@ecma_builtin_array_prototype_obj@ 0043bb1c     ecma-builtin-array-prototype.obj
 0002:00003e48       ??_C@_0BN@KDEEKOKA@ecma_number_is_nan?5?$CIend_num?$CJ?$AA@ 0043bb48     ecma-builtin-array-prototype.obj
 0002:00003e68       ??_C@_0BP@GGOJFEKB@ecma_number_is_nan?5?$CIstart_num?$CJ?$AA@ 0043bb68     ecma-builtin-array-prototype.obj
 0002:00003e88       ??_C@_0BL@BFDBFDMG@start?5?$DM?$DN?5len?5?$CG?$CG?5end?5?$DM?$DN?5len?$AA@ 0043bb88     ecma-builtin-array-prototype.obj
 0002:00003ea4       ??_C@_0BO@FCLDLIEH@ecma_is_value_true?5?$CIput_comp?$CJ?$AA@ 0043bba4     ecma-builtin-array-prototype.obj
 0002:00003ec4       ??_C@_0DI@EEBDCHDN@ecma_builtin_array_prototype_obj@ 0043bbc4     ecma-builtin-array-prototype.obj
 0002:00003efc       ??_C@_0CA@CIGAKMIN@ecma_op_is_callable?5?$CIcomparefn?$CJ?$AA@ 0043bbfc     ecma-builtin-array-prototype.obj
 0002:00003f1c       ??_C@_0BN@FBFBABIA@ecma_number_is_nan?5?$CIret_num?$CJ?$AA@ 0043bc1c     ecma-builtin-array-prototype.obj
 0002:00003f3c       ??_C@_0DJ@BKDJLDMH@ecma_builtin_array_prototype_obj@ 0043bc3c     ecma-builtin-array-prototype.obj
 0002:00003f78       ??_C@_0CL@LGDKCHEB@ecma_is_value_number?5?$CIchild_comp@ 0043bc78     ecma-builtin-array-prototype.obj
 0002:00003fa4       ??_C@_0P@KPFLEJBI@child?5?$DM?$DN?5right?$AA@ 0043bca4     ecma-builtin-array-prototype.obj
 0002:00003fb4       ??_C@_0CK@GPOEGDNB@ecma_is_value_number?5?$CIswap_compa@ 0043bcb4     ecma-builtin-array-prototype.obj
 0002:00003fe0       ??_C@_0BP@HNEACEID@parent?5?$DO?$DN?50?5?$CG?$CG?5parent?5?$DM?$DN?5right?$AA@ 0043bce0     ecma-builtin-array-prototype.obj
 0002:00004000       ??_C@_0DL@IDBPNINB@ecma_builtin_array_prototype_obj@ 0043bd00     ecma-builtin-array-prototype.obj
 0002:0000403c       ??_C@_0CJ@GDGLONMD@ecma_builtin_array_prototype_obj@ 0043bd3c     ecma-builtin-array-prototype.obj
 0002:00004068       ??_C@_0EF@GECDDNMM@copied_num?5?$DN?$DN?5defined_prop_count@ 0043bd68     ecma-builtin-array-prototype.obj
 0002:000040b0       ??_C@_0BK@EHOGLFAP@values_buffer___size?5?$CB?$DN?50?$AA@ 0043bdb0     ecma-builtin-array-prototype.obj
 0002:000040cc       ??_C@_0BK@OCPGMPIM@values_buffer___size?5?$DN?$DN?50?$AA@ 0043bdcc     ecma-builtin-array-prototype.obj
 0002:000040e8       ??_C@_0CL@ODFEIFFH@ecma_builtin_array_prototype_obj@ 0043bde8     ecma-builtin-array-prototype.obj
 0002:00004114       ??_C@_0CA@PJGNIMFK@ecma_number_is_nan?5?$CIdelete_num?$CJ?$AA@ 0043be14     ecma-builtin-array-prototype.obj
 0002:00004134       ??_C@_0CM@ONCKAFPH@ecma_builtin_array_prototype_obj@ 0043be34     ecma-builtin-array-prototype.obj
 0002:00004160       ??_C@_0CN@IEFAMEOI@ecma_builtin_array_prototype_obj@ 0043be60     ecma-builtin-array-prototype.obj
 0002:00004190       ??_C@_0CC@CJGIGLDP@ecma_number_is_nan?5?$CIarg_from_idx@ 0043be90     ecma-builtin-array-prototype.obj
 0002:000041b4       ??_C@_0DC@LPLFPIPJ@ecma_builtin_array_prototype_obj@ 0043beb4     ecma-builtin-array-prototype.obj
 0002:000041e8       ??_C@_0CK@INMPDNLJ@ecma_builtin_array_prototype_obj@ 0043bee8     ecma-builtin-array-prototype.obj
 0002:00004214       ??_C@_0CG@KBIGBOHA@?$CBECMA_IS_VALUE_ERROR?5?$CIto_object_@ 0043bf14     ecma-builtin-array-prototype.obj
 0002:0000423c       ??_C@_0CJ@CHMICKJO@ecma_builtin_array_prototype_obj@ 0043bf3c     ecma-builtin-array-prototype.obj
 0002:00004268       ??_C@_0CN@CJLBIOND@ecma_builtin_array_prototype_obj@ 0043bf68     ecma-builtin-array-prototype.obj
 0002:00004298       ??_C@_0CI@LCIHMABM@ecma_builtin_array_prototype_obj@ 0043bf98     ecma-builtin-array-prototype.obj
 0002:000042c0       ??_C@_0BM@LDGMNEOI@ecma_is_value_object?5?$CIarg1?$CJ?$AA@ 0043bfc0     ecma-builtin-array-prototype.obj
 0002:000042dc       ??_C@_0CB@GMGHNLKN@?$CBECMA_IS_VALUE_ERROR?5?$CInew_array?$CJ@ 0043bfdc     ecma-builtin-array-prototype.obj
 0002:00004300       ??_C@_0CL@FBBGBCAL@ecma_builtin_array_prototype_obj@ 0043c000     ecma-builtin-array-prototype.obj
 0002:0000432c       ??_C@_0CL@DMIHLOCN@ecma_builtin_array_prototype_obj@ 0043c02c     ecma-builtin-array-prototype.obj
 0002:00004358       ??_C@_0CC@LBKOFKFL@ecma_is_value_object?5?$CIcallbackfn@ 0043c058     ecma-builtin-array-prototype.obj
 0002:0000437c       ??_C@_0DB@OFAJPLJD@ecma_builtin_array_prototype_obj@ 0043c07c     ecma-builtin-array-prototype.obj
 0002:000043b0       __real@bff0000000000000    0043c0b0     ecma-builtin-array-prototype.obj
 0002:000043b8       _ecma_builtin_array_property_descriptor_list 0043c0b8     ecma-builtin-array.obj
 0002:000043d0       ??_C@_0CE@KIKIFJ@ecma_builtin_array_dispatch_rout@ 0043c0d0     ecma-builtin-array.obj
 0002:000043f4       ??_C@_0CB@CEBNEBAD@ecma_builtin_array_dispatch_call@ 0043c0f4     ecma-builtin-array.obj
 0002:00004418       ??_C@_0CK@IHIIJMAD@ecma?2builtin?9objects?2ecma?9builti@ 0043c118     ecma-builtin-array.obj
 0002:00004444       ??_C@_0DE@HNANGPKB@arguments_list_len?5?$DN?$DN?50?5?$HM?$HM?5argum@ 0043c144     ecma-builtin-array.obj
 0002:00004478       ??_C@_0CG@NEONMBJI@ecma_builtin_array_dispatch_cons@ 0043c178     ecma-builtin-array.obj
 0002:000044a0       _ecma_builtin_arraybuffer_prototype_property_descriptor_list 0043c1a0     ecma-builtin-arraybuffer-prototype.obj
 0002:000044b8       ??_C@_0DE@COGNCDEO@ecma_builtin_arraybuffer_prototy@ 0043c1b8     ecma-builtin-arraybuffer-prototype.obj
 0002:000044ec       ??_C@_0DA@LCNIBMJC@ecma_builtin_arraybuffer_prototy@ 0043c1ec     ecma-builtin-arraybuffer-prototype.obj
 0002:0000451c       ??_C@_0DK@NFBBGHB@ecma?2builtin?9objects?2ecma?9builti@ 0043c21c     ecma-builtin-arraybuffer-prototype.obj
 0002:00004558       _ecma_builtin_arraybuffer_property_descriptor_list 0043c258     ecma-builtin-arraybuffer.obj
 0002:00004570       ??_C@_0CK@NBHNJJOC@ecma_builtin_arraybuffer_dispatc@ 0043c270     ecma-builtin-arraybuffer.obj
 0002:0000459c       ??_C@_0CH@LAMLABGG@ecma_builtin_arraybuffer_dispatc@ 0043c29c     ecma-builtin-arraybuffer.obj
 0002:000045c4       ??_C@_0DA@GKLLFON@ecma?2builtin?9objects?2ecma?9builti@ 0043c2c4     ecma-builtin-arraybuffer.obj
 0002:000045f4       ??_C@_0CM@ICACGHAE@ecma_builtin_arraybuffer_dispatc@ 0043c2f4     ecma-builtin-arraybuffer.obj
 0002:00004620       _ecma_builtin_boolean_prototype_property_descriptor_list 0043c320     ecma-builtin-boolean-prototype.obj
 0002:00004638       ??_C@_0DA@LNENGFBH@ecma_builtin_boolean_prototype_d@ 0043c338     ecma-builtin-boolean-prototype.obj
 0002:00004668       ??_C@_0DA@GHLFIIAP@ecma_builtin_boolean_prototype_o@ 0043c368     ecma-builtin-boolean-prototype.obj
 0002:00004698       ??_C@_0DG@DAJCEENM@ecma?2builtin?9objects?2ecma?9builti@ 0043c398     ecma-builtin-boolean-prototype.obj
 0002:000046d0       ??_C@_0CF@DMHCGILL@ecma_is_value_boolean?5?$CIvalue_of_@ 0043c3d0     ecma-builtin-boolean-prototype.obj
 0002:000046f8       ??_C@_0CP@MDGGOGN@ecma_builtin_boolean_prototype_o@ 0043c3f8     ecma-builtin-boolean-prototype.obj
 0002:00004728       ??_C@_0DL@LGHPANFF@ecma_is_value_boolean?5?$CIext_objec@ 0043c428     ecma-builtin-boolean-prototype.obj
 0002:00004764       _ecma_builtin_boolean_property_descriptor_list 0043c464     ecma-builtin-boolean.obj
 0002:00004778       ??_C@_0CG@LJEKFDKI@ecma_builtin_boolean_dispatch_ro@ 0043c478     ecma-builtin-boolean.obj
 0002:000047a0       ??_C@_0CD@PJNJMFEN@ecma_builtin_boolean_dispatch_ca@ 0043c4a0     ecma-builtin-boolean.obj
 0002:000047c4       ??_C@_0CM@MCJLNGBA@ecma?2builtin?9objects?2ecma?9builti@ 0043c4c4     ecma-builtin-boolean.obj
 0002:000047f0       ??_C@_0CI@PDCFIDBC@ecma_builtin_boolean_dispatch_co@ 0043c4f0     ecma-builtin-boolean.obj
 0002:00004818       _ecma_builtin_date_prototype_property_descriptor_list 0043c518     ecma-builtin-date-prototype.obj
 0002:00004938       ??_C@_0CE@HMBNHEKA@ecma_builtin_date_prototype_to_j@ 0043c638     ecma-builtin-date-prototype.obj
 0002:0000495c       ??_C@_0DD@LDLDIMAL@ecma?2builtin?9objects?2ecma?9builti@ 0043c65c     ecma-builtin-date-prototype.obj
 0002:00004990       ??_C@_0CJ@NLFECIGL@ecma_builtin_date_prototype_disp@ 0043c690     ecma-builtin-date-prototype.obj
 0002:000049c0       ??_C@_0EC@OGNKAJHE@builtin_routine_id?5?$DN?$DN?5ECMA_DATE_@ 0043c6c0     ecma-builtin-date-prototype.obj
 0002:00004a04       ??_C@_0CJ@ECPOIKD@ecma_builtin_date_prototype_disp@ 0043c704     ecma-builtin-date-prototype.obj
 0002:00004a30       ??_C@_0GP@DFBPBGFG@builtin_routine_id?5?$DN?$DN?5ECMA_DATE_@ 0043c730     ecma-builtin-date-prototype.obj
 0002:00004aa0       ??_C@_0GN@KMIJBLJB@builtin_routine_id?5?$DN?$DN?5ECMA_DATE_@ 0043c7a0     ecma-builtin-date-prototype.obj
 0002:00004b10       ??_C@_0HN@PKPGAAIN@builtin_routine_id?5?$DN?$DN?5ECMA_DATE_@ 0043c810     ecma-builtin-date-prototype.obj
 0002:00004b90       ??_C@_0CN@FOGHMALM@ecma_builtin_date_prototype_disp@ 0043c890     ecma-builtin-date-prototype.obj
 0002:00004bc0       ??_C@_0BO@BHEKDGHC@ecma_number_is_nan?5?$CItime_num?$CJ?$AA@ 0043c8c0     ecma-builtin-date-prototype.obj
 0002:00004be0       ??_C@_0DI@BMFKMBBJ@builtin_routine_id?5?$DN?$DN?5ECMA_DATE_@ 0043c8e0     ecma-builtin-date-prototype.obj
 0002:00004c18       __real@4058c00000000000    0043c918     ecma-builtin-date-prototype.obj
 0002:00004c20       __real@409db00000000000    0043c920     ecma-builtin-date-prototype.obj
 0002:00004c28       _ecma_builtin_date_property_descriptor_list 0043c928     ecma-builtin-date.obj
 0002:00004c4c       ??_C@_0CD@HNIEKFAD@ecma_builtin_date_dispatch_routi@ 0043c94c     ecma-builtin-date.obj
 0002:00004c70       ??_C@_0BL@BEFMKOON@ecma_date_parse_date_chars?$AA@ 0043c970     ecma-builtin-date.obj
 0002:00004c8c       ??_C@_0CJ@KPPINFGL@ecma?2builtin?9objects?2ecma?9builti@ 0043c98c     ecma-builtin-date.obj
 0002:00004cb8       ??_C@_0BB@GKLODKDC@num_of_chars?5?$DO?50?$AA@ 0043c9b8     ecma-builtin-date.obj
 0002:00004ccc       ??_C@_0BL@EHMHOHJB@ecma_date_construct_helper?$AA@ 0043c9cc     ecma-builtin-date.obj
 0002:00004ce8       ??_C@_0BI@EMNFHDDL@ecma_builtin_date_parse?$AA@ 0043c9e8     ecma-builtin-date.obj
 0002:00004d00       ??_C@_0BF@FHJEBCBN@date_start_p?5?$CB?$DN?5NULL?$AA@ 0043ca00     ecma-builtin-date.obj
 0002:00004d18       ??_C@_0BG@LCAAKJOL@ecma_builtin_date_utc?$AA@ 0043ca18     ecma-builtin-date.obj
 0002:00004d30       ??_C@_0CA@JHEBFBHC@ecma_builtin_date_dispatch_call?$AA@ 0043ca30     ecma-builtin-date.obj
 0002:00004d50       ??_C@_0CF@OKAIHFNH@ecma_builtin_date_dispatch_const@ 0043ca50     ecma-builtin-date.obj
 0002:00004d78       ??_C@_0CA@POMJCONI@ECMA_IS_VALUE_ERROR?5?$CIret_value?$CJ?$AA@ 0043ca78     ecma-builtin-date.obj
 0002:00004d98       __real@4028000000000000    0043ca98     ecma-builtin-date.obj
 0002:00004da0       __real@4038000000000000    0043caa0     ecma-builtin-date.obj
 0002:00004da8       __real@403f000000000000    0043caa8     ecma-builtin-date.obj
 0002:00004db0       __real@404d800000000000    0043cab0     ecma-builtin-date.obj
 0002:00004db8       _ecma_builtin_error_prototype_property_descriptor_list 0043cab8     ecma-builtin-error-prototype.obj
 0002:00004dd8       ??_C@_0CO@EDFCEOKL@ecma_builtin_error_prototype_dis@ 0043cad8     ecma-builtin-error-prototype.obj
 0002:00004e08       ??_C@_0CO@JJKKKDLD@ecma_builtin_error_prototype_obj@ 0043cb08     ecma-builtin-error-prototype.obj
 0002:00004e38       ??_C@_0DE@PKFDGPCG@ecma?2builtin?9objects?2ecma?9builti@ 0043cb38     ecma-builtin-error-prototype.obj
 0002:00004e6c       ??_C@_0BD@JLDEPPGI@bytes?5?$DN?$DN?5name_size?$AA@ 0043cb6c     ecma-builtin-error-prototype.obj
 0002:00004e80       ??_C@_0CK@JBPJIGOI@ret_str_buffer_p?5?$DM?$DN?5ret_str_buff@ 0043cb80     ecma-builtin-error-prototype.obj
 0002:00004eac       ??_C@_0BC@IDMIFKEI@bytes?5?$DN?$DN?5msg_size?$AA@ 0043cbac     ecma-builtin-error-prototype.obj
 0002:00004ec0       ??_C@_0CK@DEHCBGOG@ret_str_buffer_p?5?$DN?$DN?5ret_str_buff@ 0043cbc0     ecma-builtin-error-prototype.obj
 0002:00004eec       ??_C@_0BL@CEBOIFPH@ret_str_buffer___size?5?$CB?$DN?50?$AA@ 0043cbec     ecma-builtin-error-prototype.obj
 0002:00004f08       ??_C@_0BL@IBAOPPHE@ret_str_buffer___size?5?$DN?$DN?50?$AA@ 0043cc08     ecma-builtin-error-prototype.obj
 0002:00004f24       _ecma_builtin_error_property_descriptor_list 0043cc24     ecma-builtin-error.obj
 0002:00004f38       ??_C@_0CE@LDPLNJIB@ecma_builtin_error_dispatch_rout@ 0043cc38     ecma-builtin-error.obj
 0002:00004f5c       _ecma_builtin_eval_error_prototype_property_descriptor_list 0043cc5c     ecma-builtin-evalerror-prototype.obj
 0002:00004f74       ??_C@_0DD@GBIAHHNI@ecma_builtin_eval_error_prototyp@ 0043cc74     ecma-builtin-evalerror-prototype.obj
 0002:00004fa8       _ecma_builtin_eval_error_property_descriptor_list 0043cca8     ecma-builtin-evalerror.obj
 0002:00004fbc       ??_C@_0CJ@BAMFEKOE@ecma_builtin_eval_error_dispatch@ 0043ccbc     ecma-builtin-evalerror.obj
 0002:00004fe8       _ecma_builtin_function_prototype_property_descriptor_list 0043cce8     ecma-builtin-function-prototype.obj
 0002:00005014       ??_C@_0DB@GPFIBALH@ecma_builtin_function_prototype_@ 0043cd14     ecma-builtin-function-prototype.obj
 0002:00005048       ??_C@_0CN@EGMFPPKJ@ecma_builtin_function_prototype_@ 0043cd48     ecma-builtin-function-prototype.obj
 0002:00005078       ??_C@_0DH@OPIPPJDL@ecma?2builtin?9objects?2ecma?9builti@ 0043cd78     ecma-builtin-function-prototype.obj
 0002:000050b0       ??_C@_0BF@INHCCDLN@last_index?5?$DN?$DN?5length?$AA@ 0043cdb0     ecma-builtin-function-prototype.obj
 0002:000050c8       ??_C@_0BN@HOMCLLIJ@arguments_list_p___size?5?$CB?$DN?50?$AA@ 0043cdc8     ecma-builtin-function-prototype.obj
 0002:000050e8       ??_C@_0BN@NLNCMBAK@arguments_list_p___size?5?$DN?$DN?50?$AA@ 0043cde8     ecma-builtin-function-prototype.obj
 0002:00005108       ??_C@_0CM@DBEIHPIA@ecma_builtin_function_prototype_@ 0043ce08     ecma-builtin-function-prototype.obj
 0002:00005134       ??_C@_0CF@FALCDDCN@?$CBECMA_IS_VALUE_ERROR?5?$CIget_len_va@ 0043ce34     ecma-builtin-function-prototype.obj
 0002:0000515c       ??_C@_0CF@LIJLIGGC@ecma_is_value_number?5?$CIget_len_va@ 0043ce5c     ecma-builtin-function-prototype.obj
 0002:00005184       ??_C@_0CD@EINJKBNB@ecma_is_value_boolean?5?$CIcompletio@ 0043ce84     ecma-builtin-function-prototype.obj
 0002:000051a8       ??_C@_0CO@PKNHPBJJ@ecma_builtin_function_prototype_@ 0043cea8     ecma-builtin-function-prototype.obj
 0002:000051d8       ??_C@_0DD@NBKKELLE@ecma_builtin_function_prototype_@ 0043ced8     ecma-builtin-function-prototype.obj
 0002:0000520c       _ecma_builtin_function_property_descriptor_list 0043cf0c     ecma-builtin-function.obj
 0002:00005220       ??_C@_0CH@GMOFEIBD@ecma_builtin_function_dispatch_r@ 0043cf20     ecma-builtin-function.obj
 0002:00005248       ??_C@_0CE@OGILONEH@ecma_builtin_function_dispatch_c@ 0043cf48     ecma-builtin-function.obj
 0002:0000526c       ??_C@_0CN@OOGHKNJD@ecma?2builtin?9objects?2ecma?9builti@ 0043cf6c     ecma-builtin-function.obj
 0002:0000529c       ??_C@_0DF@FDBFCDEC@ecma_builtin_function_helper_get@ 0043cf9c     ecma-builtin-function.obj
 0002:000052d4       ??_C@_0CJ@HOHBOICC@ecma_builtin_function_dispatch_c@ 0043cfd4     ecma-builtin-function.obj
 0002:00005330       _ecma_builtin_global_property_descriptor_list 0043d030     ecma-builtin-global.obj
 0002:000053fc       ??_C@_0CF@BENBEJGC@ecma_builtin_global_dispatch_rou@ 0043d0fc     ecma-builtin-global.obj
 0002:00005424       ??_C@_0CB@ELDDIPDJ@ecma_builtin_global_object_print@ 0043d124     ecma-builtin-global.obj
 0002:00005448       ??_C@_0CL@FECHGGBH@ecma?2builtin?9objects?2ecma?9builti@ 0043d148     ecma-builtin-global.obj
 0002:00005474       ??_C@_06HHCOKMHE@?2u0000?$AA@ 0043d174     ecma-builtin-global.obj
 0002:0000547c       ??_C@_02HAOIJKIC@?$CFc?$AA@ 0043d17c     ecma-builtin-global.obj
 0002:00005480       ??_C@_0L@FKJJHKLP@?2u?$CF02x?$CF02x?$AA@ 0043d180     ecma-builtin-global.obj
 0002:0000548c       ??_C@_01CLKCMJKC@?5?$AA@   0043d18c     ecma-builtin-global.obj
 0002:00005490       ??_C@_01EEMJAFIK@?6?$AA@   0043d190     ecma-builtin-global.obj
 0002:00005494       ??_C@_0CF@PNEHNDAM@ecma_builtin_global_object_parse@ 0043d194     ecma-builtin-global.obj
 0002:000054bc       ??_C@_0BP@MKAGMDIL@ecma_number_is_nan?5?$CIradix_num?$CJ?$AA@ 0043d1bc     ecma-builtin-global.obj
 0002:000054dc       ??_C@_0BE@JPNMEBJF@string_buff?5?$CB?$DN?5NULL?$AA@ 0043d1dc     ecma-builtin-global.obj
 0002:000054f0       ??_C@_0CH@LNKHBNOL@ecma_builtin_global_object_parse@ 0043d1f0     ecma-builtin-global.obj
 0002:00005518       ??_C@_0CC@KJKGNLKL@ecma_builtin_global_object_is_na@ 0043d218     ecma-builtin-global.obj
 0002:0000553c       ??_C@_0BN@OEFEMBFF@ecma_number_is_nan?5?$CIarg_num?$CJ?$AA@ 0043d23c     ecma-builtin-global.obj
 0002:0000555c       ??_C@_0CF@FKLEIDMM@ecma_builtin_global_object_is_fi@ 0043d25c     ecma-builtin-global.obj
 0002:00005584       ??_C@_0CL@KAIOJDMD@ecma_builtin_global_object_chara@ 0043d284     ecma-builtin-global.obj
 0002:000055b0       ??_C@_0BA@DNMBMHBO@character?5?$DM?5128?$AA@ 0043d2b0     ecma-builtin-global.obj
 0002:000055c0       ??_C@_0CN@FDBMDPBI@ecma_builtin_global_object_decod@ 0043d2c0     ecma-builtin-global.obj
 0002:000055f0       ??_C@_0BO@FPEFHEKP@ecma_is_value_string?5?$CIstring?$CJ?$AA@ 0043d2f0     ecma-builtin-global.obj
 0002:00005610       ??_C@_0CO@LHBBDENL@output_start_p?5?$CL?5output_size?5?$DN?$DN?5@ 0043d310     ecma-builtin-global.obj
 0002:00005640       ??_C@_0BL@PPCAJENE@output_start_p___size?5?$CB?$DN?50?$AA@ 0043d340     ecma-builtin-global.obj
 0002:0000565c       ??_C@_0BL@FKDAOOFH@output_start_p___size?5?$DN?$DN?50?$AA@ 0043d35c     ecma-builtin-global.obj
 0002:00005678       ??_C@_0BK@HFDOGHHI@input_start_p___size?5?$CB?$DN?50?$AA@ 0043d378     ecma-builtin-global.obj
 0002:00005694       ??_C@_0BK@NACOBNPL@input_start_p___size?5?$DN?$DN?50?$AA@ 0043d394     ecma-builtin-global.obj
 0002:000056b0       ??_C@_0CH@LFCHGOJO@ecma_builtin_global_object_byte_@ 0043d3b0     ecma-builtin-global.obj
 0002:000056d8       ??_C@_0L@CPICKENE@byte?5?$DM?5256?$AA@ 0043d3d8     ecma-builtin-global.obj
 0002:000056e4       ??_C@_0CN@JMEJNOD@ecma_builtin_global_object_encod@ 0043d3e4     ecma-builtin-global.obj
 0002:00005714       ??_C@_0DA@NGHIDGKE@output_start_p?5?$CL?5output_length?5?$DN@ 0043d414     ecma-builtin-global.obj
 0002:00005744       ??_C@_0CC@KMKEOEIC@ecma_builtin_global_object_escap@ 0043d444     ecma-builtin-global.obj
 0002:00005768       ??_C@_0CE@CMDLANJK@ecma_builtin_global_object_unesc@ 0043d468     ecma-builtin-global.obj
 0002:0000578c       ??_C@_0BO@OPOFFHLJ@output_char_p?5?$DM?$DN?5input_curr_p?$AA@ 0043d48c     ecma-builtin-global.obj
 0002:000057b0       __real@4048000000000000    0043d4b0     ecma-builtin-global.obj
 0002:000057b8       __real@4050400000000000    0043d4b8     ecma-builtin-global.obj
 0002:000057c0       __real@4058400000000000    0043d4c0     ecma-builtin-global.obj
 0002:000057c8       ??_C@_0BK@NMBINAEJ@ecma_date_month_from_time?$AA@ 0043d4c8     ecma-builtin-helpers-date.obj
 0002:000057e4       ??_C@_0DB@PIKJAML@ecma?2builtin?9objects?2ecma?9builti@ 0043d4e4     ecma-builtin-helpers-date.obj
 0002:00005818       ??_C@_0DN@JJPJHOHP@day_within_year?5?$DO?$DN?50?5?$CG?$CG?5day_with@ 0043d518     ecma-builtin-helpers-date.obj
 0002:00005858       ??_C@_0BJ@NBLDPEJP@ecma_date_date_from_time?$AA@ 0043d558     ecma-builtin-helpers-date.obj
 0002:00005874       ??_C@_0DH@DIHFAOJG@?$CBecma_number_is_nan?5?$CIecma_date_m@ 0043d574     ecma-builtin-helpers-date.obj
 0002:000058ac       ??_C@_03KOEHGMDN@Sun?$AA@  0043d5ac     ecma-builtin-helpers-date.obj
 0002:000058b0       ??_C@_03PDAGKDH@Mon?$AA@   0043d5b0     ecma-builtin-helpers-date.obj
 0002:000058b4       ??_C@_03NAGEINEP@Tue?$AA@  0043d5b4     ecma-builtin-helpers-date.obj
 0002:000058b8       ??_C@_03MHOMLAJA@Wed?$AA@  0043d5b8     ecma-builtin-helpers-date.obj
 0002:000058bc       ??_C@_03IOFIKPDN@Thu?$AA@  0043d5bc     ecma-builtin-helpers-date.obj
 0002:000058c0       ??_C@_03IDIOELNC@Fri?$AA@  0043d5c0     ecma-builtin-helpers-date.obj
 0002:000058c4       ??_C@_03FEFJNEK@Sat?$AA@   0043d5c4     ecma-builtin-helpers-date.obj
 0002:000058c8       ??_C@_03JMFMNIFM@?9?9?9?$AA@ 0043d5c8     ecma-builtin-helpers-date.obj
 0002:000058cc       ??_C@_03JIHJHPIE@Jan?$AA@  0043d5cc     ecma-builtin-helpers-date.obj
 0002:000058d0       ??_C@_03HJBDCHOM@Feb?$AA@  0043d5d0     ecma-builtin-helpers-date.obj
 0002:000058d4       ??_C@_03ODNJBKGA@Mar?$AA@  0043d5d4     ecma-builtin-helpers-date.obj
 0002:000058d8       ??_C@_03LEOLGMJP@Apr?$AA@  0043d5d8     ecma-builtin-helpers-date.obj
 0002:000058dc       ??_C@_03CNMDKL@May?$AA@    0043d5dc     ecma-builtin-helpers-date.obj
 0002:000058e0       ??_C@_03IDFGHECI@Jun?$AA@  0043d5e0     ecma-builtin-helpers-date.obj
 0002:000058e4       ??_C@_03LBGABGKK@Jul?$AA@  0043d5e4     ecma-builtin-helpers-date.obj
 0002:000058e8       ??_C@_03IFJFEIGA@Aug?$AA@  0043d5e8     ecma-builtin-helpers-date.obj
 0002:000058ec       ??_C@_03GGCAPAJC@Sep?$AA@  0043d5ec     ecma-builtin-helpers-date.obj
 0002:000058f0       ??_C@_03BMAOKBAD@Oct?$AA@  0043d5f0     ecma-builtin-helpers-date.obj
 0002:000058f4       ??_C@_03JPJOFNIA@Nov?$AA@  0043d5f4     ecma-builtin-helpers-date.obj
 0002:000058f8       ??_C@_03MKABNOCG@Dec?$AA@  0043d5f8     ecma-builtin-helpers-date.obj
 0002:000058fc       ??_C@_04FIEKMBKB@?5GMT?$AA@ 0043d5fc     ecma-builtin-helpers-date.obj
 0002:00005904       ??_C@_0BK@DBGDFNEK@ecma_date_value_to_string?$AA@ 0043d604     ecma-builtin-helpers-date.obj
 0002:00005920       ??_C@_0CN@CIHIJFNC@Failed?5to?5allocate?5dynamic?5array@ 0043d620     ecma-builtin-helpers-date.obj
 0002:00005950       ??_C@_0DP@LAEFIMDP@?$CIuint32_t?$CJ?5?$CIdest_p?5?9?5character_b@ 0043d650     ecma-builtin-helpers-date.obj
 0002:00005990       ??_C@_0CP@FFCNFPGP@BUG?3?5NULL?5pointer?5of?5dynamic?5arr@ 0043d690     ecma-builtin-helpers-date.obj
 0002:000059c0       ??_C@_0BO@LBONGGDI@ecma_date_value_to_utc_string?$AA@ 0043d6c0     ecma-builtin-helpers-date.obj
 0002:000059e0       ??_C@_0BO@BBOJNIFJ@ecma_date_value_to_iso_string?$AA@ 0043d6e0     ecma-builtin-helpers-date.obj
 0002:00005a00       ??_C@_0BP@MGPLOHA@ecma_date_value_to_date_string?$AA@ 0043d700     ecma-builtin-helpers-date.obj
 0002:00005a20       ??_C@_0BP@GBAPBIOL@ecma_date_value_to_time_string?$AA@ 0043d720     ecma-builtin-helpers-date.obj
 0002:00005a40       __real@3fd0000000000000    0043d740     ecma-builtin-helpers-date.obj
 0002:00005a48       __real@4000000000000000    0043d748     ecma-builtin-helpers-date.obj
 0002:00005a50       __real@4008000000000000    0043d750     ecma-builtin-helpers-date.obj
 0002:00005a58       __real@4010000000000000    0043d758     ecma-builtin-helpers-date.obj
 0002:00005a60       __real@4014000000000000    0043d760     ecma-builtin-helpers-date.obj
 0002:00005a68       __real@4018000000000000    0043d768     ecma-builtin-helpers-date.obj
 0002:00005a70       __real@401c000000000000    0043d770     ecma-builtin-helpers-date.obj
 0002:00005a78       __real@4022000000000000    0043d778     ecma-builtin-helpers-date.obj
 0002:00005a80       __real@4026000000000000    0043d780     ecma-builtin-helpers-date.obj
 0002:00005a88       __real@403e000000000000    0043d788     ecma-builtin-helpers-date.obj
 0002:00005a90       __real@404d000000000000    0043d790     ecma-builtin-helpers-date.obj
 0002:00005a98       __real@404e000000000000    0043d798     ecma-builtin-helpers-date.obj
 0002:00005aa0       __real@4056400000000000    0043d7a0     ecma-builtin-helpers-date.obj
 0002:00005aa8       __real@4056800000000000    0043d7a8     ecma-builtin-helpers-date.obj
 0002:00005ab0       __real@4059000000000000    0043d7b0     ecma-builtin-helpers-date.obj
 0002:00005ab8       __real@405dc00000000000    0043d7b8     ecma-builtin-helpers-date.obj
 0002:00005ac0       __real@405e000000000000    0043d7c0     ecma-builtin-helpers-date.obj
 0002:00005ac8       __real@4062c00000000000    0043d7c8     ecma-builtin-helpers-date.obj
 0002:00005ad0       __real@4062e00000000000    0043d7d0     ecma-builtin-helpers-date.obj
 0002:00005ad8       __real@4066800000000000    0043d7d8     ecma-builtin-helpers-date.obj
 0002:00005ae0       __real@4066a00000000000    0043d7e0     ecma-builtin-helpers-date.obj
 0002:00005ae8       __real@406a600000000000    0043d7e8     ecma-builtin-helpers-date.obj
 0002:00005af0       __real@406a800000000000    0043d7f0     ecma-builtin-helpers-date.obj
 0002:00005af8       __real@406e400000000000    0043d7f8     ecma-builtin-helpers-date.obj
 0002:00005b00       __real@406e600000000000    0043d800     ecma-builtin-helpers-date.obj
 0002:00005b08       __real@4071000000000000    0043d808     ecma-builtin-helpers-date.obj
 0002:00005b10       __real@4071100000000000    0043d810     ecma-builtin-helpers-date.obj
 0002:00005b18       __real@4072f00000000000    0043d818     ecma-builtin-helpers-date.obj
 0002:00005b20       __real@4073000000000000    0043d820     ecma-builtin-helpers-date.obj
 0002:00005b28       __real@4074d00000000000    0043d828     ecma-builtin-helpers-date.obj
 0002:00005b30       __real@4074e00000000000    0043d830     ecma-builtin-helpers-date.obj
 0002:00005b38       __real@4076d00000000000    0043d838     ecma-builtin-helpers-date.obj
 0002:00005b40       __real@4076e00000000000    0043d840     ecma-builtin-helpers-date.obj
 0002:00005b48       __real@4079000000000000    0043d848     ecma-builtin-helpers-date.obj
 0002:00005b50       __real@408f400000000000    0043d850     ecma-builtin-helpers-date.obj
 0002:00005b58       __real@4099040000000000    0043d858     ecma-builtin-helpers-date.obj
 0002:00005b60       __real@409db40000000000    0043d860     ecma-builtin-helpers-date.obj
 0002:00005b68       __real@409ec40000000000    0043d868     ecma-builtin-helpers-date.obj
 0002:00005b70       __real@409ec80000000000    0043d870     ecma-builtin-helpers-date.obj
 0002:00005b78       __real@40ed4c0000000000    0043d878     ecma-builtin-helpers-date.obj
 0002:00005b80       __real@41118d8800000000    0043d880     ecma-builtin-helpers-date.obj
 0002:00005b88       __real@414b774000000000    0043d888     ecma-builtin-helpers-date.obj
 0002:00005b90       __real@4194997000000000    0043d890     ecma-builtin-helpers-date.obj
 0002:00005b98       __real@433eb208c2dc0000    0043d898     ecma-builtin-helpers-date.obj
 0002:00005ba0       __real@c0ed4c0000000000    0043d8a0     ecma-builtin-helpers-date.obj
 0002:00005ba8       __real@c1114ff800000000    0043d8a8     ecma-builtin-helpers-date.obj
 0002:00005bb0       ??_C@_0CI@NMLIPJMP@ecma_builtin_helper_error_dispat@ 0043d8b0     ecma-builtin-helpers-error.obj
 0002:00005bd8       ??_C@_0DC@LNIFHKDE@ecma?2builtin?9objects?2ecma?9builti@ 0043d8d8     ecma-builtin-helpers-error.obj
 0002:00005c0c       ??_C@_0CE@ICAOCNAN@ecma_has_object_value_in_collect@ 0043d90c     ecma-builtin-helpers-json.obj
 0002:00005c30       ??_C@_0DB@NBJKGJJE@ecma?2builtin?9objects?2ecma?9builti@ 0043d930     ecma-builtin-helpers-json.obj
 0002:00005c64       ??_C@_0CE@OAAEHJID@ecma_is_value_object?5?$CIobject_val@ 0043d964     ecma-builtin-helpers-json.obj
 0002:00005c88       ??_C@_0CE@CODLEEAG@ecma_has_string_value_in_collect@ 0043d988     ecma-builtin-helpers-json.obj
 0002:00005cac       ??_C@_0CE@DGENJIN@ecma_is_value_string?5?$CIstring_val@ 0043d9ac     ecma-builtin-helpers-json.obj
 0002:00005cd0       ??_C@_0DG@LOGGEBDG@ecma_builtin_helper_json_create_@ 0043d9d0     ecma-builtin-helpers-json.obj
 0002:00005d08       ??_C@_0BF@MAAJHDAJ@hex_buff___size?5?$DN?$DN?50?$AA@ 0043da08     ecma-builtin-helpers-json.obj
 0002:00005d20       ??_C@_0CD@NLNLCKH@ecma_string_get_length?5?$CIhex_str_@ 0043da20     ecma-builtin-helpers-json.obj
 0002:00005d44       ??_C@_0CF@OJHMHOFF@ecma_builtin_helper_object_to_st@ 0043da44     ecma-builtin-helpers.obj
 0002:00005d6c       ??_C@_0CM@OLFFFPAO@ecma?2builtin?9objects?2ecma?9builti@ 0043da6c     ecma-builtin-helpers.obj
 0002:00005d98       ??_C@_0CA@LNGDLEMD@ecma_is_value_object?5?$CIobj_this?$CJ?$AA@ 0043da98     ecma-builtin-helpers.obj
 0002:00005db8       ??_C@_0CH@FNDFAIHG@buffer_ptr?5?$DM?$DN?5str_buffer?5?$CL?5buffe@ 0043dab8     ecma-builtin-helpers.obj
 0002:00005de0       ??_C@_0BH@OAHPDIMB@str_buffer___size?5?$DN?$DN?50?$AA@ 0043dae0     ecma-builtin-helpers.obj
 0002:00005df8       ??_C@_0DC@BADIDAGD@ecma_builtin_helper_get_to_local@ 0043daf8     ecma-builtin-helpers.obj
 0002:00005e2c       ??_C@_0CK@BMBFEKIN@ecma_builtin_helper_object_get_p@ 0043db2c     ecma-builtin-helpers.obj
 0002:00005e58       ??_C@_0CA@EHKHGBLO@ecma_is_value_true?5?$CIcompletion?$CJ?$AA@ 0043db58     ecma-builtin-helpers.obj
 0002:00005e78       ??_C@_0CH@NMNLGKOM@ecma_builtin_helper_array_concat@ 0043db78     ecma-builtin-helpers.obj
 0002:00005ea0       ??_C@_0CE@CGPGLOCF@ecma_number_is_nan?5?$CIarg_len_numb@ 0043dba0     ecma-builtin-helpers.obj
 0002:00005ec4       ??_C@_0DF@OOLEKJGD@ecma_builtin_helper_string_proto@ 0043dbc4     ecma-builtin-helpers.obj
 0002:00005efc       ??_C@_0BN@CLMAALEA@ecma_number_is_nan?5?$CIpos_num?$CJ?$AA@ 0043dbfc     ecma-builtin-helpers.obj
 0002:00005f1c       ??_C@_0CG@NOMFAFCM@ecma_builtin_helper_string_find_@ 0043dc1c     ecma-builtin-helpers.obj
 0002:00005f44       ??_C@_0BK@PPDFGAHI@search_str_utf8_p?5?$CB?$DN?5NULL?$AA@ 0043dc44     ecma-builtin-helpers.obj
 0002:00005f60       ??_C@_0BM@IKINLIBK@original_str_utf8_p?5?$CB?$DN?5NULL?$AA@ 0043dc60     ecma-builtin-helpers.obj
 0002:00005f7c       _ecma_builtin_json_property_descriptor_list 0043dc7c     ecma-builtin-json.obj
 0002:00005f90       ??_C@_0CD@GBFFGBGD@ecma_builtin_json_dispatch_routi@ 0043dc90     ecma-builtin-json.obj
 0002:00005fb4       ??_C@_0BL@NKJKLECJ@ecma_builtin_json_check_id?$AA@ 0043dcb4     ecma-builtin-json.obj
 0002:00005fd0       ??_C@_0CJ@HBOICMDE@ecma?2builtin?9objects?2ecma?9builti@ 0043dcd0     ecma-builtin-json.obj
 0002:00005ffc       ??_C@_0BK@DJAONOAK@?$CKstring_p?5?$DN?$DN?5?$CKstring_id_p?$AA@ 0043dcfc     ecma-builtin-json.obj
 0002:00006018       ??_C@_0BP@GDLBEFOC@ecma_builtin_json_parse_string?$AA@ 0043dd18     ecma-builtin-json.obj
 0002:00006038       ??_C@_0CC@JBFBKMHJ@write_p?5?$DN?$DN?5buffer_p?5?$CL?5buffer_siz@ 0043dd38     ecma-builtin-json.obj
 0002:0000605c       ??_C@_0BF@LBPODOKH@buffer_p___size?5?$CB?$DN?50?$AA@ 0043dd5c     ecma-builtin-json.obj
 0002:00006074       ??_C@_0BF@BEOOEECE@buffer_p___size?5?$DN?$DN?50?$AA@ 0043dd74     ecma-builtin-json.obj
 0002:0000608c       ??_C@_0BP@KALFOFOO@ecma_builtin_json_parse_number?$AA@ 0043dd8c     ecma-builtin-json.obj
 0002:000060ac       ??_C@_0BC@CIAJABIE@current_p?5?$DM?5end_p?$AA@ 0043ddac     ecma-builtin-json.obj
 0002:000060c0       ??_C@_04MLLLIHIP@null?$AA@ 0043ddc0     ecma-builtin-json.obj
 0002:000060c8       ??_C@_04LOAJBDKD@true?$AA@ 0043ddc8     ecma-builtin-json.obj
 0002:000060d0       ??_C@_05LAPONLG@false?$AA@ 0043ddd0     ecma-builtin-json.obj
 0002:000060d8       ??_C@_0CI@ILHAIONG@ecma_builtin_json_define_value_p@ 0043ddd8     ecma-builtin-json.obj
 0002:00006100       ??_C@_0CJ@JNKGKOPM@ecma_is_value_boolean?5?$CIcompletio@ 0043de00     ecma-builtin-json.obj
 0002:0000612c       ??_C@_0BO@NKDMOFNE@ecma_builtin_json_parse_value?$AA@ 0043de2c     ecma-builtin-json.obj
 0002:0000614c       ??_C@_0CK@NKIDDOFF@?$CBECMA_IS_VALUE_ERROR?5?$CIarray_cons@ 0043de4c     ecma-builtin-json.obj
 0002:00006178       ??_C@_0BH@BIBBBJAG@ecma_builtin_json_walk?$AA@ 0043de78     ecma-builtin-json.obj
 0002:00006190       ??_C@_09IJGMPJGL@reviver_p?$AA@ 0043de90     ecma-builtin-json.obj
 0002:0000619c       ??_C@_08PAMOJBHG@holder_p?$AA@ 0043de9c     ecma-builtin-json.obj
 0002:000061a8       ??_C@_06FPDHGPHA@name_p?$AA@ 0043dea8     ecma-builtin-json.obj
 0002:000061b0       ??_C@_0CD@BEKFAALP@ecma_is_value_boolean?5?$CIdelete_va@ 0043deb0     ecma-builtin-json.obj
 0002:000061d4       ??_C@_0BI@EOAHMJBC@ecma_builtin_json_parse?$AA@ 0043ded4     ecma-builtin-json.obj
 0002:000061ec       ??_C@_0BE@INBAKLFM@str_start_p?5?$CB?$DN?5NULL?$AA@ 0043deec     ecma-builtin-json.obj
 0002:00006200       ??_C@_0BM@MBNJCBAM@ecma_builtin_json_stringify?$AA@ 0043df00     ecma-builtin-json.obj
 0002:0000621c       ??_C@_0CG@EAJIFAMK@ecma_number_is_nan?5?$CIarray_length@ 0043df1c     ecma-builtin-json.obj
 0002:00006244       ??_C@_0BH@NHEBAFNB@space_buff___size?5?$CB?$DN?50?$AA@ 0043df44     ecma-builtin-json.obj
 0002:0000625c       ??_C@_0BH@HCFBHPFC@space_buff___size?5?$DN?$DN?50?$AA@ 0043df5c     ecma-builtin-json.obj
 0002:00006274       ??_C@_0CC@KKPLMEPF@ecma_is_value_true?5?$CIput_comp_val@ 0043df74     ecma-builtin-json.obj
 0002:00006298       ??_C@_0BI@LHAHLCDC@ecma_builtin_json_quote?$AA@ 0043df98     ecma-builtin-json.obj
 0002:000062b0       ??_C@_0BG@DNPAAABE@ecma_builtin_json_str?$AA@ 0043dfb0     ecma-builtin-json.obj
 0002:000062c8       ??_C@_0CB@MDKKNACO@?$CBECMA_IS_VALUE_ERROR?5?$CIret_value?$CJ@ 0043dfc8     ecma-builtin-json.obj
 0002:000062ec       ??_C@_0BJ@IOMJPMEI@ecma_builtin_json_object?$AA@ 0043dfec     ecma-builtin-json.obj
 0002:00006308       ??_C@_0CH@JKAGDPAP@ecma_is_property_enumerable?5?$CIpro@ 0043e008     ecma-builtin-json.obj
 0002:00006330       ??_C@_0CE@JACPCABG@?$CBECMA_IS_VALUE_ERROR?5?$CIstr_comp_v@ 0043e030     ecma-builtin-json.obj
 0002:00006354       ??_C@_0BI@FIBINPDN@ecma_builtin_json_array?$AA@ 0043e054     ecma-builtin-json.obj
 0002:00006370       _ecma_builtin_math_property_descriptor_list 0043e070     ecma-builtin-math.obj
 0002:00006414       ??_C@_0CD@OEMEHHPM@ecma_builtin_math_dispatch_routi@ 0043e114     ecma-builtin-math.obj
 0002:00006438       ??_C@_0CJ@MIAKEIGF@ecma?2builtin?9objects?2ecma?9builti@ 0043e138     ecma-builtin-math.obj
 0002:00006464       ??_C@_0CO@KNCMDGPO@builtin_routine_id?5?$DN?$DN?5ECMA_MATH_@ 0043e164     ecma-builtin-math.obj
 0002:00006498       __real@41dfffffff800000    0043e198     ecma-builtin-math.obj
 0002:000064a0       __real@41dfffffffc00000    0043e1a0     ecma-builtin-math.obj
 0002:000064a8       __real@bfe0000000000000    0043e1a8     ecma-builtin-math.obj
 0002:000064b0       _ecma_builtin_number_prototype_property_descriptor_list 0043e1b0     ecma-builtin-number-prototype.obj
 0002:00006504       ??_C@_0CP@JHKGPMMN@ecma_builtin_number_prototype_di@ 0043e204     ecma-builtin-number-prototype.obj
 0002:00006534       ??_C@_0CP@BPAGGJCF@ecma_builtin_number_prototype_he@ 0043e234     ecma-builtin-number-prototype.obj
 0002:00006564       ??_C@_0DF@GMOBFKLG@ecma?2builtin?9objects?2ecma?9builti@ 0043e264     ecma-builtin-number-prototype.obj
 0002:0000659c       ??_C@_0BA@KHHKBNBJ@num_digits?5?$DN?$DN?50?$AA@ 0043e29c     ecma-builtin-number-prototype.obj
 0002:000065ac       ??_C@_0CP@ENFOBBNF@ecma_builtin_number_prototype_ob@ 0043e2ac     ecma-builtin-number-prototype.obj
 0002:000065dc       ??_C@_0BI@IEPAMPFD@buff_index?5?$DM?$DN?5buff_size?$AA@ 0043e2dc     ecma-builtin-number-prototype.obj
 0002:000065f4       ??_C@_0BB@LMJJEIEC@buff___size?5?$CB?$DN?50?$AA@ 0043e2f4     ecma-builtin-number-prototype.obj
 0002:00006608       ??_C@_0BB@BJIJDCMB@buff___size?5?$DN?$DN?50?$AA@ 0043e308     ecma-builtin-number-prototype.obj
 0002:0000661c       ??_C@_0CO@IIIECAJG@ecma_builtin_number_prototype_ob@ 0043e31c     ecma-builtin-number-prototype.obj
 0002:0000664c       ??_C@_0DK@PEJJDDCK@ecma_is_value_number?5?$CIext_object@ 0043e34c     ecma-builtin-number-prototype.obj
 0002:00006688       ??_C@_0CO@GIIFEIAK@ecma_builtin_number_prototype_ob@ 0043e388     ecma-builtin-number-prototype.obj
 0002:000066b8       ??_C@_01JOAMLHOP@?9?$AA@   0043e3b8     ecma-builtin-number-prototype.obj
 0002:000066bc       ??_C@_0BA@DMECBBBD@buffer_size?5?$DO?50?$AA@ 0043e3bc     ecma-builtin-number-prototype.obj
 0002:000066cc       ??_C@_0BH@PEDOJNL@p?5?9?5buff?5?$DM?5buffer_size?$AA@ 0043e3cc     ecma-builtin-number-prototype.obj
 0002:000066e4       ??_C@_0DE@HLNFIFHE@ecma_builtin_number_prototype_ob@ 0043e3e4     ecma-builtin-number-prototype.obj
 0002:00006718       ??_C@_0CD@NDGFKMHG@actual_char_p?5?9?5buff?5?$DM?5buffer_si@ 0043e418     ecma-builtin-number-prototype.obj
 0002:0000673c       ??_C@_0DC@GINFHOMH@ecma_builtin_number_prototype_ob@ 0043e43c     ecma-builtin-number-prototype.obj
 0002:00006770       __real@4035000000000000    0043e470     ecma-builtin-number-prototype.obj
 0002:00006778       __real@4036000000000000    0043e478     ecma-builtin-number-prototype.obj
 0002:00006780       __real@43e0000000000000    0043e480     ecma-builtin-number-prototype.obj
 0002:00006788       _ecma_builtin_number_property_descriptor_list 0043e488     ecma-builtin-number.obj
 0002:000067b8       ??_C@_0CF@DKMDDAAA@ecma_builtin_number_dispatch_rou@ 0043e4b8     ecma-builtin-number.obj
 0002:000067e0       ??_C@_0CC@CKNOCJMF@ecma_builtin_number_dispatch_cal@ 0043e4e0     ecma-builtin-number.obj
 0002:00006804       ??_C@_0CL@EJKJGNAJ@ecma?2builtin?9objects?2ecma?9builti@ 0043e504     ecma-builtin-number.obj
 0002:00006830       ??_C@_0CH@EBEAAGJI@ecma_builtin_number_dispatch_con@ 0043e530     ecma-builtin-number.obj
 0002:00006858       _ecma_builtin_object_prototype_property_descriptor_list 0043e558     ecma-builtin-object-prototype.obj
 0002:00006888       ??_C@_0CP@GCDDEOJL@ecma_builtin_object_prototype_di@ 0043e588     ecma-builtin-object-prototype.obj
 0002:000068b8       ??_C@_0DG@GIBMHBHJ@ecma_builtin_object_prototype_ob@ 0043e5b8     ecma-builtin-object-prototype.obj
 0002:000068f0       ??_C@_0DF@HDNNJHOI@ecma?2builtin?9objects?2ecma?9builti@ 0043e5f0     ecma-builtin-object-prototype.obj
 0002:00006928       ??_C@_0EB@EJHANJMN@return_value?5?$DN?$DN?5ecma_make_simple@ 0043e628     ecma-builtin-object-prototype.obj
 0002:0000696c       ??_C@_0DG@OAJBNNPF@ecma_builtin_object_prototype_ob@ 0043e66c     ecma-builtin-object-prototype.obj
 0002:000069a4       ??_C@_0DF@OLJAFIAO@ecma_builtin_object_prototype_ob@ 0043e6a4     ecma-builtin-object-prototype.obj
 0002:000069dc       ??_C@_0DM@HLEJLOOI@ecma_builtin_object_prototype_ob@ 0043e6dc     ecma-builtin-object-prototype.obj
 0002:00006a18       _ecma_builtin_object_property_descriptor_list 0043e718     ecma-builtin-object.obj
 0002:00006a78       ??_C@_0CF@NJOMGFBL@ecma_builtin_object_dispatch_rou@ 0043e778     ecma-builtin-object.obj
 0002:00006aa0       ??_C@_0CC@OLDDPICO@ecma_builtin_object_dispatch_cal@ 0043e7a0     ecma-builtin-object.obj
 0002:00006ac4       ??_C@_0CL@FKCFOFDC@ecma?2builtin?9objects?2ecma?9builti@ 0043e7c4     ecma-builtin-object.obj
 0002:00006af0       ??_C@_0CH@PDHHILFG@ecma_builtin_object_dispatch_con@ 0043e7f0     ecma-builtin-object.obj
 0002:00006b18       ??_C@_0CA@DCMOGFPC@ecma_builtin_object_object_seal?$AA@ 0043e818     ecma-builtin-object.obj
 0002:00006b38       ??_C@_0CC@PJADDOEC@ecma_builtin_object_object_freez@ 0043e838     ecma-builtin-object.obj
 0002:00006b5c       ??_C@_0DH@NGNOKKAK@ecma_builtin_object_object_get_o@ 0043e85c     ecma-builtin-object.obj
 0002:00006b94       ??_C@_0CC@COMHKLLI@ecma_builtin_object_object_creat@ 0043e894     ecma-builtin-object.obj
 0002:00006bb8       ??_C@_0CN@PCGOAOOL@ecma_builtin_object_object_defin@ 0043e8b8     ecma-builtin-object.obj
 0002:00006be8       ??_C@_07EOGKKAJF@is_next?$AA@ 0043e8e8     ecma-builtin-object.obj
 0002:00006bf0       ??_C@_0CB@GPMBLHLE@property_descriptors___size?5?$CB?$DN?50@ 0043e8f0     ecma-builtin-object.obj
 0002:00006c14       ??_C@_0CB@MKNBMNDH@property_descriptors___size?5?$DN?$DN?50@ 0043e914     ecma-builtin-object.obj
 0002:00006c38       ??_C@_0CL@MPKEOMDO@ecma_builtin_object_object_defin@ 0043e938     ecma-builtin-object.obj
 0002:00006c64       _ecma_builtin_range_error_prototype_property_descriptor_list 0043e964     ecma-builtin-rangeerror-prototype.obj
 0002:00006c7c       ??_C@_0DE@CFEKLEAL@ecma_builtin_range_error_prototy@ 0043e97c     ecma-builtin-rangeerror-prototype.obj
 0002:00006cb0       _ecma_builtin_range_error_property_descriptor_list 0043e9b0     ecma-builtin-rangeerror.obj
 0002:00006cc4       ??_C@_0CK@OHELDDJA@ecma_builtin_range_error_dispatc@ 0043e9c4     ecma-builtin-rangeerror.obj
 0002:00006cf0       _ecma_builtin_reference_error_prototype_property_descriptor_list 0043e9f0     ecma-builtin-referenceerror-prototype.obj
 0002:00006d08       ??_C@_0DI@EPAJILIL@ecma_builtin_reference_error_pro@ 0043ea08     ecma-builtin-referenceerror-prototype.obj
 0002:00006d40       _ecma_builtin_reference_error_property_descriptor_list 0043ea40     ecma-builtin-referenceerror.obj
 0002:00006d54       ??_C@_0CO@KIKFHMDF@ecma_builtin_reference_error_dis@ 0043ea54     ecma-builtin-referenceerror.obj
 0002:00006d88       _ecma_builtin_regexp_prototype_property_descriptor_list 0043ea88     ecma-builtin-regexp-prototype.obj
 0002:00006dcc       ??_C@_0CP@LGKBHBOA@ecma_builtin_regexp_prototype_di@ 0043eacc     ecma-builtin-regexp-prototype.obj
 0002:00006dfc       ??_C@_0CG@HPBOGGPC@ecma_builtin_regexp_prototype_co@ 0043eafc     ecma-builtin-regexp-prototype.obj
 0002:00006e24       ??_C@_0DF@CHBOCDAB@ecma?2builtin?9objects?2ecma?9builti@ 0043eb24     ecma-builtin-regexp-prototype.obj
 0002:00006e5c       ??_C@_0CF@CAKJJEFP@ecma_is_value_boolean?5?$CIglobal_va@ 0043eb5c     ecma-builtin-regexp-prototype.obj
 0002:00006e84       ??_C@_0CK@DBNMNOBO@ecma_is_value_boolean?5?$CIignore_ca@ 0043eb84     ecma-builtin-regexp-prototype.obj
 0002:00006eb0       ??_C@_0CI@MPGABAMF@ecma_is_value_boolean?5?$CImultiline@ 0043ebb0     ecma-builtin-regexp-prototype.obj
 0002:00006ed8       ??_C@_0BO@OICJAKEG@ecma_is_value_empty?5?$CIbc_comp?$CJ?$AA@ 0043ebd8     ecma-builtin-regexp-prototype.obj
 0002:00006ef8       ??_C@_0CD@OCHCGFFH@ecma_builtin_regexp_prototype_ex@ 0043ebf8     ecma-builtin-regexp-prototype.obj
 0002:00006f1c       ??_C@_0CD@KJAPHD@ecma_builtin_regexp_prototype_te@ 0043ec1c     ecma-builtin-regexp-prototype.obj
 0002:00006f40       ??_C@_0CI@PDJCHABE@ecma_builtin_regexp_prototype_to@ 0043ec40     ecma-builtin-regexp-prototype.obj
 0002:00006f68       _ecma_builtin_regexp_property_descriptor_list 0043ec68     ecma-builtin-regexp.obj
 0002:00006f7c       ??_C@_0CF@CDAGKJDB@ecma_builtin_regexp_dispatch_rou@ 0043ec7c     ecma-builtin-regexp.obj
 0002:00006fa4       ??_C@_0CH@OMODDAP@ecma_builtin_regexp_dispatch_con@ 0043eca4     ecma-builtin-regexp.obj
 0002:00006fcc       ??_C@_0CL@PEOKBJAJ@ecma?2builtin?9objects?2ecma?9builti@ 0043eccc     ecma-builtin-regexp.obj
 0002:00006ff8       _ecma_builtin_string_prototype_property_descriptor_list 0043ecf8     ecma-builtin-string-prototype.obj
 0002:00007084       ??_C@_0CP@CBLDNFLI@ecma_builtin_string_prototype_di@ 0043ed84     ecma-builtin-string-prototype.obj
 0002:000070b4       ??_C@_0CP@PLELDIKA@ecma_builtin_string_prototype_ob@ 0043edb4     ecma-builtin-string-prototype.obj
 0002:000070e4       ??_C@_0DF@BADHDCII@ecma?2builtin?9objects?2ecma?9builti@ 0043ede4     ecma-builtin-string-prototype.obj
 0002:0000711c       ??_C@_0DK@LNFFAMNL@ecma_is_value_string?5?$CIext_object@ 0043ee1c     ecma-builtin-string-prototype.obj
 0002:00007158       ??_C@_0CN@EHNNKGKF@ecma_builtin_string_prototype_ob@ 0043ee58     ecma-builtin-string-prototype.obj
 0002:00007188       ??_C@_0BP@OBHFMOMG@ecma_number_is_nan?5?$CIindex_num?$CJ?$AA@ 0043ee88     ecma-builtin-string-prototype.obj
 0002:000071a8       ??_C@_0DC@JOMNFBLH@ecma_builtin_string_prototype_ob@ 0043eea8     ecma-builtin-string-prototype.obj
 0002:000071e0       ??_C@_0GF@CEFFONH@ecma_number_is_nan?5?$CIindex_num?$CJ?5?$HM@ 0043eee0     ecma-builtin-string-prototype.obj
 0002:00007248       ??_C@_0CM@FGLBNGNG@ecma_builtin_string_prototype_ob@ 0043ef48     ecma-builtin-string-prototype.obj
 0002:00007274       ??_C@_0DE@JNGPHDPA@ecma_builtin_string_prototype_ob@ 0043ef74     ecma-builtin-string-prototype.obj
 0002:000072a8       ??_C@_0CL@DOCGJDLD@ecma_builtin_string_prototype_ob@ 0043efa8     ecma-builtin-string-prototype.obj
 0002:000072d4       ??_C@_0CE@GONIIFKO@?$CBecma_is_value_empty?5?$CIregexp_val@ 0043efd4     ecma-builtin-string-prototype.obj
 0002:000072f8       ??_C@_0CC@KFCEGPIJ@ecma_is_value_object?5?$CIexec_value@ 0043eff8     ecma-builtin-string-prototype.obj
 0002:0000731c       ??_C@_0DL@MCLBIJNK@ecma_builtin_string_prototype_ob@ 0043f01c     ecma-builtin-string-prototype.obj
 0002:00007358       ??_C@_0N@LOOAEEIH@start?5?$DM?$DN?5end?$AA@ 0043f058     ecma-builtin-string-prototype.obj
 0002:00007368       ??_C@_0DC@MPHGJEMF@end?5?$DM?$DN?5ecma_string_get_length?5?$CIa@ 0043f068     ecma-builtin-string-prototype.obj
 0002:0000739c       ??_C@_0DD@OOGBDANC@ecma_builtin_string_prototype_ob@ 0043f09c     ecma-builtin-string-prototype.obj
 0002:000073d0       ??_C@_0CD@ICKKCMDL@ecma_is_value_object?5?$CImatch_valu@ 0043f0d0     ecma-builtin-string-prototype.obj
 0002:000073f4       ??_C@_0CD@POECPOMK@ecma_is_value_number?5?$CIindex_valu@ 0043f0f4     ecma-builtin-string-prototype.obj
 0002:00007418       ??_C@_0CL@OHGKAME@ecma_is_value_string?5?$CIresult_str@ 0043f118     ecma-builtin-string-prototype.obj
 0002:00007448       ??_C@_0EP@CLENBMEN@?$CIecma_length_t?$CJ?5ecma_number_to_u@ 0043f148     ecma-builtin-string-prototype.obj
 0002:00007498       ??_C@_0BG@HNOGFKNE@?$CBcontext_p?9?$DOis_global?$AA@ 0043f198     ecma-builtin-string-prototype.obj
 0002:000074b0       ??_C@_0DI@OLHDICKO@ecma_builtin_string_prototype_ob@ 0043f1b0     ecma-builtin-string-prototype.obj
 0002:000074e8       ??_C@_0CK@MEMKGMCI@ecma_is_value_number?5?$CImatch_leng@ 0043f1e8     ecma-builtin-string-prototype.obj
 0002:00007518       ??_C@_0EM@CFIANGLF@?$CIecma_length_t?$CJ?5ecma_number_to_u@ 0043f218     ecma-builtin-string-prototype.obj
 0002:00007564       ??_C@_0BC@DPPFDEFB@match_length?5?$DO?$DN?51?$AA@ 0043f264     ecma-builtin-string-prototype.obj
 0002:00007578       ??_C@_0BL@IMDFIPIP@arguments_list___size?5?$CB?$DN?50?$AA@ 0043f278     ecma-builtin-string-prototype.obj
 0002:00007594       ??_C@_0BL@CJCFPFAM@arguments_list___size?5?$DN?$DN?50?$AA@ 0043f294     ecma-builtin-string-prototype.obj
 0002:000075b0       ??_C@_0EP@JDBFJJIO@action?5?$DN?$DN?5LIT_CHAR_AMPERSAND?5?$HM?$HM?5@ 0043f2b0     ecma-builtin-string-prototype.obj
 0002:00007600       ??_C@_0CC@KKDJMILI@index?5?$DO?50?5?$CG?$CG?5index?5?$DM?5match_lengt@ 0043f300     ecma-builtin-string-prototype.obj
 0002:00007624       ??_C@_0CG@HAKAECOH@ecma_is_value_string?5?$CIsubmatch_v@ 0043f324     ecma-builtin-string-prototype.obj
 0002:0000764c       ??_C@_0DC@IABLEEOI@ecma_builtin_string_prototype_ob@ 0043f34c     ecma-builtin-string-prototype.obj
 0002:00007680       ??_C@_0BF@EBLCIMMH@context_p?9?$DOis_regexp?$AA@ 0043f380     ecma-builtin-string-prototype.obj
 0002:00007698       ??_C@_0DC@INGIFJAG@ecma_builtin_string_prototype_ob@ 0043f398     ecma-builtin-string-prototype.obj
 0002:000076cc       ??_C@_0BI@MAKDLGNG@replace_start_p?5?$CB?$DN?5NULL?$AA@ 0043f3cc     ecma-builtin-string-prototype.obj
 0002:000076e4       ??_C@_0CN@MBOIHGOB@ecma_builtin_string_prototype_ob@ 0043f3e4     ecma-builtin-string-prototype.obj
 0002:00007714       ??_C@_0CM@BPPCEHGG@ecma_builtin_string_prototype_ob@ 0043f414     ecma-builtin-string-prototype.obj
 0002:00007740       ??_C@_0CE@GOCGLECN@ecma_is_value_object?5?$CImatch_resu@ 0043f440     ecma-builtin-string-prototype.obj
 0002:00007764       ??_C@_0CL@OILHMFOG@ecma_builtin_string_prototype_ob@ 0043f464     ecma-builtin-string-prototype.obj
 0002:00007790       ??_C@_0CA@LBFGHLN@ecma_builtin_helper_split_match?$AA@ 0043f490     ecma-builtin-string-prototype.obj
 0002:000077b0       ??_C@_0EI@KAKPEHNE@ecma_is_value_string?5?$CIinput_stri@ 0043f4b0     ecma-builtin-string-prototype.obj
 0002:000077f8       ??_C@_0CL@CEDHOJJB@ecma_builtin_string_prototype_ob@ 0043f4f8     ecma-builtin-string-prototype.obj
 0002:00007824       ??_C@_0BP@EOFCLAJN@ecma_number_is_nan?5?$CIlimit_num?$CJ?$AA@ 0043f524     ecma-builtin-string-prototype.obj
 0002:00007844       ??_C@_0CI@JIGHPHGJ@?$CBECMA_IS_VALUE_ERROR?5?$CImatch_comp@ 0043f544     ecma-builtin-string-prototype.obj
 0002:0000786c       ??_C@_0P@EPOEAKMH@index_num?5?$DO?$DN?50?$AA@ 0043f56c     ecma-builtin-string-prototype.obj
 0002:0000787c       ??_C@_0CP@DOLBKNJK@ecma_builtin_string_prototype_ob@ 0043f57c     ecma-builtin-string-prototype.obj
 0002:000078ac       ??_C@_0DH@HDJBCJHH@ecma_builtin_string_prototype_ob@ 0043f5ac     ecma-builtin-string-prototype.obj
 0002:000078e8       ??_C@_0EL@NMFEBICJ@character_length?5?$DO?$DN?51?5?$CG?$CG?5charact@ 0043f5e8     ecma-builtin-string-prototype.obj
 0002:00007934       ??_C@_0BG@IHGHHL@input_start_p?5?$CB?$DN?5NULL?$AA@ 0043f634     ecma-builtin-string-prototype.obj
 0002:0000794c       ??_C@_0CK@KOKMJBKC@ecma_builtin_string_prototype_ob@ 0043f64c     ecma-builtin-string-prototype.obj
 0002:00007978       ??_C@_0CM@EKHMBHGG@ecma_builtin_string_prototype_ob@ 0043f678     ecma-builtin-string-prototype.obj
 0002:000079a4       ??_C@_0BJ@KEMJLLLM@ecma_number_is_nan?5?$CIlen?$CJ?$AA@ 0043f6a4     ecma-builtin-string-prototype.obj
 0002:000079c0       _ecma_builtin_string_property_descriptor_list 0043f6c0     ecma-builtin-string.obj
 0002:000079d8       ??_C@_0CF@NAMOJGHD@ecma_builtin_string_dispatch_rou@ 0043f6d8     ecma-builtin-string.obj
 0002:00007a00       ??_C@_0CK@NGBOFKHK@ecma_builtin_string_object_from_@ 0043f700     ecma-builtin-string.obj
 0002:00007a2c       ??_C@_0CL@DDMKECOJ@ecma?2builtin?9objects?2ecma?9builti@ 0043f72c     ecma-builtin-string.obj
 0002:00007a58       ??_C@_0EB@GBGJALCH@utf8_buf_used?5?$DM?$DN?5utf8_buf_size?5?9@ 0043f758     ecma-builtin-string.obj
 0002:00007a9c       ??_C@_0BP@EOFLAANF@utf8_buf_used?5?$DM?$DN?5utf8_buf_size?$AA@ 0043f79c     ecma-builtin-string.obj
 0002:00007abc       ??_C@_0BH@PMJFCBCP@utf8_buf_p___size?5?$CB?$DN?50?$AA@ 0043f7bc     ecma-builtin-string.obj
 0002:00007ad4       ??_C@_0BH@FJIFFLKM@utf8_buf_p___size?5?$DN?$DN?50?$AA@ 0043f7d4     ecma-builtin-string.obj
 0002:00007aec       ??_C@_0CC@CIHCKHAE@ecma_builtin_string_dispatch_cal@ 0043f7ec     ecma-builtin-string.obj
 0002:00007b10       ??_C@_0CH@HKOHMAHN@ecma_builtin_string_dispatch_con@ 0043f810     ecma-builtin-string.obj
 0002:00007b38       _ecma_builtin_syntax_error_prototype_property_descriptor_list 0043f838     ecma-builtin-syntaxerror-prototype.obj
 0002:00007b50       ??_C@_0DF@CDANJGCK@ecma_builtin_syntax_error_protot@ 0043f850     ecma-builtin-syntaxerror-prototype.obj
 0002:00007b88       _ecma_builtin_syntax_error_property_descriptor_list 0043f888     ecma-builtin-syntaxerror.obj
 0002:00007b9c       ??_C@_0CL@JFCPCLHE@ecma_builtin_syntax_error_dispat@ 0043f89c     ecma-builtin-syntaxerror.obj
 0002:00007bc8       _ecma_builtin_type_error_thrower_property_descriptor_list 0043f8c8     ecma-builtin-type-error-thrower.obj
 0002:00007bd4       ??_C@_0DB@LMHAOAEE@ecma_builtin_type_error_thrower_@ 0043f8d4     ecma-builtin-type-error-thrower.obj
 0002:00007c08       ??_C@_0CO@IJNAJOHM@ecma_builtin_type_error_thrower_@ 0043f908     ecma-builtin-type-error-thrower.obj
 0002:00007c38       ??_C@_0DH@PAMHAPEL@ecma?2builtin?9objects?2ecma?9builti@ 0043f938     ecma-builtin-type-error-thrower.obj
 0002:00007c70       ??_C@_0DD@FDIGNIPO@ecma_builtin_type_error_thrower_@ 0043f970     ecma-builtin-type-error-thrower.obj
 0002:00007ca4       _ecma_builtin_type_error_prototype_property_descriptor_list 0043f9a4     ecma-builtin-typeerror-prototype.obj
 0002:00007cbc       ??_C@_0DD@MAMELNPC@ecma_builtin_type_error_prototyp@ 0043f9bc     ecma-builtin-typeerror-prototype.obj
 0002:00007cf0       _ecma_builtin_type_error_property_descriptor_list 0043f9f0     ecma-builtin-typeerror.obj
 0002:00007d04       ??_C@_0CJ@NOLHAIHD@ecma_builtin_type_error_dispatch@ 0043fa04     ecma-builtin-typeerror.obj
 0002:00007d30       _ecma_builtin_uri_error_prototype_property_descriptor_list 0043fa30     ecma-builtin-urierror-prototype.obj
 0002:00007d48       ??_C@_0DC@HMMEJKCE@ecma_builtin_uri_error_prototype@ 0043fa48     ecma-builtin-urierror-prototype.obj
 0002:00007d7c       _ecma_builtin_uri_error_property_descriptor_list 0043fa7c     ecma-builtin-urierror.obj
 0002:00007d90       ??_C@_0CI@PANDCIPL@ecma_builtin_uri_error_dispatch_@ 0043fa90     ecma-builtin-urierror.obj
 0002:00007e98       ??_C@_0BA@LEKLHLD@ecma_builtin_is?$AA@ 0043fb98     ecma-builtins.obj
 0002:00007ea8       ??_C@_0CF@EJDDBCIF@ecma?2builtin?9objects?2ecma?9builti@ 0043fba8     ecma-builtins.obj
 0002:00007ed0       ??_C@_0DG@BMICGILH@obj_p?5?$CB?$DN?5NULL?5?$CG?$CG?5?$CBecma_is_lexica@ 0043fbd0     ecma-builtins.obj
 0002:00007f08       ??_C@_0CE@GBDLNELK@builtin_id?5?$DM?5ECMA_BUILTIN_ID__CO@ 0043fc08     ecma-builtins.obj
 0002:00007f2c       ??_C@_0BB@OBEELMIC@ecma_builtin_get?$AA@ 0043fc2c     ecma-builtins.obj
 0002:00007f40       ??_C@_0CB@EBJBNHGM@ecma_builtin_function_is_routine@ 0043fc40     ecma-builtins.obj
 0002:00007f64       ??_C@_0DP@GKONPPIA@ecma_get_object_type?5?$CIfunc_obj_p@ 0043fc64     ecma-builtins.obj
 0002:00007fa4       ??_C@_0CI@GOPLMBCO@ecma_get_object_is_builtin?5?$CIfunc@ 0043fca4     ecma-builtins.obj
 0002:00007fcc       ??_C@_0BJ@KIMFBPNM@ecma_builtin_init_object?$AA@ 0043fccc     ecma-builtins.obj
 0002:00007fe8       ??_C@_0BM@LNGBINMJ@property_count?5?$DM?$DN?5?$CI32?5?$CL?564?$CJ?$AA@ 0043fce8     ecma-builtins.obj
 0002:00008004       ??_C@_0CD@ICEAJGCL@obj_type?5?$DN?$DN?5ECMA_OBJECT_TYPE_ARR@ 0043fd04     ecma-builtins.obj
 0002:00008028       ??_C@_0CD@LHLJHJCG@obj_type?5?$DN?$DN?5ECMA_OBJECT_TYPE_CLA@ 0043fd28     ecma-builtins.obj
 0002:0000804c       ??_C@_0CD@GCFGJJDM@obj_type?5?$CB?$DN?5ECMA_OBJECT_TYPE_CLA@ 0043fd4c     ecma-builtins.obj
 0002:00008070       ??_C@_0BJ@MHDAIKJI@ecma_instantiate_builtin?$AA@ 0043fd70     ecma-builtins.obj
 0002:00008090       ??_C@_0FO@MPPBOMMN@c?3?2hellox?2personal?2hellox_os?2jer@ 0043fd90     ecma-builtins.obj
 0002:000080f0       ??_C@_0EP@HKDPHID@JERRY_CONTEXT?5?$CIecma_builtin_obje@ 0043fdf0     ecma-builtins.obj
 0002:00008140       ??_C@_0BI@JGOFPABJ@prototype_obj_p?5?$CB?$DN?5NULL?$AA@ 0043fe40     ecma-builtins.obj
 0002:00008158       ??_C@_0EF@GJNNOKJP@JERRY_CONTEXT?5?$CIecma_builtin_obje@ 0043fe58     ecma-builtins.obj
 0002:000081a0       ??_C@_0EO@PKMGEPFN@JERRY_CONTEXT?5?$CIecma_builtin_obje@ 0043fea0     ecma-builtins.obj
 0002:000081f0       ??_C@_0EE@JJDKCBAM@JERRY_CONTEXT?5?$CIecma_builtin_obje@ 0043fef0     ecma-builtins.obj
 0002:00008238       ??_C@_0EP@IODDLMKI@JERRY_CONTEXT?5?$CIecma_builtin_obje@ 0043ff38     ecma-builtins.obj
 0002:00008288       ??_C@_0EF@CIKKHEPB@JERRY_CONTEXT?5?$CIecma_builtin_obje@ 0043ff88     ecma-builtins.obj
 0002:000082d0       ??_C@_0FA@BKJMBAFB@JERRY_CONTEXT?5?$CIecma_builtin_obje@ 0043ffd0     ecma-builtins.obj
 0002:00008320       ??_C@_0EG@OJJEJCOB@JERRY_CONTEXT?5?$CIecma_builtin_obje@ 00440020     ecma-builtins.obj
 0002:00008368       ??_C@_0EP@LFJEHKEN@JERRY_CONTEXT?5?$CIecma_builtin_obje@ 00440068     ecma-builtins.obj
 0002:000083b8       ??_C@_0EF@HOACIGA@JERRY_CONTEXT?5?$CIecma_builtin_obje@ 004400b8     ecma-builtins.obj
 0002:00008400       ??_C@_0FB@IOLJCAPP@JERRY_CONTEXT?5?$CIecma_builtin_obje@ 00440100     ecma-builtins.obj
 0002:00008458       ??_C@_0EH@CPMODCF@JERRY_CONTEXT?5?$CIecma_builtin_obje@ 00440158     ecma-builtins.obj
 0002:000084a0       ??_C@_0ED@BJEOELOO@JERRY_CONTEXT?5?$CIecma_builtin_obje@ 004401a0     ecma-builtins.obj
 0002:000084e8       ??_C@_0ED@DNOHHBAO@JERRY_CONTEXT?5?$CIecma_builtin_obje@ 004401e8     ecma-builtins.obj
 0002:00008530       ??_C@_0EN@FLGJDLHJ@JERRY_CONTEXT?5?$CIecma_builtin_obje@ 00440230     ecma-builtins.obj
 0002:00008580       ??_C@_0ED@HMIMPJKJ@JERRY_CONTEXT?5?$CIecma_builtin_obje@ 00440280     ecma-builtins.obj
 0002:000085c8       ??_C@_0EP@PKBKEPNK@JERRY_CONTEXT?5?$CIecma_builtin_obje@ 004402c8     ecma-builtins.obj
 0002:00008618       ??_C@_0EF@GHBINDGJ@JERRY_CONTEXT?5?$CIecma_builtin_obje@ 00440318     ecma-builtins.obj
 0002:00008660       ??_C@_0EE@NJFGBADF@JERRY_CONTEXT?5?$CIecma_builtin_obje@ 00440360     ecma-builtins.obj
 0002:000086a8       ??_C@_0EO@JECFPCLD@JERRY_CONTEXT?5?$CIecma_builtin_obje@ 004403a8     ecma-builtins.obj
 0002:000086f8       ??_C@_0FD@LAEKADLJ@JERRY_CONTEXT?5?$CIecma_builtin_obje@ 004403f8     ecma-builtins.obj
 0002:00008750       ??_C@_0EJ@NEGAJIKJ@JERRY_CONTEXT?5?$CIecma_builtin_obje@ 00440450     ecma-builtins.obj
 0002:000087a0       ??_C@_0FE@FLAANBIL@JERRY_CONTEXT?5?$CIecma_builtin_obje@ 004404a0     ecma-builtins.obj
 0002:000087f8       ??_C@_0EK@CENLANGA@JERRY_CONTEXT?5?$CIecma_builtin_obje@ 004404f8     ecma-builtins.obj
 0002:00008848       ??_C@_0FI@CFOFHFAE@JERRY_CONTEXT?5?$CIecma_builtin_obje@ 00440548     ecma-builtins.obj
 0002:000088a0       ??_C@_0EO@MCIDLLDM@JERRY_CONTEXT?5?$CIecma_builtin_obje@ 004405a0     ecma-builtins.obj
 0002:000088f0       ??_C@_0FF@BNEHLKOA@JERRY_CONTEXT?5?$CIecma_builtin_obje@ 004405f0     ecma-builtins.obj
 0002:00008948       ??_C@_0EL@JMDHJPND@JERRY_CONTEXT?5?$CIecma_builtin_obje@ 00440648     ecma-builtins.obj
 0002:00008998       ??_C@_0FD@BGJIPBKK@JERRY_CONTEXT?5?$CIecma_builtin_obje@ 00440698     ecma-builtins.obj
 0002:000089f0       ??_C@_0EJ@LCBJPACA@JERRY_CONTEXT?5?$CIecma_builtin_obje@ 004406f0     ecma-builtins.obj
 0002:00008a40       ??_C@_0FC@MNNHNLNM@JERRY_CONTEXT?5?$CIecma_builtin_obje@ 00440740     ecma-builtins.obj
 0002:00008a98       ??_C@_0EI@FIOMLFPA@JERRY_CONTEXT?5?$CIecma_builtin_obje@ 00440798     ecma-builtins.obj
 0002:00008ae0       ??_C@_0FB@MPGFCNFC@JERRY_CONTEXT?5?$CIecma_builtin_obje@ 004407e0     ecma-builtins.obj
 0002:00008b38       ??_C@_0FE@PPNPAGIO@JERRY_CONTEXT?5?$CIecma_builtin_obje@ 00440838     ecma-builtins.obj
 0002:00008b90       ??_C@_0EK@GOGIGJJG@JERRY_CONTEXT?5?$CIecma_builtin_obje@ 00440890     ecma-builtins.obj
 0002:00008be0       ??_C@_0EF@PGGDLOIB@JERRY_CONTEXT?5?$CIecma_builtin_obje@ 004408e0     ecma-builtins.obj
 0002:00008c28       ??_C@_0BM@JNBOBBLF@id?5?$DM?5ECMA_BUILTIN_ID__COUNT?$AA@ 00440928     ecma-builtins.obj
 0002:00008c44       ??_C@_0CO@KNAEADPF@ecma_builtin_make_function_objec@ 00440944     ecma-builtins.obj
 0002:00008c74       ??_C@_0DG@LAAABFLG@length_prop_value?5?$DM?5?$CI1?5?$DM?$DM?5ECMA_B@ 00440974     ecma-builtins.obj
 0002:00008cac       ??_C@_0CF@BGNLIDLO@routine_id?5?$DO?$DN?5ECMA_BUILTIN_ID__C@ 004409ac     ecma-builtins.obj
 0002:00008cd4       ??_C@_0CJ@LFJBLHAL@ecma_builtin_try_to_instantiate_@ 004409d4     ecma-builtins.obj
 0002:00008d00       ??_C@_0CG@PFOCPBEH@ecma_get_object_is_builtin?5?$CIobje@ 00440a00     ecma-builtins.obj
 0002:00008d28       ??_C@_0CH@JLFDFANF@ecma_builtin_is?5?$CIobject_p?0?5built@ 00440a28     ecma-builtins.obj
 0002:00008d50       ??_C@_0CG@NDFDFGHK@ecma_builtin_list_lazy_property_@ 00440a50     ecma-builtins.obj
 0002:00008d78       ??_C@_0BO@KKIOJP@ecma_builtin_dispatch_routine?$AA@ 00440a78     ecma-builtins.obj
 0002:00008d98       ??_C@_0BL@HFMDMFCG@ecma_builtin_dispatch_call?$AA@ 00440a98     ecma-builtins.obj
 0002:00008db4       ??_C@_0DK@FFKMCIJD@ecma_get_object_type?5?$CIobj_p?$CJ?5?$DN?$DN?5@ 00440ab4     ecma-builtins.obj
 0002:00008df0       ??_C@_0CD@OOENDGPP@ecma_get_object_is_builtin?5?$CIobj_@ 00440af0     ecma-builtins.obj
 0002:00008e14       ??_C@_0CB@KBKOLMFN@?$CBecma_is_value_empty?5?$CIret_value?$CJ@ 00440b14     ecma-builtins.obj
 0002:00008e38       ??_C@_0CA@JLEADEKP@ecma_builtin_dispatch_construct?$AA@ 00440b38     ecma-builtins.obj
 0002:00008e58       ??_C@_0BM@OFLIDKOM@ecma_op_create_array_object?$AA@ 00440b58     ecma-array-object.obj
 0002:00008e74       ??_C@_0CE@MCPOOML@ecma?2operations?2ecma?9array?9objec@ 00440b74     ecma-array-object.obj
 0002:00008e98       ??_C@_0CA@BIAGHDPC@ecma_op_array_object_set_length?$AA@ 00440b98     ecma-array-object.obj
 0002:00008eb8       ??_C@_0EH@OFCBJFJM@?$CBECMA_IS_VALUE_ERROR?5?$CIcompletion@ 00440bb8     ecma-array-object.obj
 0002:00008f00       ??_C@_0CJ@MLBMIOFH@ecma_op_array_object_define_own_@ 00440c00     ecma-array-object.obj
 0002:00008f30       ??_C@_0EO@NMBLONEL@property_desc_p?9?$DOis_configurable@ 00440c30     ecma-array-object.obj
 0002:00008f80       ??_C@_0EK@HLKADBPF@property_desc_p?9?$DOis_enumerable_d@ 00440c80     ecma-array-object.obj
 0002:00008fd0       ??_C@_0EG@MIKDAOIF@property_desc_p?9?$DOis_writable_def@ 00440cd0     ecma-array-object.obj
 0002:00009018       ??_C@_0CF@FKLDHPJB@ecma_is_value_boolean?5?$CIcompletit@ 00440d18     ecma-array-object.obj
 0002:00009040       ??_C@_0CH@DNPEMCII@ecma_op_array_list_lazy_property@ 00440d40     ecma-array-object.obj
 0002:00009068       ??_C@_0DH@KDCPNNGO@ecma_get_object_type?5?$CIobj_p?$CJ?5?$DN?$DN?5@ 00440d68     ecma-array-object.obj
 0002:000090a0       ??_C@_0CC@JPENEJHC@ecma_op_create_arraybuffer_objec@ 00440da0     ecma-arraybuffer-object.obj
 0002:000090c4       ??_C@_0CK@DGGNBHF@ecma?2operations?2ecma?9arraybuffer@ 00440dc4     ecma-arraybuffer-object.obj
 0002:000090f0       ??_C@_0DI@DDIFMNEE@ret?5?$DN?$DN?5ecma_make_simple_value?5?$CIE@ 00440df0     ecma-arraybuffer-object.obj
 0002:00009128       ??_C@_0BJ@IMFGABBK@ecma_number_is_nan?5?$CInum?$CJ?$AA@ 00440e28     ecma-arraybuffer-object.obj
 0002:00009144       ??_C@_0BM@NBPLEMAG@ecma_arraybuffer_get_length?$AA@ 00440e44     ecma-arraybuffer-object.obj
 0002:00009160       ??_C@_0EC@HJEDBBJI@ecma_object_class_is?5?$CIobject_p?0?5@ 00440e60     ecma-arraybuffer-object.obj
 0002:000091a4       ??_C@_0BM@KHBHCKPI@ecma_arraybuffer_get_buffer?$AA@ 00440ea4     ecma-arraybuffer-object.obj
 0002:000091c0       ??_C@_0CC@JEMBIHAI@ecma_op_abstract_equality_compar@ 00440ec0     ecma-comparison.obj
 0002:000091e4       ??_C@_0CC@HFJJIIFO@ecma?2operations?2ecma?9comparison?4@ 00440ee4     ecma-comparison.obj
 0002:00009208       ??_C@_0CJ@PEHLAFOH@is_x_equal_to_y?5?$DN?$DN?5is_x_equal_to@ 00440f08     ecma-comparison.obj
 0002:00009234       ??_C@_0CA@ECBFKPIH@ecma_op_strict_equality_compare?$AA@ 00440f34     ecma-comparison.obj
 0002:00009258       ??_C@_0JE@MGOOMNK@?$CBecma_is_value_direct?5?$CIx?$CJ?5?$HM?$HM?5ecm@ 00440f58     ecma-comparison.obj
 0002:000092f0       ??_C@_0JE@MCDDBCIN@?$CBecma_is_value_direct?5?$CIy?$CJ?5?$HM?$HM?5ecm@ 00440ff0     ecma-comparison.obj
 0002:00009384       ??_C@_0DF@DFEFLNBC@ecma_is_value_number?5?$CIx?$CJ?5?$HM?$HM?5ecma@ 00441084     ecma-comparison.obj
 0002:000093bc       ??_C@_0DF@DKGADPPE@ecma_is_value_number?5?$CIy?$CJ?5?$HM?$HM?5ecma@ 004410bc     ecma-comparison.obj
 0002:000093f4       ??_C@_0CE@PNJFECLH@ecma_op_abstract_relational_comp@ 004410f4     ecma-comparison.obj
 0002:00009418       ??_C@_0DK@PFMELHF@?$CBecma_number_is_nan?5?$CInx?$CJ?5?$CG?$CG?5?$CBecm@ 00441118     ecma-comparison.obj
 0002:00009454       ??_C@_0DK@JLOOPFNH@?$CBecma_number_is_nan?5?$CIny?$CJ?5?$CG?$CG?5?$CBecm@ 00441154     ecma-comparison.obj
 0002:00009490       ??_C@_0DI@NADHENJI@?$CB?$CIecma_number_is_zero?5?$CInx?$CJ?5?$CG?$CG?5ec@ 00441190     ecma-comparison.obj
 0002:000094c8       ??_C@_0CL@FFIMOKAA@is_x_less_than_y_check?5?$DN?$DN?5is_x_l@ 004411c8     ecma-comparison.obj
 0002:000094f4       ??_C@_0BI@FKMAACFH@ecma_number_is_nan?5?$CIny?$CJ?$AA@ 004411f4     ecma-comparison.obj
 0002:0000950c       ??_C@_0BI@FLACGIGA@ecma_number_is_nan?5?$CInx?$CJ?$AA@ 0044120c     ecma-comparison.obj
 0002:00009524       ??_C@_0BD@IELLLOKK@ecma_op_same_value?$AA@ 00441224     ecma-conversion.obj
 0002:00009538       ??_C@_0CC@NNGKCNGJ@ecma?2operations?2ecma?9conversion?4@ 00441238     ecma-conversion.obj
 0002:0000955c       ??_C@_0M@DPAJDFJC@is_x_object?$AA@ 0044125c     ecma-conversion.obj
 0002:00009568       ??_C@_0BD@EILCNFIK@ecma_op_to_boolean?$AA@ 00441268     ecma-conversion.obj
 0002:00009580       ??_C@_0FP@NKEEJCFG@ecma_is_value_boolean?5?$CIvalue?$CJ?5?$HM?$HM@ 00441280     ecma-conversion.obj
 0002:000095e0       ??_C@_0BN@NHDJMBNP@ecma_is_value_object?5?$CIvalue?$CJ?$AA@ 004412e0     ecma-conversion.obj
 0002:00009600       ??_C@_0BC@DEPEKDLA@ecma_op_to_number?$AA@ 00441300     ecma-conversion.obj
 0002:00009614       ??_C@_0BC@PHPAADLM@ecma_op_to_string?$AA@ 00441314     ecma-conversion.obj
 0002:00009628       ??_C@_0BC@PBHAKFLK@ecma_op_to_object?$AA@ 00441328     ecma-conversion.obj
 0002:0000963c       ??_C@_0CB@CFBALEGI@ecma_op_from_property_descriptor@ 0044133c     ecma-conversion.obj
 0002:00009660       ??_C@_0DM@BBPPCFJJ@prop_desc?4is_value_defined?5?$CG?$CG?5pr@ 00441360     ecma-conversion.obj
 0002:000096a0       ??_C@_0ED@NODLCPAF@src_prop_desc_p?9?$DOis_get_defined?5@ 004413a0     ecma-conversion.obj
 0002:000096e4       ??_C@_0BP@FCAFLDDI@ecma_op_to_property_descriptor?$AA@ 004413e4     ecma-conversion.obj
 0002:00009704       ??_C@_0CA@JMMNECKL@ecma_is_value_empty?5?$CIret_value?$CJ?$AA@ 00441404     ecma-conversion.obj
 0002:00009724       ??_C@_0CG@IEIPBIFA@ecma_is_value_object?5?$CIget_prop_v@ 00441424     ecma-conversion.obj
 0002:0000974c       ??_C@_0CG@LGJJGKEJ@ecma_is_value_object?5?$CIset_prop_v@ 0044144c     ecma-conversion.obj
 0002:00009774       ??_C@_0N@DDLFAOMB@ecma_op_eval?$AA@ 00441474     ecma-eval.obj
 0002:00009784       ??_C@_0BM@MIKDIBAK@ecma?2operations?2ecma?9eval?4c?$AA@ 00441484     ecma-eval.obj
 0002:000097a0       ??_C@_0BL@MEONHFND@code_utf8_buffer_p?5?$CB?$DN?5NULL?$AA@ 004414a0     ecma-eval.obj
 0002:000097bc       ??_C@_0BK@FCICHNME@ecma_op_eval_chars_buffer?$AA@ 004414bc     ecma-eval.obj
 0002:000097d8       ??_C@_0P@IFPLKDCN@code_p?5?$CB?$DN?5NULL?$AA@ 004414d8     ecma-eval.obj
 0002:000097f4       ??_C@_0BE@PEFMDMLL@ecma_op_is_callable?$AA@ 004414f4     ecma-function-object.obj
 0002:00009808       ??_C@_0CH@PBPPEGHP@ecma?2operations?2ecma?9function?9ob@ 00441508     ecma-function-object.obj
 0002:00009830       ??_C@_0CF@MLEEHFA@?$CBecma_is_lexical_environment?5?$CIob@ 00441530     ecma-function-object.obj
 0002:00009858       ??_C@_0BE@OAPJDCOL@ecma_is_constructor?$AA@ 00441558     ecma-function-object.obj
 0002:0000986c       ??_C@_0CP@JGMKLOEK@ecma_op_function_try_lazy_instan@ 0044156c     ecma-function-object.obj
 0002:0000989c       ??_C@_0CH@MEANMLFB@?$CBecma_get_object_is_builtin?5?$CIobj@ 0044159c     ecma-function-object.obj
 0002:000098c4       ??_C@_0BO@HPIIHIMJ@ecma_op_function_has_instance?$AA@ 004415c4     ecma-function-object.obj
 0002:000098e8       ??_C@_0EA@DNADGEJB@func_obj_p?5?$CB?$DN?5NULL?5?$CG?$CG?5?$CBecma_is_l@ 004415e8     ecma-function-object.obj
 0002:00009928       ??_C@_0EF@OMGGJBCK@ecma_get_object_type?5?$CIfunc_obj_p@ 00441628     ecma-function-object.obj
 0002:00009970       ??_C@_0BG@JPCHJEBL@ecma_op_function_call?$AA@ 00441670     ecma-function-object.obj
 0002:00009988       ??_C@_0DK@FIAMBCKN@ecma_op_is_callable?5?$CIecma_make_o@ 00441688     ecma-function-object.obj
 0002:000099c4       ??_C@_0CE@MCEDKFBH@?$CBECMA_IS_VALUE_ERROR?5?$CIthis_bindi@ 004416c4     ecma-function-object.obj
 0002:000099e8       ??_C@_0BP@ENFNLNDB@merged_args_list_p___size?5?$CB?$DN?50?$AA@ 004416e8     ecma-function-object.obj
 0002:00009a08       ??_C@_0BP@OIENMHLC@merged_args_list_p___size?5?$DN?$DN?50?$AA@ 00441708     ecma-function-object.obj
 0002:00009a28       ??_C@_0CO@GIJEEIGE@ecma_op_function_construct_simpl@ 00441728     ecma-function-object.obj
 0002:00009a58       ??_C@_0IK@BHFBECIF@ecma_get_object_type?5?$CIfunc_obj_p@ 00441758     ecma-function-object.obj
 0002:00009ae4       ??_C@_0BL@LLDKEDEF@ecma_op_function_construct?$AA@ 004417e4     ecma-function-object.obj
 0002:00009b00       ??_C@_0DK@CKPOKHPP@ecma_is_constructor?5?$CIecma_make_o@ 00441800     ecma-function-object.obj
 0002:00009b3c       ??_C@_0BP@FHDCLCAC@ecma_op_get_value_lex_env_base?$AA@ 0044183c     ecma-get-put-value.obj
 0002:00009b5c       ??_C@_0CF@LHOGHMGB@ecma?2operations?2ecma?9get?9put?9val@ 0044185c     ecma-get-put-value.obj
 0002:00009b88       ??_C@_0EP@DLFKGFEH@ref_base_lex_env_p?5?$CB?$DN?5NULL?5?$CG?$CG?5ec@ 00441888     ecma-get-put-value.obj
 0002:00009bd8       ??_C@_0BO@MMGCOBKA@ecma_op_get_value_object_base?$AA@ 004418d8     ecma-get-put-value.obj
 0002:00009bf8       ??_C@_0GN@LCOEGOEN@ecma_is_value_boolean?5?$CIbase_valu@ 004418f8     ecma-get-put-value.obj
 0002:00009c68       ??_C@_0DM@CEFNFICC@object_p?5?$CB?$DN?5NULL?5?$CG?$CG?5?$CBecma_is_lex@ 00441968     ecma-get-put-value.obj
 0002:00009ca4       ??_C@_0BP@IJAOOGKB@ecma_op_put_value_lex_env_base?$AA@ 004419a4     ecma-get-put-value.obj
 0002:00009cc4       ??_C@_0BE@LLCLOKJE@ecma_op_has_binding?$AA@ 004419c4     ecma-lex-env.obj
 0002:00009cd8       ??_C@_0BP@CHFIENCF@ecma?2operations?2ecma?9lex?9env?4c?$AA@ 004419d8     ecma-lex-env.obj
 0002:00009cf8       ??_C@_0DN@MJFJJLPG@lex_env_p?5?$CB?$DN?5NULL?5?$CG?$CG?5ecma_is_lex@ 004419f8     ecma-lex-env.obj
 0002:00009d38       ??_C@_0JO@GFNDILJA@ecma_get_lex_env_type?5?$CIlex_env_p@ 00441a38     ecma-lex-env.obj
 0002:00009dd8       ??_C@_0BP@GGLENOHP@ecma_op_create_mutable_binding?$AA@ 00441ad8     ecma-lex-env.obj
 0002:00009df8       ??_C@_0BM@IGNEENMN@ecma_op_set_mutable_binding?$AA@ 00441af8     ecma-lex-env.obj
 0002:00009e14       ??_C@_0BK@LFNBJNKK@ecma_op_get_binding_value?$AA@ 00441b14     ecma-lex-env.obj
 0002:00009e30       ??_C@_0BH@JCGJDMH@ecma_op_delete_binding?$AA@ 00441b30     ecma-lex-env.obj
 0002:00009e48       ??_C@_0EB@KIKEHEMI@ECMA_PROPERTY_GET_TYPE?5?$CI?$CKprop_p?$CJ@ 00441b48     ecma-lex-env.obj
 0002:00009e8c       ??_C@_0BM@OMJFHCGE@ecma_op_implicit_this_value?$AA@ 00441b8c     ecma-lex-env.obj
 0002:00009ea8       ??_C@_0CB@IMDLHGCP@ecma_op_create_immutable_binding@ 00441ba8     ecma-lex-env.obj
 0002:00009ed0       ??_C@_0EK@NDGOMIGE@ecma_get_lex_env_type?5?$CIlex_env_p@ 00441bd0     ecma-lex-env.obj
 0002:00009f1c       ??_C@_0CA@PILFJDEP@ecma_op_create_arguments_object?$AA@ 00441c1c     ecma-objects-arguments.obj
 0002:00009f3c       ??_C@_0CJ@FMGMNPAE@ecma?2operations?2ecma?9objects?9arg@ 00441c3c     ecma-objects-arguments.obj
 0002:00009f68       ??_C@_0CB@LPPGLOCK@ecma_is_value_empty?5?$CIcompletion?$CJ@ 00441c68     ecma-objects-arguments.obj
 0002:00009f8c       ??_C@_0CN@LLKOGDLD@ecma_op_arguments_object_define_@ 00441c8c     ecma-objects-arguments.obj
 0002:00009fbc       ??_C@_0CA@CFBGMGBB@ecma_op_arguments_object_delete?$AA@ 00441cbc     ecma-objects-arguments.obj
 0002:00009fdc       ??_C@_0CC@NBIFOEDP@ecma_is_value_boolean?5?$CIret_value@ 00441cdc     ecma-objects-arguments.obj
 0002:0000a000       ??_C@_0CB@MIJGFOOJ@ecma_op_create_object_object_arg@ 00441d00     ecma-objects-general.obj
 0002:0000a024       ??_C@_0CH@DCPHMKCI@ecma?2operations?2ecma?9objects?9gen@ 00441d24     ecma-objects-general.obj
 0002:0000a04c       ??_C@_0DO@CMJDNPAN@ecma_is_value_undefined?5?$CIvalue?$CJ?5@ 00441d4c     ecma-objects-general.obj
 0002:0000a08c       ??_C@_0BO@JGBEKBHK@ecma_op_general_object_delete?$AA@ 00441d8c     ecma-objects-general.obj
 0002:0000a0ac       ??_C@_0BI@DCEAIOIL@property_name_p?5?$CB?$DN?5NULL?$AA@ 00441dac     ecma-objects-general.obj
 0002:0000a0c4       ??_C@_0CF@DBHCEPGF@ecma_op_general_object_default_v@ 00441dc4     ecma-objects-general.obj
 0002:0000a0ec       ??_C@_0CL@DDPDAKDC@ecma_op_general_object_define_ow@ 00441dec     ecma-objects-general.obj
 0002:0000a118       ??_C@_0EF@OLJOJMEH@?$CBproperty_desc_p?9?$DOis_get_defined@ 00441e18     ecma-objects-general.obj
 0002:0000a160       ??_C@_0GH@GGDEHLP@property_desc_type?5?$DN?$DN?5ECMA_PROPE@ 00441e60     ecma-objects-general.obj
 0002:0000a1c8       ??_C@_0FG@BGFBAKIP@property_desc_p?9?$DOis_value_define@ 00441ec8     ecma-objects-general.obj
 0002:0000a220       ??_C@_0KK@HPBLPDOG@current_property_type?5?$DN?$DN?5ECMA_PR@ 00441f20     ecma-objects-general.obj
 0002:0000a2d0       ??_C@_0EG@ODJLIIEO@?$CBis_current_configurable?5?$CG?$CG?5?$CBecm@ 00441fd0     ecma-objects-general.obj
 0002:0000a318       ??_C@_0DG@EHAOECAK@current_property_type?5?$DN?$DN?5ECMA_PR@ 00442018     ecma-objects-general.obj
 0002:0000a350       ??_C@_0DK@OICACGP@current_property_type?5?$DN?$DN?5ECMA_PR@ 00442050     ecma-objects-general.obj
 0002:0000a390       ??_C@_0FG@JDJKPHNG@ECMA_PROPERTY_GET_TYPE?5?$CI?$CKext_pro@ 00442090     ecma-objects-general.obj
 0002:0000a3e8       ??_C@_0FK@DFAGGBGG@ECMA_PROPERTY_GET_TYPE?5?$CI?$CKext_pro@ 004420e8     ecma-objects-general.obj
 0002:0000a444       ??_C@_0CA@HOFANOPJ@ecma_op_object_get_own_property?$AA@ 00442144     ecma-objects.obj
 0002:0000a464       ??_C@_0BP@CKKDAKKL@ecma?2operations?2ecma?9objects?4c?$AA@ 00442164     ecma-objects.obj
 0002:0000a488       ??_C@_0EC@FJGNNCKA@options?5?$DN?$DN?5ECMA_PROPERTY_GET_NO_@ 00442188     ecma-objects.obj
 0002:0000a4cc       ??_C@_0BI@HIAJPPP@ecma_op_object_find_own?$AA@ 004421cc     ecma-objects.obj
 0002:0000a4e8       ??_C@_0EJ@JHNGLNKH@ECMA_PROPERTY_GET_TYPE?5?$CI?$CKpropert@ 004421e8     ecma-objects.obj
 0002:0000a534       ??_C@_0CB@FCLBHBAE@ecma_op_object_get_own_data_prop@ 00442234     ecma-objects.obj
 0002:0000a558       ??_C@_0IL@FBJGCGFO@property_p?5?$CB?$DN?5NULL?5?$CG?$CG?5ECMA_PROPE@ 00442258     ecma-objects.obj
 0002:0000a5e4       ??_C@_0BD@NKANJNJB@ecma_op_object_put?$AA@ 004422e4     ecma-objects.obj
 0002:0000a5f8       ??_C@_0DC@LGLHMIBE@ecma_is_value_undefined?5?$CInew_pro@ 004422f8     ecma-objects.obj
 0002:0000a62c       ??_C@_0BG@MBNCGEKN@ecma_op_object_delete?$AA@ 0044232c     ecma-objects.obj
 0002:0000a644       ??_C@_0BN@COLMNHMJ@ecma_op_object_default_value?$AA@ 00442344     ecma-objects.obj
 0002:0000a668       ??_C@_0BLB@PAHDACBG@ecma_get_object_type?5?$CIobj_p?$CJ?5?$DN?$DN?5@ 00442368     ecma-objects.obj
 0002:0000a81c       ??_C@_0CD@DNLDMKAO@ecma_op_object_define_own_proper@ 0044251c     ecma-objects.obj
 0002:0000a840       ??_C@_0CL@GBLJEMIB@ecma_op_object_get_own_property_@ 00442540     ecma-objects.obj
 0002:0000a86c       ??_C@_0CD@HOEKADDP@type?5?$DN?$DN?5ECMA_PROPERTY_TYPE_VIRTU@ 0044256c     ecma-objects.obj
 0002:0000a890       ??_C@_0BM@GOAFPGOH@ecma_op_object_has_instance?$AA@ 00442590     ecma-objects.obj
 0002:0000a8ac       ??_C@_0CC@CMGGBIPC@ecma_op_object_get_property_name@ 004425ac     ecma-objects.obj
 0002:0000a8d0       ??_C@_0EB@CLAKDDIL@is_enumerable_only?5?$CG?$CG?5?$CBecma_is_p@ 004425d0     ecma-objects.obj
 0002:0000a914       ??_C@_0DK@JBJHIOJO@array_index_name_pos?5?$DM?5array_ind@ 00442614     ecma-objects.obj
 0002:0000a950       ??_C@_0CF@BKEAFOLN@insertion_pos?5?$DM?5array_index_name@ 00442650     ecma-objects.obj
 0002:0000a978       ??_C@_0CM@FHIEPNJJ@index?5?$DO?$DN?5array_index_names_p?$FLins@ 00442678     ecma-objects.obj
 0002:0000a9a8       ??_C@_0FP@OBAJIGCC@name_pos?5?$DO?50?5?$CG?$CG?5name_pos?5?$DM?$DN?5arra@ 004426a8     ecma-objects.obj
 0002:0000aa08       ??_C@_0O@PKLJEHAJ@name_pos?5?$DN?$DN?50?$AA@ 00442708     ecma-objects.obj
 0002:0000aa18       ??_C@_0CA@ELPGAFBL@array_index_names_p___size?5?$CB?$DN?50?$AA@ 00442718     ecma-objects.obj
 0002:0000aa38       ??_C@_0CA@OOOGHPJI@array_index_names_p___size?5?$DN?$DN?50?$AA@ 00442738     ecma-objects.obj
 0002:0000aa58       ??_C@_0DP@JEGGNIPK@?$CInames_hashes_bitmap?$FLbitmap_row?$FN@ 00442758     ecma-objects.obj
 0002:0000aa98       ??_C@_0BE@LDPHFABM@names_p___size?5?$CB?$DN?50?$AA@ 00442798     ecma-objects.obj
 0002:0000aaac       ??_C@_0BE@BGOHCKJP@names_p___size?5?$DN?$DN?50?$AA@ 004427ac     ecma-objects.obj
 0002:0000aac0       ??_C@_0BL@CEIMPGEN@ecma_object_get_class_name?$AA@ 004427c0     ecma-objects.obj
 0002:0000aadc       ??_C@_0CB@MMKIBCNE@type?5?$DN?$DN?5ECMA_OBJECT_TYPE_GENERAL@ 004427dc     ecma-objects.obj
 0002:0000ab00       ??_C@_0DA@PEIKMMMK@ecma_builtin_is?5?$CIobj_p?0?5ECMA_BUI@ 00442800     ecma-objects.obj
 0002:0000ab30       ??_C@_0BP@DDJHBOIH@ecma_op_resolve_reference_base?$AA@ 00442830     ecma-reference.obj
 0002:0000ab50       ??_C@_0CB@DLGNJIKA@ecma?2operations?2ecma?9reference?4c@ 00442850     ecma-reference.obj
 0002:0000ab74       ??_C@_0BC@PPIDMCIN@lex_env_p?5?$CB?$DN?5NULL?$AA@ 00442874     ecma-reference.obj
 0002:0000ab88       ??_C@_0CA@OHHOLKEL@ecma_op_resolve_reference_value?$AA@ 00442888     ecma-reference.obj
 0002:0000aba8       ??_C@_0BG@LNONAMLJ@re_parse_regexp_flags?$AA@ 004428a8     ecma-regexp-object.obj
 0002:0000abc0       ??_C@_0CF@MOAHPABM@ecma?2operations?2ecma?9regexp?9obje@ 004428c0     ecma-regexp-object.obj
 0002:0000abe8       ??_C@_0BG@DLKANJLK@flags_start_p?5?$CB?$DN?5NULL?$AA@ 004428e8     ecma-regexp-object.obj
 0002:0000ac00       ??_C@_0BF@PDLMNBAI@re_set_data_property?$AA@ 00442900     ecma-regexp-object.obj
 0002:0000ac18       ??_C@_0GP@PMGHECHG@ECMA_PROPERTY_GET_TYPE?5?$CIproperty@ 00442918     ecma-regexp-object.obj
 0002:0000ac88       ??_C@_0CL@BCDAHFIF@ecma_op_create_regexp_object_fro@ 00442988     ecma-regexp-object.obj
 0002:0000acb4       ??_C@_0BD@PCNHMAOA@bytecode_p?5?$CB?$DN?5NULL?$AA@ 004429b4     ecma-regexp-object.obj
 0002:0000acc8       ??_C@_0BN@BBFOBBKE@ecma_op_create_regexp_object?$AA@ 004429c8     ecma-regexp-object.obj
 0002:0000ace8       ??_C@_0BC@GLGLAPNL@pattern_p?5?$CB?$DN?5NULL?$AA@ 004429e8     ecma-regexp-object.obj
 0002:0000acfc       ??_C@_0BM@OGJCBNLJ@Execute?5RE_OP_MATCH?3?5match?6?$AA@ 004429fc     ecma-regexp-object.obj
 0002:0000ad18       ??_C@_0BO@JDGOCLDH@Character?5matching?5?$CFd?5to?5?$CFd?3?5?$AA@ 00442a18     ecma-regexp-object.obj
 0002:0000ad38       ??_C@_05MJMOIOKB@fail?6?$AA@ 00442a38     ecma-regexp-object.obj
 0002:0000ad40       ??_C@_06NCLALNKL@match?6?$AA@ 00442a40     ecma-regexp-object.obj
 0002:0000ad48       ??_C@_0BM@GPBAIJJM@Period?5matching?5?8?4?8?5to?5?$CFu?3?5?$AA@ 00442a48     ecma-regexp-object.obj
 0002:0000ad64       ??_C@_0BN@OHKJIFJJ@Execute?5RE_OP_ASSERT_START?3?5?$AA@ 00442a64     ecma-regexp-object.obj
 0002:0000ad84       ??_C@_0BL@KKAPDDLE@Execute?5RE_OP_ASSERT_END?3?5?$AA@ 00442a84     ecma-regexp-object.obj
 0002:0000ada0       ??_C@_0CF@CDDDKIIH@Execute?5RE_OP_ASSERT_WORD_BOUNDA@ 00442aa0     ecma-regexp-object.obj
 0002:0000adc8       ??_C@_0BA@NPODNDNJ@re_match_regexp?$AA@ 00442ac8     ecma-regexp-object.obj
 0002:0000add8       ??_C@_0CF@EPAENJO@op?5?$DN?$DN?5RE_OP_ASSERT_NOT_WORD_BOUN@ 00442ad8     ecma-regexp-object.obj
 0002:0000ae00       ??_C@_0CJ@DGHPNOHG@Execute?5RE_OP_ASSERT_NOT_WORD_BO@ 00442b00     ecma-regexp-object.obj
 0002:0000ae2c       ??_C@_0CC@KFOLOENF@Execute?5RE_OP_LOOKAHEAD_POS?1NEG?3@ 00442b2c     ecma-regexp-object.obj
 0002:0000ae50       ??_C@_0CE@DEDKOIBE@ecma_is_value_boolean?5?$CImatch_val@ 00442b50     ecma-regexp-object.obj
 0002:0000ae74       ??_C@_0BI@DJMMCLNJ@saved_bck_p___size?5?$CB?$DN?50?$AA@ 00442b74     ecma-regexp-object.obj
 0002:0000ae8c       ??_C@_0BI@JMNMFBFK@saved_bck_p___size?5?$DN?$DN?50?$AA@ 00442b8c     ecma-regexp-object.obj
 0002:0000aea4       ??_C@_0DA@FFLNGLBO@Execute?5RE_OP_CHAR_CLASS?1RE_OP_I@ 00442ba4     ecma-regexp-object.obj
 0002:0000aed4       ??_C@_0CP@MENGJIFJ@num_of_ranges?$DN?$CFu?0?5ch1?$DN?$CFu?0?5ch2?$DN?$CFu@ 00442bd4     ecma-regexp-object.obj
 0002:0000af04       ??_C@_0BL@NJEGHBGB@op?5?$DN?$DN?5RE_OP_INV_CHAR_CLASS?$AA@ 00442c04     ecma-regexp-object.obj
 0002:0000af20       ??_C@_0CI@KMBLFIIO@Execute?5RE_OP_BACKREFERENCE?5?$CIidx@ 00442c20     ecma-regexp-object.obj
 0002:0000af48       ??_C@_0EA@KJPHOGPF@backref_idx?5?$DO?$DN?52?5?$CG?$CG?5backref_idx?5@ 00442c48     ecma-regexp-object.obj
 0002:0000af88       ??_C@_0BN@PHOCFJIG@Execute?5RE_OP_SAVE_AT_START?6?$AA@ 00442c88     ecma-regexp-object.obj
 0002:0000afa8       ??_C@_0CC@NICONCNH@End?5of?5pattern?5is?5reached?3?5match@ 00442ca8     ecma-regexp-object.obj
 0002:0000afcc       ??_C@_0BK@GMODNEBF@Execute?5RE_OP_ALTERNATIVE?$AA@ 00442ccc     ecma-regexp-object.obj
 0002:0000afe8       ??_C@_0L@LMHAOCFI@?0?5jump?3?5?$CFu?$AA@ 00442ce8     ecma-regexp-object.obj
 0002:0000aff4       ??_C@_0CL@OBJIKOAC@start_idx?5?$DM?$DN?5re_ctx_p?9?$DOnum_of_ca@ 00442cf4     ecma-regexp-object.obj
 0002:0000b020       ??_C@_0CK@OOOJBGAO@start_idx?5?$DM?5re_ctx_p?9?$DOnum_of_non@ 00442d20     ecma-regexp-object.obj
 0002:0000b04c       ??_C@_08MKPMCDFM@end_bc_p?$AA@ 00442d4c     ecma-regexp-object.obj
 0002:0000b058       ??_C@_0CJ@LFONNDCL@end_idx?5?$DM?$DN?5re_ctx_p?9?$DOnum_of_capt@ 00442d58     ecma-regexp-object.obj
 0002:0000b084       ??_C@_0CJ@DGHFPOI@end_idx?5?$DM?$DN?5re_ctx_p?9?$DOnum_of_non_@ 00442d84     ecma-regexp-object.obj
 0002:0000b0b0       ??_C@_0DD@NPOHLGLH@Non?9greedy?5iterator?0?5min?$DN?$CFlu?0?5ma@ 00442db0     ecma-regexp-object.obj
 0002:0000b0e4       ??_C@_0CP@PCBGHAIE@Greedy?5iterator?0?5min?$DN?$CFlu?0?5max?$DN?$CFl@ 00442de4     ecma-regexp-object.obj
 0002:0000b114       ??_C@_0BG@GJPBALAP@UNKNOWN?5opcode?5?$CI?$CFu?$CJ?$CB?6?$AA@ 00442e14     ecma-regexp-object.obj
 0002:0000b12c       ??_C@_0BI@EEEOKLIH@ecma_regexp_exec_helper?$AA@ 00442e2c     ecma-regexp-object.obj
 0002:0000b144       ??_C@_0CE@FADCBJBB@ecma_is_value_object?5?$CIregexp_val@ 00442e44     ecma-regexp-object.obj
 0002:0000b168       ??_C@_0CE@CEHDNJHL@ecma_is_value_string?5?$CIinput_stri@ 00442e68     ecma-regexp-object.obj
 0002:0000b190       ??_C@_0ED@LFOHBNDA@ecma_object_class_is?5?$CIregexp_obj@ 00442e90     ecma-regexp-object.obj
 0002:0000b1d4       ??_C@_0DN@CFLIKGGA@Exec?5with?5flags?5?$FLglobal?3?5?$CFd?0?5ign@ 00442ed4     ecma-regexp-object.obj
 0002:0000b214       ??_C@_0CA@PKJKHNLN@re_ctx?4num_of_captures?5?$CF?52?5?$DN?$DN?50?$AA@ 00442f14     ecma-regexp-object.obj
 0002:0000b234       ??_C@_0CD@OBGDBELG@ecma_number_is_nan?5?$CIlastindex_nu@ 00442f34     ecma-regexp-object.obj
 0002:0000b258       ??_C@_0CG@NNCHHHFO@?$CBecma_is_value_object?5?$CIcapture_v@ 00442f58     ecma-regexp-object.obj
 0002:0000b280       ??_C@_0BK@EKODDBFN@num_of_iter_p___size?5?$CB?$DN?50?$AA@ 00442f80     ecma-regexp-object.obj
 0002:0000b29c       ??_C@_0BK@OPPDELNO@num_of_iter_p___size?5?$DN?$DN?50?$AA@ 00442f9c     ecma-regexp-object.obj
 0002:0000b2b8       ??_C@_0BE@CNMKBEAJ@saved_p___size?5?$CB?$DN?50?$AA@ 00442fb8     ecma-regexp-object.obj
 0002:0000b2cc       ??_C@_0BE@IINKGOIK@saved_p___size?5?$DN?$DN?50?$AA@ 00442fcc     ecma-regexp-object.obj
 0002:0000b2e0       ??_C@_0BH@DAFNBFIN@input_buffer_p?5?$CB?$DN?5NULL?$AA@ 00442fe0     ecma-regexp-object.obj
 0002:0000b2f8       ??_C@_0BN@JJHAFJLB@ecma_op_create_string_object?$AA@ 00442ff8     ecma-string-object.obj
 0002:0000b318       ??_C@_0CF@IBLFFHIE@ecma?2operations?2ecma?9string?9obje@ 00443018     ecma-string-object.obj
 0002:0000b340       ??_C@_0CI@HIEAGJHA@ecma_is_value_string?5?$CIto_str_arg@ 00443040     ecma-string-object.obj
 0002:0000b368       ??_C@_0CI@HJILLCHG@ecma_op_string_list_lazy_propert@ 00443068     ecma-string-object.obj
 0002:0000b390       ??_C@_0DH@JGNGDCGD@ecma_get_object_type?5?$CIobj_p?$CJ?5?$DN?$DN?5@ 00443090     ecma-string-object.obj
 0002:0000b3c8       ??_C@_0EC@CJOJMJMK@ext_object_p?9?$DOu?4class_prop?4class@ 004430c8     ecma-string-object.obj
 0002:0000b40c       ??_C@_09MLGAJAED@undefined?$AA@ 0044310c     entry.obj
 0002:0000b418       ??_C@_06EBGNBFIA@number?$AA@ 00443118     entry.obj
 0002:0000b420       ??_C@_0BG@HJGPFOJH@Mem?5allocate?5error?4?$AN?6?$AA@ 00443120     entry.obj
 0002:0000b438       ??_C@_02DKCKIIND@?$CFs?$AA@ 00443138     entry.obj
 0002:0000b43c       ??_C@_0M@LFNHLJLD@?$FLJS?5object?$FN?$AA@ 0044313c     entry.obj
 0002:0000b448       ??_C@_02PCIJFNDE@?$AN?6?$AA@ 00443148     entry.obj
 0002:0000b44c       ??_C@_02LLMPMKNF@?$DO?5?$AA@ 0044314c     entry.obj
 0002:0000b450       ??_C@_0CE@HFLIBACC@Failed?5to?5allocate?5script?5buffer@ 00443150     entry.obj
 0002:0000b474       ??_C@_0CP@MAKOGAEG@Get?5user?5script?5OK?$FLlen?5?$DN?5?$CFd?$FN?0beg@ 00443174     entry.obj
 0002:0000b4a4       ??_C@_0CB@LHPEGPAA@Unhandled?5JS?5exception?5occured?3?5@ 004431a4     entry.obj
 0002:0000b4c8       ??_C@_0BO@JIDMIFDA@Fatal?5error?5with?5code?5?$DN?5?$CFd?4?$AN?6?$AA@ 004431c8     hellox-port.obj
 0002:0000b4e8       ??_C@_0BL@DGHCKBMM@JERRY_LOG?$FLlevel?5?$DN?5?$CFd?$FN?3?$CFs?$AN?6?$AA@ 004431e8     hellox-port.obj
 0002:0000b508       __real@3c91a62633145c07    00443208     acos.obj
 0002:0000b510       __real@3f023de10dfdf709    00443210     acos.obj
 0002:0000b518       __real@3f49efe07501b288    00443218     acos.obj
 0002:0000b520       __real@3fa48228b5688f3b    00443220     acos.obj
 0002:0000b528       __real@3fb3b8c5b12e9282    00443228     acos.obj
 0002:0000b530       __real@3fc5555555555555    00443230     acos.obj
 0002:0000b538       __real@3fc9c1550e884455    00443238     acos.obj
 0002:0000b540       __real@3fd4d61203eb6f7d    00443240     acos.obj
 0002:0000b548       __real@3fe6066c1b8d0159    00443248     acos.obj
 0002:0000b550       __real@3ff921fb54442d18    00443250     acos.obj
 0002:0000b558       __real@40002ae59c598ac8    00443258     acos.obj
 0002:0000b560       __real@40033a271c8a2d4b    00443260     acos.obj
 0002:0000b568       __real@400921fb54442d18    00443268     acos.obj
 0002:0000b570       __real@3fe921fb54442d18    00443270     asin.obj
 0002:0000b578       __real@7e37e43c8800759c    00443278     asin.obj
 0002:0000b5c0       __real@3f90ad3ae322da11    004432c0     atan.obj
 0002:0000b5c8       __real@3fa2b4442c6a6c2f    004432c8     atan.obj
 0002:0000b5d0       __real@3fa97b4b24760deb    004432d0     atan.obj
 0002:0000b5d8       __real@3fb10d66a0d03d51    004432d8     atan.obj
 0002:0000b5e0       __real@3fb3b0f2af749a6d    004432e0     atan.obj
 0002:0000b5e8       __real@3fb745cdc54c206e    004432e8     atan.obj
 0002:0000b5f0       __real@3fbc71c6fe231671    004432f0     atan.obj
 0002:0000b5f8       __real@3fc24924920083ff    004432f8     atan.obj
 0002:0000b600       __real@3fc999999998ebc4    00443300     atan.obj
 0002:0000b608       __real@3fd555555555550d    00443308     atan.obj
 0002:0000b610       __real@3ff8000000000000    00443310     atan.obj
 0002:0000b618       __real@bfadde2d52defd9a    00443318     atan.obj
 0002:0000b620       __real@bff921fb54442d18    00443320     atan.obj
 0002:0000b628       __real@3ca1a62633145c07    00443328     atan2.obj
 0002:0000b630       __real@4002d97c7f3321d2    00443330     atan2.obj
 0002:0000b638       __real@bfe921fb54442d18    00443338     atan2.obj
 0002:0000b640       __real@c002d97c7f3321d2    00443340     atan2.obj
 0002:0000b648       __real@c00921fb54442d18    00443348     atan2.obj
 0002:0000b680       __real@0170000000000000    00443380     exp.obj
 0002:0000b688       __real@3dea39ef35793c76    00443388     exp.obj
 0002:0000b690       __real@3e66376972bea4d0    00443390     exp.obj
 0002:0000b698       __real@3ebbbd41c5d26bf1    00443398     exp.obj
 0002:0000b6a0       __real@3f11566aaf25de2c    004433a0     exp.obj
 0002:0000b6a8       __real@3f66c16c16bebd93    004433a8     exp.obj
 0002:0000b6b0       __real@3fc555555555553e    004433b0     exp.obj
 0002:0000b6b8       __real@3fe62e42fee00000    004433b8     exp.obj
 0002:0000b6c0       __real@3ff71547652b82fe    004433c0     exp.obj
 0002:0000b6c8       __real@40862e42fefa39ef    004433c8     exp.obj
 0002:0000b6d0       __real@c0874910d52d3051    004433d0     exp.obj
 0002:0000b6d8       ??_C@_0DC@FADMLJML@?$AN?6BUG?5oencountered?4?$AN?6File?5name?3?5@ 004433d8     kapi.obj
 0002:0000b750       __real@01a56e1fc2f8f359    00443450     pow.obj
 0002:0000b758       __real@3c971547652b82fe    00443458     pow.obj
 0002:0000b760       __real@3e205c610ca86c39    00443460     pow.obj
 0002:0000b768       __real@3e3e2fe0145b01f5    00443468     pow.obj
 0002:0000b770       __real@3e54ae0bf85ddf44    00443470     pow.obj
 0002:0000b778       __real@3fca7e284a454eef    00443478     pow.obj
 0002:0000b780       __real@3fcd864a93c9db65    00443480     pow.obj
 0002:0000b788       __real@3fd17460a91d4101    00443488     pow.obj
 0002:0000b790       __real@3fd55555518f264d    00443490     pow.obj
 0002:0000b798       __real@3fd5555555555555    00443498     pow.obj
 0002:0000b7a0       __real@3fdb6db6db6fabff    004434a0     pow.obj
 0002:0000b7a8       __real@3fe3333333333303    004434a8     pow.obj
 0002:0000b7b0       __real@3fe62e42fefa39ef    004434b0     pow.obj
 0002:0000b7b8       __real@3fe62e4300000000    004434b8     pow.obj
 0002:0000b7c0       __real@3feec709dc3a03fd    004434c0     pow.obj
 0002:0000b7c8       __real@3feec709e0000000    004434c8     pow.obj
 0002:0000b7d0       __real@3ff7154760000000    004434d0     pow.obj
 0002:0000b7d8       __real@4340000000000000    004434d8     pow.obj
 0002:0000b7e0       __real@3c90000000000000    004434e0     scalbn.obj
 0002:0000b7e8       __real@4350000000000000    004434e8     scalbn.obj
 0002:0000b7f0       ??_C@_0CF@DLEKIKA@0123456789abcdefghijklmnopqrstuv@ 004434f0     stdio.obj
 0002:0000b818       ??_C@_0CF@GDODPGFN@0123456789ABCDEFGHIJKLMNOPQRSTUV@ 00443518     stdio.obj
 0002:0000b840       ??_C@_06CBHGEMFM@?$DMNULL?$DO?$AA@ 00443540     stdio.obj
 0002:0000b848       ??_C@_0P@BMJIDPI@hxlib?2sysmem?4c?$AA@ 00443548     sysmem.obj
 0002:0000b858       ___dnames                  00443558     time.obj
 0002:0000b870       ___mnames                  00443570     time.obj
 0002:0000ba70       __real@397b839a252049c1    00443770     trig.obj
 0002:0000ba78       __real@3ba3198a2e000000    00443778     trig.obj
 0002:0000ba80       __real@3ba3198a2e037073    00443780     trig.obj
 0002:0000ba88       __real@3c81a62633145c07    00443788     trig.obj
 0002:0000ba90       __real@3da8fae9be8838d4    00443790     trig.obj
 0002:0000ba98       __real@3dd0b4611a600000    00443798     trig.obj
 0002:0000baa0       __real@3dd0b4611a626331    004437a0     trig.obj
 0002:0000baa8       __real@3de5d93a5acfd57c    004437a8     trig.obj
 0002:0000bab0       __real@3e21ee9ebdb4b1c4    004437b0     trig.obj
 0002:0000bab8       __real@3e5ae5e68a2b9ceb    004437b8     trig.obj
 0002:0000bac0       __real@3e70000000000000    004437c0     trig.obj
 0002:0000bac8       __real@3e927e4f809c52ad    004437c8     trig.obj
 0002:0000bad0       __real@3ec71de357b1fe7d    004437d0     trig.obj
 0002:0000bad8       __real@3ef375cbdb605373    004437d8     trig.obj
 0002:0000bae0       __real@3efa01a019cb1590    004437e0     trig.obj
 0002:0000bae8       __real@3efb2a7074bf7ad4    004437e8     trig.obj
 0002:0000baf0       __real@3f12b80f32f0a7e9    004437f0     trig.obj
 0002:0000baf8       __real@3f147e88a03792a6    004437f8     trig.obj
 0002:0000bb00       __real@3f2a01a019c161d5    00443800     trig.obj
 0002:0000bb08       __real@3f3026f71a8d1068    00443808     trig.obj
 0002:0000bb10       __real@3f4344d8f2f26501    00443810     trig.obj
 0002:0000bb18       __real@3f56c16c16c15177    00443818     trig.obj
 0002:0000bb20       __real@3f57dbc8fee08315    00443820     trig.obj
 0002:0000bb28       __real@3f6d6d22c9560328    00443828     trig.obj
 0002:0000bb30       __real@3f8111111110f8a6    00443830     trig.obj
 0002:0000bb38       __real@3f8226e3e96e8493    00443838     trig.obj
 0002:0000bb40       __real@3f9664f48406d637    00443840     trig.obj
 0002:0000bb48       __real@3fa555555555554c    00443848     trig.obj
 0002:0000bb50       __real@3faba1ba1bb341fe    00443850     trig.obj
 0002:0000bb58       __real@3fc0000000000000    00443858     trig.obj
 0002:0000bb60       __real@3fc111111110fe7a    00443860     trig.obj
 0002:0000bb68       __real@3fc5555555555549    00443868     trig.obj
 0002:0000bb70       __real@3fd2000000000000    00443870     trig.obj
 0002:0000bb78       __real@3fd5555555555563    00443878     trig.obj
 0002:0000bb80       __real@3fe45f306dc9c883    00443880     trig.obj
 0002:0000bb88       __real@3ff921fb54400000    00443888     trig.obj
 0002:0000bb90       __real@4170000000000000    00443890     trig.obj
 0002:0000bb98       __real@bfc5555555555549    00443898     trig.obj
 0002:0000bba0       ??_C@_0BL@IBNEJIKD@jerry_assert_api_available?$AA@ 004438a0     jerry.obj
 0002:0000bbbc       ??_C@_07KNLEFMFK@jerry?4c?$AA@ 004438bc     jerry.obj
 0002:0000bbc4       ??_C@_0L@OGELMEKO@jerry_init?$AA@ 004438c4     jerry.obj
 0002:0000bbd0       ??_C@_0BG@GCAMHPCC@jmem_compress_pointer?$AA@ 004438d0     jmem-allocator.obj
 0002:0000bbe8       ??_C@_0BG@LCGFBLEC@jmem?2jmem?9allocator?4c?$AA@ 004438e8     jmem-allocator.obj
 0002:0000bc00       ??_C@_0BC@NNJELEDG@pointer_p?5?$CB?$DN?5NULL?$AA@ 00443900     jmem-allocator.obj
 0002:0000bc14       ??_C@_0CB@OFANENIG@jmem_is_heap_pointer?5?$CIpointer_p?$CJ@ 00443914     jmem-allocator.obj
 0002:0000bc38       ??_C@_0BP@OOCCKALH@uint_ptr?5?$CF?5JMEM_ALIGNMENT?5?$DN?$DN?50?$AA@ 00443938     jmem-allocator.obj
 0002:0000bc58       ??_C@_0BH@KHFBOJEK@uint_ptr?5?$DM?$DN?5UINT16_MAX?$AA@ 00443958     jmem-allocator.obj
 0002:0000bc70       ??_C@_0BJ@MJPHGOCJ@uint_ptr?5?$CB?$DN?5JMEM_CP_NULL?$AA@ 00443970     jmem-allocator.obj
 0002:0000bc8c       ??_C@_0BI@OIPHBCHP@jmem_decompress_pointer?$AA@ 0044398c     jmem-allocator.obj
 0002:0000bca4       ??_C@_0CD@DJLLEJNL@compressed_pointer?5?$CB?$DN?5JMEM_CP_NU@ 004439a4     jmem-allocator.obj
 0002:0000bcc8       ??_C@_0CJ@GJHIDJCH@?$CI?$CIjmem_cpointer_t?$CJ?5uint_ptr?$CJ?5?$DN?$DN?5@ 004439c8     jmem-allocator.obj
 0002:0000bcf4       ??_C@_0CJ@CLFGEADO@jmem_is_heap_pointer?5?$CI?$CIvoid?5?$CK?$CJ?5u@ 004439f4     jmem-allocator.obj
 0002:0000bd20       ??_C@_0CK@PPODMNME@jmem_register_free_unused_memory@ 00443a20     jmem-allocator.obj
 0002:0000bd4c       ??_C@_0DJ@HGLBEAPP@JERRY_CONTEXT?5?$CIjmem_free_unused_@ 00443a4c     jmem-allocator.obj
 0002:0000bd88       ??_C@_0CM@FFOJIBAB@jmem_unregister_free_unused_memo@ 00443a88     jmem-allocator.obj
 0002:0000bdb4       ??_C@_0DN@PMPPLHEG@JERRY_CONTEXT?5?$CIjmem_free_unused_@ 00443ab4     jmem-allocator.obj
 0002:0000bdf4       ??_C@_0P@OCOGIFME@jmem_heap_init?$AA@ 00443af4     jmem-heap.obj
 0002:0000be04       ??_C@_0BB@GMMGHDMJ@jmem?2jmem?9heap?4c?$AA@ 00443b04     jmem-heap.obj
 0002:0000be18       ??_C@_0DM@GMLNIOCJ@?$CIuintptr_t?$CJ?5JERRY_HEAP_CONTEXT?5?$CI@ 00443b18     jmem-heap.obj
 0002:0000be54       ??_C@_0BD@EADBEMML@jmem_heap_finalize?$AA@ 00443b54     jmem-heap.obj
 0002:0000be68       ??_C@_0CO@GPBCIGJA@JERRY_CONTEXT?5?$CIjmem_heap_allocat@ 00443b68     jmem-heap.obj
 0002:0000be98       ??_C@_0BP@CKCJMIPM@jmem_heap_alloc_block_internal?$AA@ 00443b98     jmem-heap.obj
 0002:0000beb8       ??_C@_0CE@BDOPLKKN@jmem_is_heap_pointer?5?$CIdata_space@ 00443bb8     jmem-heap.obj
 0002:0000bedc       ??_C@_0CE@KBDGICIB@data_space_p?9?$DOsize?5?$DO?5JMEM_ALIGNM@ 00443bdc     jmem-heap.obj
 0002:0000bf00       ??_C@_0CB@MDDKJELM@jmem_is_heap_pointer?5?$CIcurrent_p?$CJ@ 00443c00     jmem-heap.obj
 0002:0000bf28       ??_C@_0GM@INEIHFCH@next_offset?5?$DN?$DN?5JMEM_HEAP_END_OF_@ 00443c28     jmem-heap.obj
 0002:0000bf94       ??_C@_0CP@HGFHECJF@?$CIuintptr_t?$CJ?5data_space_p?5?$CF?5JMEM_@ 00443c94     jmem-heap.obj
 0002:0000bfc4       ??_C@_0BF@DBPMKDGI@jmem_heap_free_block?$AA@ 00443cc4     jmem-heap.obj
 0002:0000bfdc       ??_C@_0BL@CNNLMOMP@jmem_is_heap_pointer?5?$CIptr?$CJ?$AA@ 00443cdc     jmem-heap.obj
 0002:0000bff8       ??_C@_08DJGDGONI@size?5?$DO?50?$AA@ 00443cf8     jmem-heap.obj
 0002:0000c008       ??_C@_0EM@FFMDAOBI@JERRY_CONTEXT?5?$CIjmem_heap_limit?$CJ?5@ 00443d08     jmem-heap.obj
 0002:0000c054       ??_C@_0BO@JENCFEPM@jmem_is_heap_pointer?5?$CInext_p?$CJ?$AA@ 00443d54     jmem-heap.obj
 0002:0000c074       ??_C@_0CN@MIKBMMOG@JERRY_CONTEXT?5?$CIjmem_heap_allocat@ 00443d74     jmem-heap.obj
 0002:0000c0a4       ??_C@_0BE@KEKIBCFJ@jmem_pools_finalize?$AA@ 00443da4     jmem-poolman.obj
 0002:0000c0b8       ??_C@_0BE@KIDOLHAF@jmem?2jmem?9poolman?4c?$AA@ 00443db8     jmem-poolman.obj
 0002:0000c0cc       ??_C@_0DB@JKHJMBEI@JERRY_CONTEXT?5?$CIjmem_free_8_byte_@ 00443dcc     jmem-poolman.obj
 0002:0000c100       ??_C@_0BB@EKOINEIO@jmem_pools_alloc?$AA@ 00443e00     jmem-poolman.obj
 0002:0000c114       ??_C@_0BA@BEBCNADP@jmem_pools_free?$AA@ 00443e14     jmem-poolman.obj
 0002:0000c124       ??_C@_0BA@BHAFCHNL@chunk_p?5?$CB?$DN?5NULL?$AA@ 00443e24     jmem-poolman.obj
 0002:0000c134       ??_C@_0BK@JJIHPDFD@Error?3?5ERR_OUT_OF_MEMORY?6?$AA@ 00443e34     jrt-fatals.obj
 0002:0000c150       ??_C@_0BM@OEMCFOKC@Error?3?5ERR_REF_COUNT_LIMIT?6?$AA@ 00443e50     jrt-fatals.obj
 0002:0000c16c       ??_C@_0CG@DJACBGBI@Error?3?5ERR_FAILED_INTERNAL_ASSER@ 00443e6c     jrt-fatals.obj
 0002:0000c194       ??_C@_0CL@DNPDEKPG@ICE?3?5Assertion?5?8?$CFs?8?5failed?5at?5?$CFs@ 00443e94     jrt-fatals.obj
 0002:0000c1c0       ??_C@_0DL@HMNNJHEB@ICE?3?5Unreachable?5control?5path?5at@ 00443ec0     jrt-fatals.obj
 0002:0000c660       ??_C@_0BE@OBHPDLJJ@lit_char_hex_to_int?$AA@ 00444360     lit-char-helpers.obj
 0002:0000c674       ??_C@_0BH@BMMGOJFF@lit?2lit?9char?9helpers?4c?$AA@ 00444374     lit-char-helpers.obj
 0002:0000c68c       ??_C@_0BK@MOJMCILD@lit_char_is_hex_digit?5?$CIc?$CJ?$AA@ 0044438c     lit-char-helpers.obj
 0002:0000c6a8       ??_C@_0BH@OMHHLBCG@lit_char_to_utf8_bytes?$AA@ 004443a8     lit-char-helpers.obj
 0002:0000c6c0       ??_C@_0CJ@HAHPLMDA@?$CB?$CIchr?5?$CG?5?$HOLIT_UTF8_3_BYTE_CODE_PO@ 004443c0     lit-char-helpers.obj
 0002:0000c6ec       ??_C@_0BJ@JLBGOKCH@lit_char_get_utf8_length?$AA@ 004443ec     lit-char-helpers.obj
 0002:0000c708       ??_C@_0BM@LEPGEHMF@lit_read_code_unit_from_hex?$AA@ 00444408     lit-char-helpers.obj
 0002:0000c724       ??_C@_0DH@ONBFOHBL@number_of_characters?5?$DO?$DN?52?5?$CG?$CG?5num@ 00444424     lit-char-helpers.obj
 0002:0000c75c       ??_C@_0BH@MMDAIPOG@lit_char_to_lower_case?$AA@ 0044445c     lit-char-helpers.obj
 0002:0000c774       ??_C@_0CN@PEAKPILJ@buffer_size?5?$DO?$DN?5LIT_MAXIMUM_OTHER@ 00444474     lit-char-helpers.obj
 0002:0000c7a4       ??_C@_0BH@KLEPMCAE@lit_char_to_upper_case?$AA@ 004444a4     lit-char-helpers.obj
 0002:0000ccd0       ??_C@_00CNPNBAHC@?$AA@     004449d0     lit-magic-strings.obj
 0002:0000ccd4       ??_C@_01BJJEKLCA@?$CC?$AA@ 004449d4     lit-magic-strings.obj
 0002:0000ccd8       ??_C@_01ODHLEDKK@?$CI?$AA@ 004449d8     lit-magic-strings.obj
 0002:0000ccdc       ??_C@_01PKGAHCOL@?$CJ?$AA@ 004449dc     lit-magic-strings.obj
 0002:0000cce0       ??_C@_01IHBHIGKO@?0?$AA@   004449e0     lit-magic-strings.obj
 0002:0000cce4       ??_C@_01LFCBOECM@?4?$AA@   004449e4     lit-magic-strings.obj
 0002:0000cce8       ??_C@_01KMDKNFGN@?1?$AA@   004449e8     lit-magic-strings.obj
 0002:0000ccec       ??_C@_01JLIPDDHJ@?3?$AA@   004449ec     lit-magic-strings.obj
 0002:0000ccf0       ??_C@_01DDCIFGEA@E?$AA@    004449f0     lit-magic-strings.obj
 0002:0000ccf4       ??_C@_01GAPBHFFA@T?$AA@    004449f4     lit-magic-strings.obj
 0002:0000ccf8       ??_C@_01POHCFINO@Z?$AA@    004449f8     lit-magic-strings.obj
 0002:0000ccfc       ??_C@_01OHGJGJJP@?$FL?$AA@ 004449fc     lit-magic-strings.obj
 0002:0000cd00       ??_C@_01KICIPPFI@?2?$AA@   00444a00     lit-magic-strings.obj
 0002:0000cd04       ??_C@_01LBDDMOBJ@?$FN?$AA@ 00444a04     lit-magic-strings.obj
 0002:0000cd08       ??_C@_01JEJKBAGA@g?$AA@    00444a08     lit-magic-strings.obj
 0002:0000cd0c       ??_C@_01KBJDNOO@i?$AA@     00444a0c     lit-magic-strings.obj
 0002:0000cd10       ??_C@_01GOHFPIOK@m?$AA@    00444a10     lit-magic-strings.obj
 0002:0000cd14       ??_C@_01HCONENDN@?$HL?$AA@ 00444a14     lit-magic-strings.obj
 0002:0000cd18       ??_C@_01CELHOKLL@?$HN?$AA@ 00444a18     lit-magic-strings.obj
 0002:0000cd1c       ??_C@_02ENLJPMBB@PI?$AA@   00444a1c     lit-magic-strings.obj
 0002:0000cd20       ??_C@_03JIANDDNN@LN2?$AA@  00444a20     lit-magic-strings.obj
 0002:0000cd24       ??_C@_03ICJPMMHB@NaN?$AA@  00444a24     lit-magic-strings.obj
 0002:0000cd28       ??_C@_03JCIJEFNJ@UTC?$AA@  00444a28     lit-magic-strings.obj
 0002:0000cd2c       ??_C@_03BCGAIFPO@abs?$AA@  00444a2c     lit-magic-strings.obj
 0002:0000cd30       ??_C@_03LALBNOCG@cos?$AA@  00444a30     lit-magic-strings.obj
 0002:0000cd34       ??_C@_03KHJOGHMM@exp?$AA@  00444a34     lit-magic-strings.obj
 0002:0000cd38       ??_C@_03HNAFFKGA@get?$AA@  00444a38     lit-magic-strings.obj
 0002:0000cd3c       ??_C@_03MGHMBJCF@log?$AA@  00444a3c     lit-magic-strings.obj
 0002:0000cd40       ??_C@_03HBNNNHNM@map?$AA@  00444a40     lit-magic-strings.obj
 0002:0000cd44       ??_C@_03LJAEFNNE@max?$AA@  00444a44     lit-magic-strings.obj
 0002:0000cd48       ??_C@_03KLIPLJLL@min?$AA@  00444a48     lit-magic-strings.obj
 0002:0000cd4c       ??_C@_03CGLHMDPP@now?$AA@  00444a4c     lit-magic-strings.obj
 0002:0000cd50       ??_C@_03NJDAHFJE@pop?$AA@  00444a50     lit-magic-strings.obj
 0002:0000cd54       ??_C@_03JGHBODFD@pow?$AA@  00444a54     lit-magic-strings.obj
 0002:0000cd58       ??_C@_03KCHOJKKI@set?$AA@  00444a58     lit-magic-strings.obj
 0002:0000cd5c       ??_C@_03BLEJJJBH@sin?$AA@  00444a5c     lit-magic-strings.obj
 0002:0000cd60       ??_C@_03IIINPABG@tan?$AA@  00444a60     lit-magic-strings.obj
 0002:0000cd64       ??_C@_04NJOHLHN@?$CI?$DP?3?$CJ?$AA@ 00444a64     lit-magic-strings.obj
 0002:0000cd6c       ??_C@_04FMEGDJGD@Date?$AA@ 00444a6c     lit-magic-strings.obj
 0002:0000cd74       ??_C@_04OHBKEADA@JSON?$AA@ 00444a74     lit-magic-strings.obj
 0002:0000cd7c       ??_C@_04CFPKCLPA@LN10?$AA@ 00444a7c     lit-magic-strings.obj
 0002:0000cd84       ??_C@_04OEPICFFP@Math?$AA@ 00444a84     lit-magic-strings.obj
 0002:0000cd8c       ??_C@_04KHKKIIL@Null?$AA@  00444a8c     lit-magic-strings.obj
 0002:0000cd94       ??_C@_04PDIFKINK@acos?$AA@ 00444a94     lit-magic-strings.obj
 0002:0000cd9c       ??_C@_04FIHNOPOL@asin?$AA@ 00444a9c     lit-magic-strings.obj
 0002:0000cda4       ??_C@_04MLLJIGOK@atan?$AA@ 00444aa4     lit-magic-strings.obj
 0002:0000cdac       ??_C@_04NPNJNMMP@bind?$AA@ 00444aac     lit-magic-strings.obj
 0002:0000cdb4       ??_C@_04OMFAIDPG@call?$AA@ 00444ab4     lit-magic-strings.obj
 0002:0000cdbc       ??_C@_04GFPJNGEK@ceil?$AA@ 00444abc     lit-magic-strings.obj
 0002:0000cdc4       ??_C@_04KGAGIKCD@eval?$AA@ 00444ac4     lit-magic-strings.obj
 0002:0000cdcc       ??_C@_04MGEIEJAD@exec?$AA@ 00444acc     lit-magic-strings.obj
 0002:0000cdd4       ??_C@_04DFGCDGNN@join?$AA@ 00444ad4     lit-magic-strings.obj
 0002:0000cddc       ??_C@_04IEPFDAGF@keys?$AA@ 00444adc     lit-magic-strings.obj
 0002:0000cde4       ??_C@_04MEMAJGDJ@name?$AA@ 00444ae4     lit-magic-strings.obj
 0002:0000cdec       ??_C@_04GHHNIPCF@push?$AA@ 00444aec     lit-magic-strings.obj
 0002:0000cdf4       ??_C@_04LAKBAHA@seal?$AA@  00444af4     lit-magic-strings.obj
 0002:0000cdfc       ??_C@_04LMGPLCDJ@some?$AA@ 00444afc     lit-magic-strings.obj
 0002:0000ce04       ??_C@_04PIMMHFGE@sort?$AA@ 00444b04     lit-magic-strings.obj
 0002:0000ce0c       ??_C@_04EIAKFFMI@sqrt?$AA@ 00444b0c     lit-magic-strings.obj
 0002:0000ce14       ??_C@_04CEJDCDCH@test?$AA@ 00444b14     lit-magic-strings.obj
 0002:0000ce1c       ??_C@_04GDOMMDLP@trim?$AA@ 00444b1c     lit-magic-strings.obj
 0002:0000ce24       ??_C@_05HPPFDPIF@Array?$AA@ 00444b24     lit-magic-strings.obj
 0002:0000ce2c       ??_C@_05NAOIJFC@Error?$AA@ 00444b2c     lit-magic-strings.obj
 0002:0000ce34       ??_C@_05NJJCJJPN@Jerry?$AA@ 00444b34     lit-magic-strings.obj
 0002:0000ce3c       ??_C@_05EACGLBOJ@LOG2E?$AA@ 00444b3c     lit-magic-strings.obj
 0002:0000ce44       ??_C@_05CGJFNHEK@SQRT2?$AA@ 00444b44     lit-magic-strings.obj
 0002:0000ce4c       ??_C@_05KAEIDCAL@apply?$AA@ 00444b4c     lit-magic-strings.obj
 0002:0000ce54       ??_C@_05KNGEOGJB@atan2?$AA@ 00444b54     lit-magic-strings.obj
 0002:0000ce5c       ??_C@_05MFOGKMGK@every?$AA@ 00444b5c     lit-magic-strings.obj
 0002:0000ce64       ??_C@_05PBJFFIGL@floor?$AA@ 00444b64     lit-magic-strings.obj
 0002:0000ce6c       ??_C@_05FKHKFDID@index?$AA@ 00444b6c     lit-magic-strings.obj
 0002:0000ce74       ??_C@_05DFJCHPDH@input?$AA@ 00444b74     lit-magic-strings.obj
 0002:0000ce7c       ??_C@_05IDJAHGED@isNaN?$AA@ 00444b7c     lit-magic-strings.obj
 0002:0000ce84       ??_C@_05FNONLPDI@match?$AA@ 00444b84     lit-magic-strings.obj
 0002:0000ce8c       ??_C@_05GOEGCMJM@parse?$AA@ 00444b8c     lit-magic-strings.obj
 0002:0000ce94       ??_C@_05IJDJACGD@print?$AA@ 00444b94     lit-magic-strings.obj
 0002:0000ce9c       ??_C@_05MIMAKCN@round?$AA@ 00444b9c     lit-magic-strings.obj
 0002:0000cea4       ??_C@_05CLOOKOFG@shift?$AA@ 00444ba4     lit-magic-strings.obj
 0002:0000ceac       ??_C@_05ILHMOJGN@slice?$AA@ 00444bac     lit-magic-strings.obj
 0002:0000ceb4       ??_C@_05EHPMMFBK@split?$AA@ 00444bb4     lit-magic-strings.obj
 0002:0000cebc       ??_C@_05MFEJDJP@value?$AA@ 00444bbc     lit-magic-strings.obj
 0002:0000cec4       ??_C@_06BEBHMCHI@LOG10E?$AA@ 00444bc4     lit-magic-strings.obj
 0002:0000cecc       ??_C@_06IONACMBM@Number?$AA@ 00444bcc     lit-magic-strings.obj
 0002:0000ced4       ??_C@_06ELFECKBG@Object?$AA@ 00444bd4     lit-magic-strings.obj
 0002:0000cedc       ??_C@_06HMOFAFLK@RegExp?$AA@ 00444bdc     lit-magic-strings.obj
 0002:0000cee4       ??_C@_06CLBDIDBH@Source?$AA@ 00444be4     lit-magic-strings.obj
 0002:0000ceec       ??_C@_06ENNEIMBA@String?$AA@ 00444bec     lit-magic-strings.obj
 0002:0000cef4       ??_C@_06GAMBOONI@callee?$AA@ 00444bf4     lit-magic-strings.obj
 0002:0000cefc       ??_C@_06GFECGKEO@caller?$AA@ 00444bfc     lit-magic-strings.obj
 0002:0000cf04       ??_C@_06GDAFJGCB@charAt?$AA@ 00444c04     lit-magic-strings.obj
 0002:0000cf0c       ??_C@_06CMLIEHFC@concat?$AA@ 00444c0c     lit-magic-strings.obj
 0002:0000cf14       ??_C@_06HBNONAG@create?$AA@ 00444c14     lit-magic-strings.obj
 0002:0000cf1c       ??_C@_06CHNIFGOF@escape?$AA@ 00444c1c     lit-magic-strings.obj
 0002:0000cf24       ??_C@_06EOIELIPE@filter?$AA@ 00444c24     lit-magic-strings.obj
 0002:0000cf2c       ??_C@_06NANJHIPM@freeze?$AA@ 00444c2c     lit-magic-strings.obj
 0002:0000cf34       ??_C@_06NLHHCGMO@getDay?$AA@ 00444c34     lit-magic-strings.obj
 0002:0000cf3c       ??_C@_06FJKEMHGD@global?$AA@ 00444c3c     lit-magic-strings.obj
 0002:0000cf44       ??_C@_06COBEDCMA@isView?$AA@ 00444c44     lit-magic-strings.obj
 0002:0000cf4c       ??_C@_06IJDLPEM@length?$AA@ 00444c4c     lit-magic-strings.obj
 0002:0000cf54       ??_C@_06IEOJBDIK@object?$AA@ 00444c54     lit-magic-strings.obj
 0002:0000cf5c       ??_C@_06NLFCANPD@random?$AA@ 00444c5c     lit-magic-strings.obj
 0002:0000cf64       ??_C@_06CDBFBENC@reduce?$AA@ 00444c64     lit-magic-strings.obj
 0002:0000cf6c       ??_C@_06GFPLNGOC@search?$AA@ 00444c6c     lit-magic-strings.obj
 0002:0000cf74       ??_C@_06OEKOLKIL@source?$AA@ 00444c74     lit-magic-strings.obj
 0002:0000cf7c       ??_C@_06PMMGCPKI@splice?$AA@ 00444c7c     lit-magic-strings.obj
 0002:0000cf84       ??_C@_06ICGJLFIM@string?$AA@ 00444c84     lit-magic-strings.obj
 0002:0000cf8c       ??_C@_06DAHFIGOC@substr?$AA@ 00444c8c     lit-magic-strings.obj
 0002:0000cf94       ??_C@_06FNNBCBOE@toJSON?$AA@ 00444c94     lit-magic-strings.obj
 0002:0000cf9c       ??_C@_07JHGIBOMG@Boolean?$AA@ 00444c9c     lit-magic-strings.obj
 0002:0000cfa4       ??_C@_07IKAEFEHP@SQRT1_2?$AA@ 00444ca4     lit-magic-strings.obj
 0002:0000cfac       ??_C@_07GOBOHMJA@boolean?$AA@ 00444cac     lit-magic-strings.obj
 0002:0000cfb4       ??_C@_07OLJGFCKG@compile?$AA@ 00444cb4     lit-magic-strings.obj
 0002:0000cfbc       ??_C@_07EDHBMKOF@forEach?$AA@ 00444cbc     lit-magic-strings.obj
 0002:0000cfc4       ??_C@_07GMFFJECA@getDate?$AA@ 00444cc4     lit-magic-strings.obj
 0002:0000cfcc       ??_C@_07NKPGLDLC@getTime?$AA@ 00444ccc     lit-magic-strings.obj
 0002:0000cfd4       ??_C@_07GECJLFEJ@getYear?$AA@ 00444cd4     lit-magic-strings.obj
 0002:0000cfdc       ??_C@_07KKKNJHGA@indexOf?$AA@ 00444cdc     lit-magic-strings.obj
 0002:0000cfe4       ??_C@_07LJDBDAGJ@isArray?$AA@ 00444ce4     lit-magic-strings.obj
 0002:0000cfec       ??_C@_07ONPBMBOP@message?$AA@ 00444cec     lit-magic-strings.obj
 0002:0000cff4       ??_C@_07CLEHDIEJ@replace?$AA@ 00444cf4     lit-magic-strings.obj
 0002:0000cffc       ??_C@_07KOIEOCCE@reverse?$AA@ 00444cfc     lit-magic-strings.obj
 0002:0000d004       ??_C@_07JEKEKLPB@setDate?$AA@ 00444d04     lit-magic-strings.obj
 0002:0000d00c       ??_C@_07CCAHIMGD@setTime?$AA@ 00444d0c     lit-magic-strings.obj
 0002:0000d014       ??_C@_07JMNIIKJI@setYear?$AA@ 00444d14     lit-magic-strings.obj
 0002:0000d01c       ??_C@_07GDBMFAKG@toFixed?$AA@ 00444d1c     lit-magic-strings.obj
 0002:0000d024       ??_C@_07MADHHINA@unshift?$AA@ 00444d24     lit-magic-strings.obj
 0002:0000d02c       ??_C@_07NHLOFOKD@valueOf?$AA@ 00444d2c     lit-magic-strings.obj
 0002:0000d034       ??_C@_08PHKOHANG@Function?$AA@ 00444d34     lit-magic-strings.obj
 0002:0000d040       ??_C@_08KEBCLIFP@Infinity?$AA@ 00444d40     lit-magic-strings.obj
 0002:0000d04c       ??_C@_08KEJAPMHH@URIError?$AA@ 00444d4c     lit-magic-strings.obj
 0002:0000d058       ??_C@_08HFFPPCHF@function?$AA@ 00444d58     lit-magic-strings.obj
 0002:0000d064       ??_C@_08FGDHPDOD@getHours?$AA@ 00444d64     lit-magic-strings.obj
 0002:0000d070       ??_C@_08CMFJAFOG@getMonth?$AA@ 00444d70     lit-magic-strings.obj
 0002:0000d07c       ??_C@_08OIJHHKMH@isFinite?$AA@ 00444d7c     lit-magic-strings.obj
 0002:0000d088       ??_C@_08FKEJNC@isFrozen?$AA@ 00444d88     lit-magic-strings.obj
 0002:0000d094       ??_C@_08BLMCJGDA@isSealed?$AA@ 00444d94     lit-magic-strings.obj
 0002:0000d0a0       ??_C@_08LNIBIDJO@parseInt?$AA@ 00444da0     lit-magic-strings.obj
 0002:0000d0ac       ??_C@_08KHBLOAJO@setHours?$AA@ 00444dac     lit-magic-strings.obj
 0002:0000d0b8       ??_C@_08NNHFBGJL@setMonth?$AA@ 00444db8     lit-magic-strings.obj
 0002:0000d0c4       ??_C@_08JCDFGHAO@toString?$AA@ 00444dc4     lit-magic-strings.obj
 0002:0000d0d0       ??_C@_08CDOIKJCG@unescape?$AA@ 00444dd0     lit-magic-strings.obj
 0002:0000d0dc       ??_C@_08IBOGFJJC@writable?$AA@ 00444ddc     lit-magic-strings.obj
 0002:0000d0e8       ??_C@_09BLDCEMOH@?9Infinity?$AA@ 00444de8     lit-magic-strings.obj
 0002:0000d0f4       ??_C@_09LOINMIFK@Arguments?$AA@ 00444df4     lit-magic-strings.obj
 0002:0000d100       ??_C@_09PEDLLAII@EvalError?$AA@ 00444e00     lit-magic-strings.obj
 0002:0000d10c       ??_C@_09GEHJFHHN@MAX_VALUE?$AA@ 00444e0c     lit-magic-strings.obj
 0002:0000d118       ??_C@_09GFHFMNMJ@MIN_VALUE?$AA@ 00444e18     lit-magic-strings.obj
 0002:0000d124       ??_C@_09MGGHOBOJ@TypeError?$AA@ 00444e24     lit-magic-strings.obj
 0002:0000d130       ??_C@_09IEDNJDJD@Undefined?$AA@ 00444e30     lit-magic-strings.obj
 0002:0000d13c       ??_C@_09PBNAMLIK@arguments?$AA@ 00444e3c     lit-magic-strings.obj
 0002:0000d148       ??_C@_09IBPACIEP@decodeURI?$AA@ 00444e48     lit-magic-strings.obj
 0002:0000d154       ??_C@_09OMGHNNKM@encodeURI?$AA@ 00444e54     lit-magic-strings.obj
 0002:0000d160       ??_C@_09ELJPNBKL@getUTCDay?$AA@ 00444e60     lit-magic-strings.obj
 0002:0000d16c       ??_C@_09LFKFIMDC@lastIndex?$AA@ 00444e6c     lit-magic-strings.obj
 0002:0000d178       ??_C@_09HCOPNKIA@multiline?$AA@ 00444e78     lit-magic-strings.obj
 0002:0000d184       ??_C@_09IKDJFMEJ@prototype?$AA@ 00444e84     lit-magic-strings.obj
 0002:0000d190       ??_C@_09LBHKKMMD@stringify?$AA@ 00444e90     lit-magic-strings.obj
 0002:0000d19c       ??_C@_09MJALBNED@substring?$AA@ 00444e9c     lit-magic-strings.obj
 0002:0000d1a8       ??_C@_0L@FOLNACGA@RangeError?$AA@ 00444ea8     lit-magic-strings.obj
 0002:0000d1b4       ??_C@_0L@GGFFFOP@byteLength?$AA@ 00444eb4     lit-magic-strings.obj
 0002:0000d1c0       ??_C@_0L@OMBDKGHG@charCodeAt?$AA@ 00444ec0     lit-magic-strings.obj
 0002:0000d1cc       ??_C@_0L@HIFBHAAB@enumerable?$AA@ 00444ecc     lit-magic-strings.obj
 0002:0000d1d8       ??_C@_0L@HGDPFLOP@getMinutes?$AA@ 00444ed8     lit-magic-strings.obj
 0002:0000d1e4       ??_C@_0L@HAAGFDLD@getSeconds?$AA@ 00444ee4     lit-magic-strings.obj
 0002:0000d1f0       ??_C@_0L@FBBNOJAA@getUTCDate?$AA@ 00444ef0     lit-magic-strings.obj
 0002:0000d1fc       ??_C@_0L@OAIKLFHJ@ignoreCase?$AA@ 00444efc     lit-magic-strings.obj
 0002:0000d208       ??_C@_0L@JFLLOEEB@parseFloat?$AA@ 00444f08     lit-magic-strings.obj
 0002:0000d214       ??_C@_0L@GIBAOMKG@setMinutes?$AA@ 00444f14     lit-magic-strings.obj
 0002:0000d220       ??_C@_0L@GOCJOEPK@setSeconds?$AA@ 00444f20     lit-magic-strings.obj
 0002:0000d22c       ??_C@_0L@EPDCFOEJ@setUTCDate?$AA@ 00444f2c     lit-magic-strings.obj
 0002:0000d238       ??_C@_0M@FAEIKDGL@ArrayBuffer?$AA@ 00444f38     lit-magic-strings.obj
 0002:0000d244       ??_C@_0M@KIDEJCGH@SyntaxError?$AA@ 00444f44     lit-magic-strings.obj
 0002:0000d250       ??_C@_0M@HCIFEBGA@constructor?$AA@ 00444f50     lit-magic-strings.obj
 0002:0000d25c       ??_C@_0M@BBDOLPKO@getFullYear?$AA@ 00444f5c     lit-magic-strings.obj
 0002:0000d268       ??_C@_0M@GNGEJLFG@getUTCHours?$AA@ 00444f68     lit-magic-strings.obj
 0002:0000d274       ??_C@_0M@BHAKGNFD@getUTCMonth?$AA@ 00444f74     lit-magic-strings.obj
 0002:0000d280       ??_C@_0M@EBBPCIAD@lastIndexOf?$AA@ 00444f80     lit-magic-strings.obj
 0002:0000d28c       ??_C@_0M@PGAIKPBL@reduceRight?$AA@ 00444f8c     lit-magic-strings.obj
 0002:0000d298       ??_C@_0M@BOCAGJCN@setFullYear?$AA@ 00444f98     lit-magic-strings.obj
 0002:0000d2a4       ??_C@_0M@GCHKENNF@setUTCHours?$AA@ 00444fa4     lit-magic-strings.obj
 0002:0000d2b0       ??_C@_0M@BIBELLNA@setUTCMonth?$AA@ 00444fb0     lit-magic-strings.obj
 0002:0000d2bc       ??_C@_0M@MNNKEIMB@toGMTString?$AA@ 00444fbc     lit-magic-strings.obj
 0002:0000d2c8       ??_C@_0M@JGMAMMOM@toISOString?$AA@ 00444fc8     lit-magic-strings.obj
 0002:0000d2d4       ??_C@_0M@IMBDOEKL@toLowerCase?$AA@ 00444fd4     lit-magic-strings.obj
 0002:0000d2e0       ??_C@_0M@EKAMMCGJ@toPrecision?$AA@ 00444fe0     lit-magic-strings.obj
 0002:0000d2ec       ??_C@_0M@JIJMNFAM@toUTCString?$AA@ 00444fec     lit-magic-strings.obj
 0002:0000d2f8       ??_C@_0M@COBEMKDA@toUpperCase?$AA@ 00444ff8     lit-magic-strings.obj
 0002:0000d304       ??_C@_0N@ELHPPPLH@Invalid?5Date?$AA@ 00445004     lit-magic-strings.obj
 0002:0000d314       ??_C@_0N@HJEBDEFF@configurable?$AA@ 00445014     lit-magic-strings.obj
 0002:0000d324       ??_C@_0N@NFKBBICO@fromCharCode?$AA@ 00445024     lit-magic-strings.obj
 0002:0000d334       ??_C@_0N@FHIJLJMN@isExtensible?$AA@ 00445034     lit-magic-strings.obj
 0002:0000d344       ??_C@_0N@JCLHMJKC@toDateString?$AA@ 00445044     lit-magic-strings.obj
 0002:0000d354       ??_C@_0N@CPPFLJLH@toTimeString?$AA@ 00445054     lit-magic-strings.obj
 0002:0000d364       ??_C@_0O@KMOENDCL@getUTCMinutes?$AA@ 00445064     lit-magic-strings.obj
 0002:0000d374       ??_C@_0O@KKNNNLHH@getUTCSeconds?$AA@ 00445074     lit-magic-strings.obj
 0002:0000d384       ??_C@_0O@JMONGBAF@isPrototypeOf?$AA@ 00445084     lit-magic-strings.obj
 0002:0000d394       ??_C@_0O@OJGHPGLB@localeCompare?$AA@ 00445094     lit-magic-strings.obj
 0002:0000d3a4       ??_C@_0O@NDPKGAFM@setUTCMinutes?$AA@ 004450a4     lit-magic-strings.obj
 0002:0000d3b4       ??_C@_0O@NFMDGIAA@setUTCSeconds?$AA@ 004450b4     lit-magic-strings.obj
 0002:0000d3c4       ??_C@_0O@IJIGMJGN@toExponential?$AA@ 004450c4     lit-magic-strings.obj
 0002:0000d3d4       ??_C@_0P@NJFCDLEA@ReferenceError?$AA@ 004450d4     lit-magic-strings.obj
 0002:0000d3e4       ??_C@_0P@BBILGIID@defineProperty?$AA@ 004450e4     lit-magic-strings.obj
 0002:0000d3f4       ??_C@_0P@BEDMMGKJ@getPrototypeOf?$AA@ 004450f4     lit-magic-strings.obj
 0002:0000d404       ??_C@_0P@INONGCIP@getUTCFullYear?$AA@ 00445104     lit-magic-strings.obj
 0002:0000d414       ??_C@_0P@DOKNCEBE@hasOwnProperty?$AA@ 00445114     lit-magic-strings.obj
 0002:0000d424       ??_C@_0P@EDPDJIKD@setUTCFullYear?$AA@ 00445124     lit-magic-strings.obj
 0002:0000d434       ??_C@_0P@PJLMEMKI@toLocaleString?$AA@ 00445134     lit-magic-strings.obj
 0002:0000d444       ??_C@_0BA@IFGPNHHM@getMilliseconds?$AA@ 00445144     lit-magic-strings.obj
 0002:0000d454       ??_C@_0BA@LHHJKFGF@setMilliseconds?$AA@ 00445154     lit-magic-strings.obj
 0002:0000d464       ??_C@_0BB@EJNAEHAI@defineProperties?$AA@ 00445164     lit-magic-strings.obj
 0002:0000d478       ??_C@_0BC@EKGLNCPC@NEGATIVE_INFINITY?$AA@ 00445178     lit-magic-strings.obj
 0002:0000d48c       ??_C@_0BC@LCFGPNKE@POSITIVE_INFINITY?$AA@ 0044518c     lit-magic-strings.obj
 0002:0000d4a0       ??_C@_0BC@PLMPJGII@getTimezoneOffset?$AA@ 004451a0     lit-magic-strings.obj
 0002:0000d4b4       ??_C@_0BC@MNFLBDMG@preventExtensions?$AA@ 004451b4     lit-magic-strings.obj
 0002:0000d4c8       ??_C@_0BC@LDPCADPP@toLocaleLowerCase?$AA@ 004451c8     lit-magic-strings.obj
 0002:0000d4dc       ??_C@_0BC@BBPFCNGE@toLocaleUpperCase?$AA@ 004451dc     lit-magic-strings.obj
 0002:0000d4f0       ??_C@_0BD@BBLJPGEM@decodeURIComponent?$AA@ 004451f0     lit-magic-strings.obj
 0002:0000d504       ??_C@_0BD@DLIMAFHK@encodeURIComponent?$AA@ 00445204     lit-magic-strings.obj
 0002:0000d518       ??_C@_0BD@ELBMPAPH@getUTCMilliseconds?$AA@ 00445218     lit-magic-strings.obj
 0002:0000d52c       ??_C@_0BD@LBDGMGBP@setUTCMilliseconds?$AA@ 0044522c     lit-magic-strings.obj
 0002:0000d540       ??_C@_0BD@POIOLNKI@toLocaleDateString?$AA@ 00445240     lit-magic-strings.obj
 0002:0000d554       ??_C@_0BD@EDMMMNLN@toLocaleTimeString?$AA@ 00445254     lit-magic-strings.obj
 0002:0000d568       ??_C@_0BE@EMMOJCAD@getOwnPropertyNames?$AA@ 00445268     lit-magic-strings.obj
 0002:0000d57c       ??_C@_0BF@GGKMFCAP@propertyIsEnumerable?$AA@ 0044527c     lit-magic-strings.obj
 0002:0000d594       ??_C@_0BJ@BELMJFGN@getOwnPropertyDescriptor?$AA@ 00445294     lit-magic-strings.obj
 0002:0000d5b0       ??_C@_0BN@EOHLJGMJ@function?$CI?$CJ?$HL?1?$CK?5ecmascript?5?$CK?1?$HN?$AA@ 004452b0     lit-magic-strings.obj
 0002:0000d5d0       ??_C@_0BK@CGMFAGPB@lit_get_magic_string_utf8?$AA@ 004452d0     lit-magic-strings.obj
 0002:0000d5ec       ??_C@_0BI@MOAAHPDP@lit?2lit?9magic?9strings?4c?$AA@ 004452ec     lit-magic-strings.obj
 0002:0000d604       ??_C@_0BK@BBNPAFBO@lit_get_magic_string_size?$AA@ 00445304     lit-magic-strings.obj
 0002:0000d620       ??_C@_0CG@DCMEGKJP@lit_get_magic_string_size_block_@ 00445320     lit-magic-strings.obj
 0002:0000d648       ??_C@_0FH@BOIIAHI@size?5?$DM?$DN?5?$CIsizeof?5?$CIlit_magic_strin@ 00445348     lit-magic-strings.obj
 0002:0000d6a0       ??_C@_0BN@IOMHCFBI@lit_get_magic_string_ex_utf8?$AA@ 004453a0     lit-magic-strings.obj
 0002:0000d6c0       ??_C@_0CA@OJLDIDEH@lit_copy_magic_string_to_buffer?$AA@ 004453c0     lit-magic-strings.obj
 0002:0000d6e0       ??_C@_0BM@NLFMPJKL@bytes_copied?5?$DM?$DN?5buffer_size?$AA@ 004453e0     lit-magic-strings.obj
 0002:0000d6fc       ??_C@_0BC@KILLPMII@lit?2lit?9strings?4c?$AA@ 004453fc     lit-strings.obj
 0002:0000d710       ??_C@_0CF@BDKEHPIC@code_point?5?$DO?5LIT_UTF16_CODE_UNIT@ 00445410     lit-strings.obj
 0002:0000d738       ??_C@_0CF@PBAPIEJH@convert_code_point_to_high_surro@ 00445438     lit-strings.obj
 0002:0000d760       ??_C@_0CJ@JANMABCN@code_point?5?$DM?$DN?5LIT_UNICODE_CODE_P@ 00445460     lit-strings.obj
 0002:0000d78c       ??_C@_0BH@ODHEDJJK@lit_utf8_string_length?$AA@ 0044548c     lit-strings.obj
 0002:0000d7a4       ??_C@_0BG@KELGEPEN@size?5?$DN?$DN?5utf8_buf_size?$AA@ 004454a4     lit-strings.obj
 0002:0000d7bc       ??_C@_0BO@EPNEKMFH@lit_read_code_point_from_utf8?$AA@ 004454bc     lit-strings.obj
 0002:0000d7dc       ??_C@_0BC@OPGCBHGH@buf_p?5?$CG?$CG?5buf_size?$AA@ 004454dc     lit-strings.obj
 0002:0000d7f0       ??_C@_0BI@IMBNLPEF@buf_size?5?$DO?$DN?5bytes_count?$AA@ 004454f0     lit-strings.obj
 0002:0000d808       ??_C@_0BN@JKEIJBDA@lit_read_code_unit_from_utf8?$AA@ 00445508     lit-strings.obj
 0002:0000d828       ??_C@_05GMKBCHBG@buf_p?$AA@ 00445528     lit-strings.obj
 0002:0000d830       ??_C@_0DF@HJBHHAGH@?$CIc?5?$CG?5LIT_UTF8_3_BYTE_MASK?$CJ?5?$DN?$DN?5LI@ 00445530     lit-strings.obj
 0002:0000d868       ??_C@_0BP@EPFLAMOK@ret?5?$DM?$DN?5LIT_UTF16_CODE_UNIT_MAX?$AA@ 00445568     lit-strings.obj
 0002:0000d888       ??_C@_0CC@CILNKIGD@lit_read_prev_code_unit_from_utf@ 00445588     lit-strings.obj
 0002:0000d8ac       ??_C@_0BD@DAHLLGMO@lit_utf8_read_next?$AA@ 004455ac     lit-strings.obj
 0002:0000d8c0       ??_C@_06CLMCDPBJ@?$CKbuf_p?$AA@ 004455c0     lit-strings.obj
 0002:0000d8c8       ??_C@_0BD@EKNKCKK@lit_utf8_read_prev?$AA@ 004455c8     lit-strings.obj
 0002:0000d8dc       ??_C@_0BD@EGIMBIOA@lit_utf8_peek_next?$AA@ 004455dc     lit-strings.obj
 0002:0000d8f0       ??_C@_0BD@HCFKAMIE@lit_utf8_peek_prev?$AA@ 004455f0     lit-strings.obj
 0002:0000d904       ??_C@_0O@BILMAEMM@lit_utf8_incr?$AA@ 00445604     lit-strings.obj
 0002:0000d914       ??_C@_0O@DHCNEHHM@lit_utf8_decr?$AA@ 00445614     lit-strings.obj
 0002:0000d924       ??_C@_0BN@GDKGPAIE@lit_utf8_string_hash_combine?$AA@ 00445624     lit-strings.obj
 0002:0000d944       ??_C@_0CJ@BIBKGLNL@utf8_buf_p?5?$CB?$DN?5NULL?5?$HM?$HM?5utf8_buf_s@ 00445644     lit-strings.obj
 0002:0000d970       ??_C@_0BK@KGIHHOIA@lit_utf8_string_calc_hash?$AA@ 00445670     lit-strings.obj
 0002:0000d98c       ??_C@_0BN@PKDKBGLN@lit_utf8_string_code_unit_at?$AA@ 0044568c     lit-strings.obj
 0002:0000d9ac       ??_C@_0CH@GKJMMIP@current_p?5?$DM?5utf8_buf_p?5?$CL?5utf8_bu@ 004456ac     lit-strings.obj
 0002:0000d9d4       ??_C@_0CN@DEFHEPGI@lit_get_unicode_char_size_by_utf@ 004456d4     lit-strings.obj
 0002:0000da04       ??_C@_0DO@EIGINKCK@?$CIfirst_byte?5?$CG?5LIT_UTF8_3_BYTE_MA@ 00445704     lit-strings.obj
 0002:0000da44       ??_C@_0BG@NJJMFEJN@lit_code_unit_to_utf8?$AA@ 00445744     lit-strings.obj
 0002:0000da5c       ??_C@_0CC@GEOIKGE@first_byte_bits?5?$DN?$DN?5code_unit_bit@ 0044575c     lit-strings.obj
 0002:0000da80       ??_C@_0BH@LFFKBLMJ@lit_code_point_to_utf8?$AA@ 00445780     lit-strings.obj
 0002:0000da98       ??_C@_0CD@JIJHPKKC@first_byte_bits?5?$DN?$DN?5code_point_bi@ 00445798     lit-strings.obj
 0002:0000dabc       ??_C@_0CN@HJOGNBOG@code_point?5?$DM?$DN?5LIT_UTF8_4_BYTE_CO@ 004457bc     lit-strings.obj
 0002:0000daec       ??_C@_0CJ@CFAGMODG@lit_convert_surrogate_pair_to_co@ 004457ec     lit-strings.obj
 0002:0000db18       ??_C@_0DI@IDKPLJDI@lit_is_code_point_utf16_high_sur@ 00445818     lit-strings.obj
 0002:0000db50       ??_C@_0DG@OBLCCGAP@lit_is_code_point_utf16_low_surr@ 00445850     lit-strings.obj
 0002:0000db88       _cbc_flags                 00445888     byte-code.obj
 0002:0000dc78       _cbc_ext_flags             00445978     byte-code.obj
 0002:0000dea4       ??_C@_02KNAFDCHJ@do?$AA@   00445ba4     js-lexer.obj
 0002:0000dea8       ??_C@_02HEBPBKGD@if?$AA@   00445ba8     js-lexer.obj
 0002:0000deac       ??_C@_02LMMGJAGL@in?$AA@   00445bac     js-lexer.obj
 0002:0000deb0       ??_C@_03JOHEBPFF@for?$AA@  00445bb0     js-lexer.obj
 0002:0000deb4       ??_C@_03KKAENNGB@let?$AA@  00445bb4     js-lexer.obj
 0002:0000deb8       ??_C@_03CLCAEGCJ@new?$AA@  00445bb8     js-lexer.obj
 0002:0000debc       ??_C@_03JDGOGJKJ@try?$AA@  00445bbc     js-lexer.obj
 0002:0000dec0       ??_C@_03MEPDGFMA@var?$AA@  00445bc0     js-lexer.obj
 0002:0000dec4       ??_C@_04CKOINMPC@case?$AA@ 00445bc4     js-lexer.obj
 0002:0000decc       ??_C@_04FHMCPBIP@else?$AA@ 00445bcc     js-lexer.obj
 0002:0000ded4       ??_C@_04DBJPMPLO@enum?$AA@ 00445bd4     js-lexer.obj
 0002:0000dedc       ??_C@_04IIAJELJL@this?$AA@ 00445bdc     js-lexer.obj
 0002:0000dee4       ??_C@_04GKJNKENE@void?$AA@ 00445be4     js-lexer.obj
 0002:0000deec       ??_C@_04MKNNKNJH@with?$AA@ 00445bec     js-lexer.obj
 0002:0000def4       ??_C@_05ELPHFHOI@break?$AA@ 00445bf4     js-lexer.obj
 0002:0000defc       ??_C@_05GHOHNOEI@catch?$AA@ 00445bfc     js-lexer.obj
 0002:0000df04       ??_C@_05ENKANFLO@class?$AA@ 00445c04     js-lexer.obj
 0002:0000df0c       ??_C@_05BNCCCJPP@const?$AA@ 00445c0c     js-lexer.obj
 0002:0000df14       ??_C@_05MKJDPMKP@super?$AA@ 00445c14     js-lexer.obj
 0002:0000df1c       ??_C@_05JFAPCGDM@throw?$AA@ 00445c1c     js-lexer.obj
 0002:0000df24       ??_C@_05OODBEKIG@while?$AA@ 00445c24     js-lexer.obj
 0002:0000df2c       ??_C@_05LKJGIMLP@yield?$AA@ 00445c2c     js-lexer.obj
 0002:0000df34       ??_C@_06FOBLBEIN@delete?$AA@ 00445c34     js-lexer.obj
 0002:0000df3c       ??_C@_06NKNNMLDJ@export?$AA@ 00445c3c     js-lexer.obj
 0002:0000df44       ??_C@_06EOGGDCGF@import?$AA@ 00445c44     js-lexer.obj
 0002:0000df4c       ??_C@_06EOMAMIIF@public?$AA@ 00445c4c     js-lexer.obj
 0002:0000df54       ??_C@_06LNOFJDNM@return?$AA@ 00445c54     js-lexer.obj
 0002:0000df5c       ??_C@_06GGHJAEBN@static?$AA@ 00445c5c     js-lexer.obj
 0002:0000df64       ??_C@_06DOPOGBGP@switch?$AA@ 00445c64     js-lexer.obj
 0002:0000df6c       ??_C@_06NDJPCPHC@typeof?$AA@ 00445c6c     js-lexer.obj
 0002:0000df74       ??_C@_07DLHCIBDH@default?$AA@ 00445c74     js-lexer.obj
 0002:0000df7c       ??_C@_07IMAFGOBG@extends?$AA@ 00445c7c     js-lexer.obj
 0002:0000df84       ??_C@_07MKBLAIAL@finally?$AA@ 00445c84     js-lexer.obj
 0002:0000df8c       ??_C@_07KNEGBPNO@package?$AA@ 00445c8c     js-lexer.obj
 0002:0000df94       ??_C@_07NMPLPEPB@private?$AA@ 00445c94     js-lexer.obj
 0002:0000df9c       ??_C@_08DLICDMBN@continue?$AA@ 00445c9c     js-lexer.obj
 0002:0000dfa8       ??_C@_08BJECCCMA@debugger?$AA@ 00445ca8     js-lexer.obj
 0002:0000dfb4       ??_C@_09NFKLEKPH@interface?$AA@ 00445cb4     js-lexer.obj
 0002:0000dfc0       ??_C@_09IPOLMLK@protected?$AA@ 00445cc0     js-lexer.obj
 0002:0000dfcc       ??_C@_0L@FMDKPCDN@implements?$AA@ 00445ccc     js-lexer.obj
 0002:0000dfd8       ??_C@_0L@CMICNBPM@instanceof?$AA@ 00445cd8     js-lexer.obj
 0002:0000dfe4       ??_C@_0M@OEDBJEHE@skip_spaces?$AA@ 00445ce4     js-lexer.obj
 0002:0000dff0       ??_C@_0BF@OGCFIDB@parser?2js?2js?9lexer?4c?$AA@ 00445cf0     js-lexer.obj
 0002:0000e008       ??_C@_0CH@FKIECFCM@context_p?9?$DOsource_p?5?$CL?52?5?$DM?5source@ 00445d08     js-lexer.obj
 0002:0000e030       ??_C@_0BH@GGLIGNFG@lexer_parse_identifier?$AA@ 00445d30     js-lexer.obj
 0002:0000e048       ??_C@_0CF@CFBNHFFB@source_p?$FL0?$FN?5?$DM?5LEXER_UTF8_4BYTE_S@ 00445d48     js-lexer.obj
 0002:0000e070       ??_C@_0BL@JAJKEABO@lexer_process_char_literal?$AA@ 00445d70     js-lexer.obj
 0002:0000e090       ??_C@_0EM@IMOAOPKL@literal_type?5?$DN?$DN?5LEXER_IDENT_LITE@ 00445d90     js-lexer.obj
 0002:0000e0e0       ??_C@_0EN@ENJCLNFN@literal_type?5?$CB?$DN?5LEXER_IDENT_LITE@ 00445de0     js-lexer.obj
 0002:0000e130       ??_C@_0EP@CNILOKOH@literal_type?5?$CB?$DN?5LEXER_STRING_LIT@ 00445e30     js-lexer.obj
 0002:0000e180       ??_C@_0CK@IFLDPLDK@literal_index?5?$DN?$DN?5context_p?9?$DOlite@ 00445e80     js-lexer.obj
 0002:0000e1ac       ??_C@_0BP@PDOKHJIA@lexer_construct_literal_object?$AA@ 00445eac     js-lexer.obj
 0002:0000e1d0       ??_C@_0FC@CCMAPAHG@literal_p?9?$DOtype?5?$DN?$DN?5LEXER_IDENT_L@ 00445ed0     js-lexer.obj
 0002:0000e224       ??_C@_0CG@IODHECDH@context_p?9?$DOallocated_buffer_p?5?$DN?$DN@ 00445f24     js-lexer.obj
 0002:0000e24c       ??_C@_0DB@OMIALFBD@literal_p?9?$DOlength?5?$DM?$DN?5PARSER_MAXI@ 00445f4c     js-lexer.obj
 0002:0000e280       ??_C@_0DJ@MKBJBN@destination_p?5?$DN?$DN?5destination_sta@ 00445f80     js-lexer.obj
 0002:0000e2bc       ??_C@_0CD@NOLNMDCJ@source_p?5?$DM?5context_p?9?$DOsource_end@ 00445fbc     js-lexer.obj
 0002:0000e2e0       ??_C@_0DK@DJIBMDNI@source_p?5?$CL?51?5?$CL?5hex_part_length?5?$DM@ 00445fe0     js-lexer.obj
 0002:0000e31c       ??_C@_07FBGLGHH@rgument?$AA@ 0044601c     js-lexer.obj
 0002:0000e324       ??_C@_0DF@MEOANBEG@context_p?9?$DOallocated_buffer_p?5?$DN?$DN@ 00446024     js-lexer.obj
 0002:0000e35c       ??_C@_0BO@FFKEMBNB@lexer_construct_number_object?$AA@ 0044605c     js-lexer.obj
 0002:0000e37c       ??_C@_0BO@JCEOBFHG@lexer_construct_regexp_object?$AA@ 0044607c     js-lexer.obj
 0002:0000e3a0       ??_C@_0FG@OOHCGBFH@context_p?9?$DOtoken?4type?5?$DN?$DN?5LEXER_D@ 004460a0     js-lexer.obj
 0002:0000e3f8       ??_C@_0BI@PIEIHCBN@lexer_expect_identifier?$AA@ 004460f8     js-lexer.obj
 0002:0000e410       ??_C@_0EM@HJLFJIKD@literal_type?5?$DN?$DN?5LEXER_STRING_LIT@ 00446110     js-lexer.obj
 0002:0000e45c       ??_C@_0DN@KJNBJHNG@context_p?9?$DOlit_object?4type?5?$DN?$DN?5LE@ 0044615c     js-lexer.obj
 0002:0000e49c       ??_C@_0CE@KGHAFNCC@lexer_compare_identifier_to_curr@ 0044619c     js-lexer.obj
 0002:0000e4c0       ??_C@_0CG@KHFBGMOH@left?9?$DOlength?5?$DO?50?5?$CG?$CG?5right?9?$DOlengt@ 004461c0     js-lexer.obj
 0002:0000e4e8       ??_C@_0N@EELILEGI@utf8_len?5?$DO?50?$AA@ 004461e8     js-lexer.obj
 0002:0000e51c       ??_C@_0BD@FBPLEGGI@parser_push_result?$AA@ 0044621c     js-parser-expr.obj
 0002:0000e530       ??_C@_0BL@GLGFKMCK@parser?2js?2js?9parser?9expr?4c?$AA@ 00446230     js-parser-expr.obj
 0002:0000e550       ??_C@_0EL@MMAJCLHB@CBC_SAME_ARGS?5?$CIcontext_p?9?$DOlast_c@ 00446250     js-parser-expr.obj
 0002:0000e59c       ??_C@_0DB@JGPEHJAK@context_p?9?$DOstack_depth?5?$DN?$DN?5contex@ 0044629c     js-parser-expr.obj
 0002:0000e5d0       ??_C@_0CA@LFEBJJKD@parser_emit_unary_lvalue_opcode?$AA@ 004462d0     js-parser-expr.obj
 0002:0000e5f0       ??_C@_0EK@MLJOHJGK@context_p?9?$DOlast_cbc?4literal_obje@ 004462f0     js-parser-expr.obj
 0002:0000e63c       ??_C@_0DG@EBIOOOIB@context_p?9?$DOlast_cbc_opcode?5?$DN?$DN?5CB@ 0044633c     js-parser-expr.obj
 0002:0000e678       ??_C@_0EH@KGIPHBJL@CBC_SAME_ARGS?5?$CICBC_PUSH_LITERAL?0@ 00446378     js-parser-expr.obj
 0002:0000e6c0       ??_C@_0CG@KBDIPMNF@CBC_SAME_ARGS?5?$CICBC_PUSH_PROP?0?5op@ 004463c0     js-parser-expr.obj
 0002:0000e6e8       ??_C@_0DI@NLKALILK@CBC_SAME_ARGS?5?$CICBC_PUSH_PROP_LIT@ 004463e8     js-parser-expr.obj
 0002:0000e720       ??_C@_0EF@PGLGODD@CBC_SAME_ARGS?5?$CICBC_PUSH_PROP_LIT@ 00446420     js-parser-expr.obj
 0002:0000e768       ??_C@_0EC@IKOMLPD@CBC_SAME_ARGS?5?$CICBC_PUSH_PROP_THI@ 00446468     js-parser-expr.obj
 0002:0000e7ac       ??_C@_0BL@KCHDFLFN@parser_parse_array_literal?$AA@ 004464ac     js-parser-expr.obj
 0002:0000e7c8       ??_C@_0CL@OMLPDGBO@context_p?9?$DOtoken?4type?5?$DN?$DN?5LEXER_L@ 004464c8     js-parser-expr.obj
 0002:0000e7f4       ??_C@_0BM@EIHMIKPD@parser_parse_object_literal?$AA@ 004464f4     js-parser-expr.obj
 0002:0000e810       ??_C@_0CK@IMCELGAA@context_p?9?$DOtoken?4type?5?$DN?$DN?5LEXER_L@ 00446510     js-parser-expr.obj
 0002:0000e83c       ??_C@_0CP@KMMGGEJG@context_p?9?$DOlast_cbc_opcode?5?$DN?$DN?5CB@ 0044653c     js-parser-expr.obj
 0002:0000e86c       ??_C@_0BO@PGAIGIGO@parser_parse_unary_expression?$AA@ 0044656c     js-parser-expr.obj
 0002:0000e88c       ??_C@_0DO@MCHBJLJH@context_p?9?$DOlit_object?4index?5?$DM?$DN?5C@ 0044658c     js-parser-expr.obj
 0002:0000e8cc       ??_C@_0DF@LKKBEPJA@context_p?9?$DOlast_cbc_opcode?5?$DN?$DN?5PA@ 004465cc     js-parser-expr.obj
 0002:0000e904       ??_C@_0CA@DGOCKFBG@parser_process_unary_expression?$AA@ 00446604     js-parser-expr.obj
 0002:0000e928       ??_C@_0GF@NILFGCDP@context_p?9?$DOtoken?4type?5?$DN?$DN?5LEXER_L@ 00446628     js-parser-expr.obj
 0002:0000e990       ??_C@_0FI@CDJAGNBN@CBC_ARGS_EQ?5?$CICBC_PUSH_PROP_LITER@ 00446690     js-parser-expr.obj
 0002:0000e9e8       ??_C@_0DI@EGOOPCFE@context_p?9?$DOlast_cbc?4literal_type@ 004466e8     js-parser-expr.obj
 0002:0000ea20       ??_C@_0BL@DNPKOJGP@context_p?9?$DOstack_depth?5?$DO?50?$AA@ 00446720     js-parser-expr.obj
 0002:0000ea3c       ??_C@_0DG@PEPNDDHC@CBC_SAME_ARGS?5?$CIcontext_p?9?$DOlast_c@ 0044673c     js-parser-expr.obj
 0002:0000ea74       ??_C@_0BL@MOMCNCPH@parser_append_binary_token?$AA@ 00446774     js-parser-expr.obj
 0002:0000ea90       ??_C@_0DB@KBOJFHLJ@LEXER_IS_BINARY_OP_TOKEN?5?$CIcontex@ 00446790     js-parser-expr.obj
 0002:0000eac4       ??_C@_0DH@LJCAIBOG@CBC_SAME_ARGS?5?$CICBC_PUSH_LITERAL?0@ 004467c4     js-parser-expr.obj
 0002:0000eafc       ??_C@_0CK@KKLFPMFM@CBC_SAME_ARGS?5?$CICBC_PUSH_PROP?0?5CB@ 004467fc     js-parser-expr.obj
 0002:0000eb28       ??_C@_0DP@EJMCMDAC@CBC_SAME_ARGS?5?$CICBC_PUSH_PROP_LIT@ 00446828     js-parser-expr.obj
 0002:0000eb68       ??_C@_0EJ@OELHIFIB@CBC_SAME_ARGS?5?$CICBC_PUSH_PROP_THI@ 00446868     js-parser-expr.obj
 0002:0000ebb4       ??_C@_0DH@GBEELAHA@CBC_SAME_ARGS?5?$CICBC_PUSH_PROP?0?5CB@ 004468b4     js-parser-expr.obj
 0002:0000ebf0       ??_C@_0EH@GLGOLANB@CBC_SAME_ARGS?5?$CICBC_PUSH_PROP_LIT@ 004468f0     js-parser-expr.obj
 0002:0000ec38       ??_C@_0FH@OIPMDCAB@CBC_SAME_ARGS?5?$CICBC_PUSH_PROP_LIT@ 00446938     js-parser-expr.obj
 0002:0000ec90       ??_C@_0FB@BAGCOAKC@CBC_SAME_ARGS?5?$CICBC_PUSH_PROP_THI@ 00446990     js-parser-expr.obj
 0002:0000ece4       ??_C@_0BO@JBFMBLEN@parser_process_binary_opcodes?$AA@ 004469e4     js-parser-expr.obj
 0002:0000ed08       ??_C@_0FH@IMKJOKGP@CBC_ARGS_EQ?5?$CICBC_ASSIGN_LITERAL_@ 00446a08     js-parser-expr.obj
 0002:0000ed60       ??_C@_0EL@IMIABGJL@CBC_ARGS_EQ?5?$CIopcode?5?$CL?5CBC_BINARY@ 00446a60     js-parser-expr.obj
 0002:0000edb0       ??_C@_0EN@KMAOJAIN@CBC_SAME_ARGS?5?$CIcontext_p?9?$DOlast_c@ 00446ab0     js-parser-expr.obj
 0002:0000ee00       ??_C@_0GA@MIGIIEAI@CBC_ARGS_EQ?5?$CIopcode?5?$CL?5CBC_BINARY@ 00446b00     js-parser-expr.obj
 0002:0000ee60       ??_C@_0BI@MDCDKJDA@parser_parse_expression?$AA@ 00446b60     js-parser-expr.obj
 0002:0000ee78       ??_C@_0BD@JIHJMGFC@grouping_level?5?$DO?50?$AA@ 00446b78     js-parser-expr.obj
 0002:0000ee8c       ??_C@_0P@KGLFGPFF@page_p?5?$CB?$DN?5NULL?$AA@ 00446b8c     js-parser-expr.obj
 0002:0000ee9c       ??_C@_0DF@EIOMIMGK@context_p?9?$DOstack_top_uint8?5?$DN?$DN?5LE@ 00446b9c     js-parser-expr.obj
 0002:0000eed8       ??_C@_0EL@MOEPJFCI@CBC_SAME_ARGS?5?$CIcontext_p?9?$DOlast_c@ 00446bd8     js-parser-expr.obj
 0002:0000ef24       ??_C@_0O@NEMCEPGG@parser_malloc?$AA@ 00446c24     js-parser-mem.obj
 0002:0000ef34       ??_C@_0BK@CMGHFGDC@parser?2js?2js?9parser?9mem?4c?$AA@ 00446c34     js-parser-mem.obj
 0002:0000ef50       ??_C@_0BE@EKMNPDAM@parser_malloc_local?$AA@ 00446c50     js-parser-mem.obj
 0002:0000ef64       ??_C@_0BA@EEEFLNCN@parser_list_get?$AA@ 00446c64     js-parser-mem.obj
 0002:0000ef78       ??_C@_0FK@CJCACJAK@page_p?5?$CB?$DN?5list_p?9?$DOdata?4last_p?5?$HM?$HM@ 00446c78     js-parser-mem.obj
 0002:0000efd4       ??_C@_0BI@KKHKDOBB@parser_stack_push_uint8?$AA@ 00446cd4     js-parser-mem.obj
 0002:0000eff0       ??_C@_0GC@OIMHFAPE@page_p?5?$DN?$DN?5NULL?5?$HM?$HM?5context_p?9?$DOsta@ 00446cf0     js-parser-mem.obj
 0002:0000f054       ??_C@_0BH@FBFIOAOF@parser_stack_pop_uint8?$AA@ 00446d54     js-parser-mem.obj
 0002:0000f070       ??_C@_0GC@FANCAHJM@page_p?5?$CB?$DN?5NULL?5?$CG?$CG?5context_p?9?$DOsta@ 00446d70     js-parser-mem.obj
 0002:0000f0d4       ??_C@_0BJ@OMNHPADG@parser_stack_push_uint16?$AA@ 00446dd4     js-parser-mem.obj
 0002:0000f0f0       ??_C@_0BI@FGPMOEON@parser_stack_pop_uint16?$AA@ 00446df0     js-parser-mem.obj
 0002:0000f108       ??_C@_0BC@NBMGPFLL@parser_stack_push?$AA@ 00446e08     js-parser-mem.obj
 0002:0000f11c       ??_C@_0CO@GKCKKKEF@length?5?$DM?5PARSER_STACK_PAGE_SIZE?5@ 00446e1c     js-parser-mem.obj
 0002:0000f14c       ??_C@_0BB@EGHNGKL@parser_stack_pop?$AA@ 00446e4c     js-parser-mem.obj
 0002:0000f160       ??_C@_0BH@NDGPONPM@page_p?9?$DOnext_p?5?$CB?$DN?5NULL?$AA@ 00446e60     js-parser-mem.obj
 0002:0000f178       ??_C@_0CD@EPDBHJOP@context_p?9?$DOstack?4last_position?5?$DO@ 00446e78     js-parser-mem.obj
 0002:0000f19c       ??_C@_0BL@JHPJLIEL@parser_stack_iterator_skip?$AA@ 00446e9c     js-parser-mem.obj
 0002:0000f1b8       ??_C@_0BL@GKPLGACF@parser_stack_iterator_read?$AA@ 00446eb8     js-parser-mem.obj
 0002:0000f1d4       ??_C@_0CE@MNIADGIG@iterator?9?$DOcurrent_p?9?$DOnext_p?5?$CB?$DN?5N@ 00446ed4     js-parser-mem.obj
 0002:0000f1f8       ??_C@_0BM@IHLOBHL@parser_stack_iterator_write?$AA@ 00446ef8     js-parser-mem.obj
 0002:0000f214       ??_C@_0BC@GHBLHAMO@parser_scan_until?$AA@ 00446f14     js-parser-scanner.obj
 0002:0000f228       ??_C@_0BO@CDNHILDG@parser?2js?2js?9parser?9scanner?4c?$AA@ 00446f28     js-parser-scanner.obj
 0002:0000f248       ??_C@_0HO@PLMMEKLE@stack_top?5?$DN?$DN?5SCAN_STACK_BLOCK_ST@ 00446f48     js-parser-scanner.obj
 0002:0000f2c8       ??_C@_0CH@IEFHADIL@stack_top?5?$DN?$DN?5SCAN_STACK_OBJECT_L@ 00446fc8     js-parser-scanner.obj
 0002:0000f2fc       ??_C@_0BI@KPLJFKDH@parser_statement_length?$AA@ 00446ffc     js-parser-statm.obj
 0002:0000f314       ??_C@_0BM@FOFNALBI@parser?2js?2js?9parser?9statm?4c?$AA@ 00447014     js-parser-statm.obj
 0002:0000f330       ??_C@_0DP@FFHJDIAC@type?5?$DO?$DN?5PARSER_STATEMENT_BLOCK?5?$CG@ 00447030     js-parser-statm.obj
 0002:0000f370       ??_C@_0CB@FPLKNAMP@parser_stack_iterator_read_uint8@ 00447070     js-parser-statm.obj
 0002:0000f398       ??_C@_0FH@KDMDIAGM@iterator?9?$DOcurrent_position?5?$DO?50?5?$CG@ 00447098     js-parser-statm.obj
 0002:0000f3f0       ??_C@_0BP@FDLOPGIE@parser_stack_change_last_uint8?$AA@ 004470f0     js-parser-statm.obj
 0002:0000f410       ??_C@_0BL@OECECJCK@parser_parse_var_statement?$AA@ 00447110     js-parser-statm.obj
 0002:0000f42c       ??_C@_0CI@JEOGHMMI@context_p?9?$DOtoken?4type?5?$DN?$DN?5LEXER_K@ 0044712c     js-parser-statm.obj
 0002:0000f458       ??_C@_0GE@JFEKPCNM@context_p?9?$DOtoken?4type?5?$DN?$DN?5LEXER_L@ 00447158     js-parser-statm.obj
 0002:0000f4c0       ??_C@_0GK@GBPGDIOH@context_p?9?$DOlast_cbc_opcode?5?$DN?$DN?5CB@ 004471c0     js-parser-statm.obj
 0002:0000f52c       ??_C@_0CA@EKOHAEHH@parser_parse_function_statement?$AA@ 0044722c     js-parser-statm.obj
 0002:0000f54c       ??_C@_0CN@DPOHKCA@context_p?9?$DOtoken?4type?5?$DN?$DN?5LEXER_K@ 0044724c     js-parser-statm.obj
 0002:0000f580       ??_C@_0HI@CLAGPJPL@context_p?9?$DOlit_object?4type?5?$DN?$DN?5LE@ 00447280     js-parser-statm.obj
 0002:0000f5f8       ??_C@_0EK@BLCOFANA@literal_p?9?$DOtype?5?$DN?$DN?5LEXER_FUNCTIO@ 004472f8     js-parser-statm.obj
 0002:0000f644       ??_C@_0BO@DNKMMMLO@parser_parse_if_statement_end?$AA@ 00447344     js-parser-statm.obj
 0002:0000f664       ??_C@_0DC@HLECALCO@context_p?9?$DOstack_top_uint8?5?$DN?$DN?5PA@ 00447364     js-parser-statm.obj
 0002:0000f698       ??_C@_0CA@JBHGOHNE@parser_parse_with_statement_end?$AA@ 00447398     js-parser-statm.obj
 0002:0000f6b8       ??_C@_0CN@GELIGKOE@context_p?9?$DOstatus_flags?5?$CG?5PARSER@ 004473b8     js-parser-statm.obj
 0002:0000f6e8       ??_C@_0CE@EHNBDDFE@parser_parse_do_while_statement_@ 004473e8     js-parser-statm.obj
 0002:0000f70c       ??_C@_0DI@HDMINEOG@context_p?9?$DOstack_top_uint8?5?$DN?$DN?5PA@ 0044740c     js-parser-statm.obj
 0002:0000f744       ??_C@_0CD@EMGBLGJK@parser_parse_while_statement_sta@ 00447444     js-parser-statm.obj
 0002:0000f768       ??_C@_0CK@OPEKFKBJ@context_p?9?$DOtoken?4type?5?$DN?$DN?5LEXER_K@ 00447468     js-parser-statm.obj
 0002:0000f794       ??_C@_0CB@GMEGMGIJ@parser_parse_while_statement_end@ 00447494     js-parser-statm.obj
 0002:0000f7b8       ??_C@_0DF@NNILJHDP@context_p?9?$DOstack_top_uint8?5?$DN?$DN?5PA@ 004474b8     js-parser-statm.obj
 0002:0000f7f0       ??_C@_0CB@FECDKGBH@parser_parse_for_statement_start@ 004474f0     js-parser-statm.obj
 0002:0000f814       ??_C@_0CI@MOGBAGFN@context_p?9?$DOtoken?4type?5?$DN?$DN?5LEXER_K@ 00447514     js-parser-statm.obj
 0002:0000f840       ??_C@_0EF@OHOCIEJ@opcode?5?$CB?$DN?5CBC_PUSH_TWO_LITERALS?5@ 00447540     js-parser-statm.obj
 0002:0000f888       ??_C@_0BP@DEHIEGNO@parser_parse_for_statement_end?$AA@ 00447588     js-parser-statm.obj
 0002:0000f8a8       ??_C@_0DD@DJCFLML@context_p?9?$DOstack_top_uint8?5?$DN?$DN?5PA@ 004475a8     js-parser-statm.obj
 0002:0000f8dc       ??_C@_0CE@MEDNEHMC@parser_parse_switch_statement_st@ 004475dc     js-parser-statm.obj
 0002:0000f900       ??_C@_0CL@MLMLLAAI@context_p?9?$DOtoken?4type?5?$DN?$DN?5LEXER_K@ 00447600     js-parser-statm.obj
 0002:0000f92c       ??_C@_0DA@ONMIOIFC@switch_case_was_found?5?$HM?$HM?5default@ 0044762c     js-parser-statm.obj
 0002:0000f95c       ??_C@_0BP@EADLGAJH@parser_parse_try_statement_end?$AA@ 0044765c     js-parser-statm.obj
 0002:0000f97c       ??_C@_0DD@OIICNDH@context_p?9?$DOstack_top_uint8?5?$DN?$DN?5PA@ 0044767c     js-parser-statm.obj
 0002:0000f9b0       ??_C@_0CM@IMLMONID@context_p?9?$DOtoken?4type?5?$DN?$DN?5LEXER_K@ 004476b0     js-parser-statm.obj
 0002:0000f9dc       ??_C@_0BP@DBMHFLB@parser_parse_default_statement?$AA@ 004476dc     js-parser-statm.obj
 0002:0000f9fc       ??_C@_0CF@GFHKEOJK@context_p?9?$DOtoken?4type?5?$DN?$DN?5LEXER_C@ 004476fc     js-parser-statm.obj
 0002:0000fa24       ??_C@_0BM@KDANLGEA@parser_parse_case_statement?$AA@ 00447724     js-parser-statm.obj
 0002:0000fa40       ??_C@_0BB@LCINFHJF@branch_p?5?$CB?$DN?5NULL?$AA@ 00447740     js-parser-statm.obj
 0002:0000fa54       ??_C@_0BI@EGDMABHO@parser_parse_statements?$AA@ 00447754     js-parser-statm.obj
 0002:0000fa6c       ??_C@_0CM@JDFAAOMG@context_p?9?$DOlast_statement?4curren@ 0044776c     js-parser-statm.obj
 0002:0000fa98       ??_C@_0BM@PLIDOGDB@context_p?9?$DOstack_depth?5?$DN?$DN?50?$AA@ 00447798     js-parser-statm.obj
 0002:0000fab4       ??_C@_0L@GADMGPEI@use?5strict?$AA@ 004477b4     js-parser-statm.obj
 0002:0000fac0       ??_C@_0DJ@EKOBMMML@context_p?9?$DOstack_depth?5?$DN?$DN?5contex@ 004477c0     js-parser-statm.obj
 0002:0000fafc       ??_C@_0CH@LJPHGNBK@switch_statement?4branch_list_p?5?$DN@ 004477fc     js-parser-statm.obj
 0002:0000fb24       ??_C@_0CE@FEOOJBPF@context_p?9?$DOcontext_stack_depth?5?$DN@ 00447824     js-parser-statm.obj
 0002:0000fb48       ??_C@_0BB@OANIIHGP@parser_flush_cbc?$AA@ 00447848     js-parser-util.obj
 0002:0000fb5c       ??_C@_0BL@KGEPCFMA@parser?2js?2js?9parser?9util?4c?$AA@ 0044785c     js-parser-util.obj
 0002:0000fb78       ??_C@_0JE@IKPNPBKO@?$CIflags?5?$DO?$DO?5CBC_STACK_ADJUST_SHIFT@ 00447878     js-parser-util.obj
 0002:0000fc0c       ??_C@_0DE@HLBMNOFO@context_p?9?$DOlast_cbc?4value?5?$DM?$DN?5CBC@ 0044790c     js-parser-util.obj
 0002:0000fc40       ??_C@_0CI@GLAAIACA@context_p?9?$DOstack_depth?5?$DO?$DN?5byte_a@ 00447940     js-parser-util.obj
 0002:0000fc68       ??_C@_0BA@CAKMMDEI@parser_emit_cbc?$AA@ 00447968     js-parser-util.obj
 0002:0000fc78       ??_C@_0BL@ECBFMAOF@PARSER_ARGS_EQ?5?$CIopcode?0?50?$CJ?$AA@ 00447978     js-parser-util.obj
 0002:0000fc94       ??_C@_0BI@BMBJMKPL@parser_emit_cbc_literal?$AA@ 00447994     js-parser-util.obj
 0002:0000fcac       ??_C@_0CN@GLOPHOBM@PARSER_ARGS_EQ?5?$CIopcode?0?5CBC_HAS_@ 004479ac     js-parser-util.obj
 0002:0000fcdc       ??_C@_0CD@CFAHJAEH@parser_emit_cbc_literal_from_tok@ 004479dc     js-parser-util.obj
 0002:0000fd00       ??_C@_0BF@GBMIODPA@parser_emit_cbc_call?$AA@ 00447a00     js-parser-util.obj
 0002:0000fd18       ??_C@_0CK@EJMHMPAG@PARSER_ARGS_EQ?5?$CIopcode?0?5CBC_HAS_@ 00447a18     js-parser-util.obj
 0002:0000fd44       ??_C@_0CJ@FBNIGFMH@call_arguments?5?$DM?$DN?5CBC_MAXIMUM_BY@ 00447a44     js-parser-util.obj
 0002:0000fd70       ??_C@_0BM@OPEJLHMO@parser_emit_cbc_push_number?$AA@ 00447a70     js-parser-util.obj
 0002:0000fd8c       ??_C@_0DF@INFGBFGJ@value?5?$DO?50?5?$CG?$CG?5value?5?$DM?$DN?5CBC_PUSH_N@ 00447a8c     js-parser-util.obj
 0002:0000fdc4       ??_C@_0DA@PKPNCKBA@CBC_STACK_ADJUST_VALUE?5?$CIcbc_flag@ 00447ac4     js-parser-util.obj
 0002:0000fdf4       ??_C@_0BP@HALALEHF@parser_emit_cbc_forward_branch?$AA@ 00447af4     js-parser-util.obj
 0002:0000fe14       ??_C@_0BL@JEKLBCNA@flags?5?$CG?5CBC_HAS_BRANCH_ARG?$AA@ 00447b14     js-parser-util.obj
 0002:0000fe30       ??_C@_0BO@PFFPAFCK@CBC_BRANCH_IS_FORWARD?5?$CIflags?$CJ?$AA@ 00447b30     js-parser-util.obj
 0002:0000fe50       ??_C@_0CH@PGCIOFNE@CBC_BRANCH_OFFSET_LENGTH?5?$CIopcode@ 00447b50     js-parser-util.obj
 0002:0000fe78       ??_C@_0CA@LDKHANKN@parser_emit_cbc_backward_branch?$AA@ 00447b78     js-parser-util.obj
 0002:0000fe98       ??_C@_0BP@CCEGHNGK@CBC_BRANCH_IS_BACKWARD?5?$CIflags?$CJ?$AA@ 00447b98     js-parser-util.obj
 0002:0000feb8       ??_C@_0CE@HHLBGHGF@offset?5?$DM?$DN?5context_p?9?$DObyte_code_s@ 00447bb8     js-parser-util.obj
 0002:0000fedc       ??_C@_0CG@ENDEFPKF@parser_set_branch_to_current_pos@ 00447bdc     js-parser-util.obj
 0002:0000ff04       ??_C@_0DE@LNDFBGI@context_p?9?$DObyte_code_size?5?$DO?5?$CIbra@ 00447c04     js-parser-util.obj
 0002:0000ff38       ??_C@_0CC@MIKKOBLO@delta?5?$DM?$DN?5PARSER_MAXIMUM_CODE_SIZ@ 00447c38     js-parser-util.obj
 0002:0000ff5c       ??_C@_0BI@GJCKBKB@parser_compute_indicies?$AA@ 00447c5c     js-parser.obj
 0002:0000ff74       ??_C@_0BG@ILBILOEK@parser?2js?2js?9parser?4c?$AA@ 00447c74     js-parser.obj
 0002:0000ff8c       ??_C@_0CE@DLEOJIPI@literal_p?5?$DN?$DN?5PARSER_GET_LITERAL?5@ 00447c8c     js-parser.obj
 0002:0000ffb0       ??_C@_0FB@OHMGKGPC@?$CIliteral_p?9?$DOstatus_flags?5?$CG?5?$HO?$CILEX@ 00447cb0     js-parser.obj
 0002:00010004       ??_C@_0BN@NGBJLMNB@literal_p?9?$DOstatus_flags?5?$DN?$DN?50?$AA@ 00447d04     js-parser.obj
 0002:00010028       ??_C@_0FF@NKBJFFD@literal_p?9?$DOtype?5?$DN?$DN?5LEXER_FUNCTIO@ 00447d28     js-parser.obj
 0002:00010080       ??_C@_0FJ@GEKKLMGH@?$CIliteral_p?9?$DOstatus_flags?5?$CG?5?$HO?$CILEX@ 00447d80     js-parser.obj
 0002:000100dc       ??_C@_0DE@MNHDGKKH@register_count?5?$DM?5PARSER_MAXIMUM_@ 00447ddc     js-parser.obj
 0002:00010110       ??_C@_0EJ@BBFIALHI@func_literal_p?5?$CB?$DN?5NULL?5?$CG?$CG?5func_l@ 00447e10     js-parser.obj
 0002:0001015c       ??_C@_0CM@LJEONLCD@argument_count?5?$DN?$DN?5context_p?9?$DOarg@ 00447e5c     js-parser.obj
 0002:00010188       ??_C@_0CB@PHPLJGMH@register_index?5?$DN?$DN?5register_count@ 00447e88     js-parser.obj
 0002:000101b0       ??_C@_0EE@BOLKDCMM@uninitialized_var_index?5?$DN?$DN?5regis@ 00447eb0     js-parser.obj
 0002:000101f8       ??_C@_0EJ@PEEIOLGJ@initialized_var_index?5?$DN?$DN?5uniniti@ 00447ef8     js-parser.obj
 0002:00010244       ??_C@_0DD@MMDHAHLE@ident_index?5?$DN?$DN?5initialized_var_i@ 00447f44     js-parser.obj
 0002:00010278       ??_C@_0DJ@CPGCFOJP@const_literal_index?5?$DN?$DN?5ident_ind@ 00447f78     js-parser.obj
 0002:000102b4       ??_C@_0BN@DJGFMBMD@parser_generate_initializers?$AA@ 00447fb4     js-parser.obj
 0002:000102d4       ??_C@_0CH@HLMEBNMP@literal_p?9?$DOtype?5?$DN?$DN?5LEXER_IDENT_L@ 00447fd4     js-parser.obj
 0002:000102fc       ??_C@_0CE@HOFAGCEI@literal_p?9?$DOprop?4index?5?$DN?$DN?5next_in@ 00447ffc     js-parser.obj
 0002:00010320       ??_C@_0DP@OIBAAHPN@literal_p?5?$CB?$DN?5NULL?5?$CG?$CG?5literal_p?9?$DO@ 00448020     js-parser.obj
 0002:00010360       ??_C@_0CI@HJMFLLDC@literal_p?9?$DOtype?5?$DN?$DN?5LEXER_NUMBER_@ 00448060     js-parser.obj
 0002:00010388       ??_C@_0BO@IJHHMIBL@parser_update_backward_branch?$AA@ 00448088     js-parser.obj
 0002:000103a8       ??_C@_0BG@FDEFDPGI@parse_update_branches?$AA@ 004480a8     js-parser.obj
 0002:000103c0       ??_C@_0BE@FFPEECPH@target_distance?5?$DO?50?$AA@ 004480c0     js-parser.obj
 0002:000103d4       ??_C@_0CL@CKDHOCMC@last_page_p?5?$DN?$DN?5context_p?9?$DObyte_c@ 004480d4     js-parser.obj
 0002:00010400       ??_C@_0BH@BJHLGMNM@parser_post_processing?$AA@ 00448100     js-parser.obj
 0002:00010418       ??_C@_0DO@GNFOEOHA@context_p?9?$DOliteral_count?5?$DM?$DN?5PARS@ 00448118     js-parser.obj
 0002:00010458       ??_C@_0DN@PONCGBGC@literal_p?5?$CB?$DN?5NULL?5?$CG?$CG?5literal_p?9?$DO@ 00448158     js-parser.obj
 0002:00010498       ??_C@_0CJ@CNIJKJIL@literal_index?5?$DM?$DN?5CBC_MAXIMUM_SMA@ 00448198     js-parser.obj
 0002:000104c4       ??_C@_0CI@JPMBDDFI@literal_index?5?$DM?$DN?5CBC_MAXIMUM_FUL@ 004481c4     js-parser.obj
 0002:000104ec       ??_C@_0DG@CNEKDGCK@branch_offset_length?5?$DO?50?5?$CG?$CG?5bran@ 004481ec     js-parser.obj
 0002:00010524       ??_C@_0CL@HFBDGKDM@dst_p?5?$DN?$DN?5byte_code_p?5?$CL?5initializ@ 00448224     js-parser.obj
 0002:00010550       ??_C@_0FF@OIBIOMJB@?$CB?$CIflags?5?$CG?5CBC_HAS_BRANCH_ARG?$CJ?5?$HM?$HM@ 00448250     js-parser.obj
 0002:000105a8       ??_C@_0BO@GGAHHEHD@dst_p?5?$DN?$DN?5byte_code_p?5?$CL?5length?$AA@ 004482a8     js-parser.obj
 0002:000105c8       ??_C@_0BC@KEDBODNH@literal_p?5?$CB?$DN?5NULL?$AA@ 004482c8     js-parser.obj
 0002:000105e0       ??_C@_0FF@HFKNNNKG@literal_p?9?$DOtype?5?$DN?$DN?5LEXER_IDENT_L@ 004482e0     js-parser.obj
 0002:00010638       ??_C@_0CH@PIOAKCCB@argument_count?5?$DM?5literal_p?9?$DOprop@ 00448338     js-parser.obj
 0002:00010660       ??_C@_0BE@EKLFDNBE@parser_parse_source?$AA@ 00448360     js-parser.obj
 0002:00010678       ??_C@_0MA@IDLFKCIF@context?4stack_top_uint8?5?$DN?$DN?5CBC_M@ 00448378     js-parser.obj
 0002:00010738       ??_C@_0CJ@IJDJGBGK@context?4last_statement?4current_p@ 00448438     js-parser.obj
 0002:00010764       ??_C@_0DC@NJJKELE@context?4last_cbc_opcode?5?$DN?$DN?5PARSE@ 00448464     js-parser.obj
 0002:00010798       ??_C@_0CD@LNDDKCKE@context?4allocated_buffer_p?5?$DN?$DN?5NU@ 00448498     js-parser.obj
 0002:000107bc       ??_C@_0BG@PAFKNMDI@parser_parse_function?$AA@ 004484bc     js-parser.obj
 0002:000107d4       ??_C@_0CC@GLAOIFAK@status_flags?5?$CG?5PARSER_IS_FUNCTIO@ 004484d4     js-parser.obj
 0002:000107f8       ??_C@_0BD@PDDKLNAM@parser_raise_error?$AA@ 004484f8     js-parser.obj
 0002:0001080c       ??_C@_01GBGANLPD@0?$AA@    0044850c     js-parser.obj
 0002:00010810       ??_C@_0CB@GPICFBNF@re_realloc_regexp_bytecode_block@ 00448510     re-bytecode.obj
 0002:00010834       ??_C@_0BM@KHNDAPK@parser?2regexp?2re?9bytecode?4c?$AA@ 00448534     re-bytecode.obj
 0002:00010850       ??_C@_0DB@BNHEJCNJ@bc_ctx_p?9?$DOblock_end_p?5?$DO?$DN?5bc_ctx_@ 00448550     re-bytecode.obj
 0002:00010888       ??_C@_0JK@JOOKCEBD@?$CI?$CBbc_ctx_p?9?$DOcurrent_p?5?$CG?$CG?5?$CBbc_ctx@ 00448588     re-bytecode.obj
 0002:00010924       ??_C@_0CP@IKPAFAGL@bc_ctx_p?9?$DOcurrent_p?5?$DO?$DN?5bc_ctx_p?9@ 00448624     re-bytecode.obj
 0002:00010954       ??_C@_0BI@PALGJDLM@re_bytecode_list_append?$AA@ 00448654     re-bytecode.obj
 0002:0001096c       ??_C@_0CF@JBOJMCBJ@length?5?$DM?$DN?5REGEXP_BYTECODE_BLOCK_@ 0044866c     re-bytecode.obj
 0002:00010994       ??_C@_0BI@OCNLIMKF@re_bytecode_list_insert?$AA@ 00448694     re-bytecode.obj
 0002:000109ac       ??_C@_0BK@BFKBAMBD@re_insert_simple_iterator?$AA@ 004486ac     re-compiler.obj
 0002:000109c8       ??_C@_0BM@HDBLOIG@parser?2regexp?2re?9compiler?4c?$AA@ 004486c8     re-compiler.obj
 0002:000109e4       ??_C@_0N@PICFFMJJ@qmin?5?$DM?$DN?5qmax?$AA@ 004486e4     re-compiler.obj
 0002:000109f4       ??_C@_0BF@ODBJJKLI@re_insert_into_group?$AA@ 004486f4     re-compiler.obj
 0002:00010a0c       ??_C@_0BF@MLFAMADF@re_parse_alternative?$AA@ 0044870c     re-compiler.obj
 0002:00010a24       ??_C@_0CJ@HJDNGILC@Compile?5a?5capture?5group?5start?5?$CIi@ 00448724     re-compiler.obj
 0002:00010a50       ??_C@_0CN@CNOABILC@Compile?5a?5non?9capture?5group?5star@ 00448750     re-compiler.obj
 0002:00010a80       ??_C@_0DB@NDHOOPL@Compile?5character?5token?3?5?$CFc?0?5qmi@ 00448780     re-compiler.obj
 0002:00010ab4       ??_C@_0BC@GMGKBPA@Compile?5a?5period?6?$AA@ 004487b4     re-compiler.obj
 0002:00010ac8       ??_C@_0BI@KBBBLC@Compile?5an?5alternative?6?$AA@ 004487c8     re-compiler.obj
 0002:00010ae0       ??_C@_0BL@BFEFPCNK@Compile?5a?5start?5assertion?6?$AA@ 004487e0     re-compiler.obj
 0002:00010afc       ??_C@_0BK@EFEKFFOC@Compile?5an?5end?5assertion?6?$AA@ 004487fc     re-compiler.obj
 0002:00010b18       ??_C@_0CD@GFJIAIKE@Compile?5a?5word?5boundary?5assertio@ 00448818     re-compiler.obj
 0002:00010b3c       ??_C@_0CH@NFBCIDAI@Compile?5a?5not?5word?5boundary?5asse@ 0044883c     re-compiler.obj
 0002:00010b64       ??_C@_0CI@IDCNMMAD@Compile?5a?5positive?5lookahead?5ass@ 00448864     re-compiler.obj
 0002:00010b8c       ??_C@_0CI@PFCMCAPE@Compile?5a?5negative?5lookahead?5ass@ 0044888c     re-compiler.obj
 0002:00010bb4       ??_C@_0BN@GBOLDADG@Compile?5a?5backreference?3?5?$CFu?6?$AA@ 004488b4     re-compiler.obj
 0002:00010bd4       ??_C@_0BL@DOLODDJN@Compile?5a?5character?5class?6?$AA@ 004488d4     re-compiler.obj
 0002:00010bf0       ??_C@_0BF@DEAOBMOH@Compile?5a?5group?5end?6?$AA@ 004488f0     re-compiler.obj
 0002:00010c08       ??_C@_0BK@DHJCMMEK@RegExp?5is?5found?5in?5cache?6?$AA@ 00448908     re-compiler.obj
 0002:00010c24       ??_C@_0BO@DMKILNDP@RegExp?5is?5NOT?5found?5in?5cache?6?$AA@ 00448924     re-compiler.obj
 0002:00010c44       ??_C@_0BE@KHEPPNND@re_compile_bytecode?$AA@ 00448944     re-compiler.obj
 0002:00010c58       ??_C@_0BI@ENIBGBKK@Invalid?5backreference?4?6?$AA@ 00448958     re-compiler.obj
 0002:00010c70       ??_C@_0BI@FMOJHALF@pattern_start_p?5?$CB?$DN?5NULL?$AA@ 00448970     re-compiler.obj
 0002:00010c88       ??_C@_0BM@CGOGEGKJ@RegExp?5compilation?5failed?$CB?6?$AA@ 00448988     re-compiler.obj
 0002:00010ca4       ??_C@_0BN@FFNFJBOA@bc_ctx?4block_start_p?5?$CB?$DN?5NULL?$AA@ 004489a4     re-compiler.obj
 0002:00010cc4       ??_C@_0DF@KHCLNKDM@RegExp?5cache?5is?5full?$CB?5Remove?5the@ 004489c4     re-compiler.obj
 0002:00010cfc       ??_C@_0CO@GOFLIEEG@Insert?5bytecode?5into?5RegExp?5cach@ 004489fc     re-compiler.obj
 0002:00010d2c       ??_C@_0BC@DLPNILGA@re_parse_iterator?$AA@ 00448a2c     re-parser.obj
 0002:00010d40       ??_C@_0BK@NIMGHDIE@parser?2regexp?2re?9parser?4c?$AA@ 00448a40     re-parser.obj
 0002:00010d5c       ??_C@_0BF@KCEFBELJ@do_number_arithmetic?$AA@ 00448a5c     opcodes-ecma-arithmetics.obj
 0002:00010d74       ??_C@_0BO@FCEMDPJD@vm?2opcodes?9ecma?9arithmetics?4c?$AA@ 00448a74     opcodes-ecma-arithmetics.obj
 0002:00010d94       ??_C@_0BP@GFGJJGIG@ecma_number_is_nan?5?$CInum_right?$CJ?$AA@ 00448a94     opcodes-ecma-arithmetics.obj
 0002:00010db4       ??_C@_0BO@MFEEEILG@ecma_number_is_nan?5?$CInum_left?$CJ?$AA@ 00448ab4     opcodes-ecma-arithmetics.obj
 0002:00010dd4       ??_C@_0BA@IMAPCECJ@opfunc_addition?$AA@ 00448ad4     opcodes-ecma-arithmetics.obj
 0002:00010de4       ??_C@_0BC@LHGLHFKB@opfunc_unary_plus?$AA@ 00448ae4     opcodes-ecma-arithmetics.obj
 0002:00010df8       ??_C@_0CD@MPHMDFK@ecma_number_is_nan?5?$CInum_var_valu@ 00448af8     opcodes-ecma-arithmetics.obj
 0002:00010e1c       ??_C@_0BD@FBEJOACH@opfunc_unary_minus?$AA@ 00448b1c     opcodes-ecma-arithmetics.obj
 0002:00010e30       ??_C@_0BI@LKANPFLO@do_number_bitwise_logic?$AA@ 00448b30     opcodes-ecma-bitwise.obj
 0002:00010e48       ??_C@_0BK@JPGJGNPD@vm?2opcodes?9ecma?9bitwise?4c?$AA@ 00448b48     opcodes-ecma-bitwise.obj
 0002:00010e68       ??_C@_0EI@PNDEFAPO@?$CBECMA_IS_VALUE_ERROR?5?$CIleft_value@ 00448b68     opcodes-ecma-bitwise.obj
 0002:00010eb0       ??_C@_0BD@PMJJHK@opfunc_equal_value?$AA@ 00448bb0     opcodes-ecma-equality.obj
 0002:00010ec4       ??_C@_0BL@FJHLJDDP@vm?2opcodes?9ecma?9equality?4c?$AA@ 00448bc4     opcodes-ecma-equality.obj
 0002:00010ee0       ??_C@_0EP@LFALGNMI@ecma_is_value_boolean?5?$CIcompare_r@ 00448be0     opcodes-ecma-equality.obj
 0002:00010f30       ??_C@_0BH@OPKNBOD@opfunc_not_equal_value?$AA@ 00448c30     opcodes-ecma-equality.obj
 0002:00010f48       ??_C@_0BB@INIFGMGC@opfunc_less_than?$AA@ 00448c48     opcodes-ecma-relational.obj
 0002:00010f5c       ??_C@_0BN@LANIKLMI@vm?2opcodes?9ecma?9relational?4c?$AA@ 00448c5c     opcodes-ecma-relational.obj
 0002:00010f7c       ??_C@_0BE@MOFKJHCN@opfunc_greater_than?$AA@ 00448c7c     opcodes-ecma-relational.obj
 0002:00010f90       ??_C@_0BK@LKKBFBNB@opfunc_less_or_equal_than?$AA@ 00448c90     opcodes-ecma-relational.obj
 0002:00010fac       ??_C@_0BN@MNMMJOHF@opfunc_greater_or_equal_than?$AA@ 00448cac     opcodes-ecma-relational.obj
 0002:00010fcc       ??_C@_0BC@LAIFCEBG@opfunc_instanceof?$AA@ 00448ccc     opcodes-ecma-relational.obj
 0002:00010fe0       ??_C@_09KHJEJHNE@opfunc_in?$AA@ 00448ce0     opcodes-ecma-relational.obj
 0002:00010fec       ??_C@_0M@GGEGPNEK@vm_var_decl?$AA@ 00448cec     opcodes.obj
 0002:00010ff8       ??_C@_0N@BKCINGNA@vm?2opcodes?4c?$AA@ 00448cf8     opcodes.obj
 0002:00011008       ??_C@_0CH@EIJJJNEI@ecma_is_value_empty?5?$CIcompletion_@ 00448d08     opcodes.obj
 0002:00011030       ??_C@_0GD@GEBKOPMF@ecma_is_value_undefined?5?$CIecma_op@ 00448d30     opcodes.obj
 0002:00011094       ??_C@_0O@JBCJJBAB@opfunc_typeof?$AA@ 00448d94     opcodes.obj
 0002:000110a4       ??_C@_0CC@HOHJEIGP@ecma_is_value_object?5?$CIleft_value@ 00448da4     opcodes.obj
 0002:000110c8       ??_C@_0BE@EGIHDHED@opfunc_set_accessor?$AA@ 00448dc8     opcodes.obj
 0002:000110e0       ??_C@_0EN@POOPBNPL@ecma_is_value_string?5?$CIaccessor_n@ 00448de0     opcodes.obj
 0002:00011130       ??_C@_0BC@CFNPOCGD@vm_op_delete_prop?$AA@ 00448e30     opcodes.obj
 0002:00011148       ??_C@_0EF@COIHJIN@completion_value?5?$DN?$DN?5ecma_make_si@ 00448e48     opcodes.obj
 0002:00011190       ??_C@_0CG@IKHPNNBL@ecma_is_value_string?5?$CIstr_name_v@ 00448e90     opcodes.obj
 0002:000111b8       ??_C@_0CB@GCANILLM@ecma_is_value_object?5?$CIobj_value?$CJ@ 00448eb8     opcodes.obj
 0002:000111dc       ??_C@_0BB@CEFCJMGH@vm_op_delete_var?$AA@ 00448edc     opcodes.obj
 0002:000111f0       ??_C@_0DB@DGLLPHGF@ecma_is_lexical_environment?5?$CIref@ 00448ef0     opcodes.obj
 0002:00011224       ??_C@_0O@JNOFEAHP@opfunc_for_in?$AA@ 00448f24     opcodes.obj
 0002:00011234       ??_C@_0DO@LOKMIPKL@compl_val?5?$DN?$DN?5ecma_make_simple_va@ 00448f34     opcodes.obj
 0002:00011274       ??_C@_0CA@MDIGJMIA@ecma_is_value_empty?5?$CIcompl_val?$CJ?$AA@ 00448f74     opcodes.obj
 0002:00011294       ??_C@_0BH@MNMPEPCC@vm_stack_context_abort?$AA@ 00448f94     vm-stack.obj
 0002:000112ac       ??_C@_0O@LKJBDBEH@vm?2vm?9stack?4c?$AA@ 00448fac     vm-stack.obj
 0002:000112bc       ??_C@_0BI@MDOLMBOK@vm_decode_branch_offset?$AA@ 00448fbc     vm-stack.obj
 0002:000112d4       ??_C@_0BL@OOFLMCHO@length?5?$DO?$DN?51?5?$CG?$CG?5length?5?$DM?$DN?53?$AA@ 00448fd4     vm-stack.obj
 0002:000112f0       ??_C@_0BG@IAPBMDDJ@vm_stack_find_finally?$AA@ 00448ff0     vm-stack.obj
 0002:00011308       ??_C@_0CK@HCHAFNDC@finally_type?5?$DM?$DN?5VM_CONTEXT_FINAL@ 00449008     vm-stack.obj
 0002:00011334       ??_C@_0CB@EOIAAAFD@byte_code_p?$FL0?$FN?5?$DN?$DN?5CBC_EXT_OPCODE@ 00449034     vm-stack.obj
 0002:00011358       ??_C@_0EJ@HIEOLAHL@byte_code_p?$FL1?$FN?5?$DO?$DN?5CBC_EXT_FINALL@ 00449058     vm-stack.obj
 0002:0001160c       ??_C@_0BL@DGFDEJHD@vm_get_implicit_this_value?$AA@ 0044930c     vm.obj
 0002:00011628       ??_C@_07KCBCDEBH@vm?2vm?4c?$AA@ 00449328     vm.obj
 0002:00011630       ??_C@_0CI@HKGFFLPM@?$CBECMA_IS_VALUE_ERROR?5?$CIcompletion@ 00449330     vm.obj
 0002:00011658       ??_C@_07LEGIKHHE@vm_loop?$AA@ 00449358     vm.obj
 0002:00011660       ??_C@_0DG@NAIDPDLH@stack_top_p?5?$DO?5frame_ctx_p?9?$DOregis@ 00449360     vm.obj
 0002:00011698       ??_C@_0CD@OOKIBLOD@operands?5?$DN?$DN?5VM_OC_GET_THIS_LITER@ 00449398     vm.obj
 0002:000116c0       ??_C@_0EB@IEDCCJOB@operands?5?$DN?$DN?5VM_OC_GET_STACK?5?$HM?$HM?5o@ 004493c0     vm.obj
 0002:00011704       ??_C@_0CH@NNAFLGBH@CBC_BRANCH_OFFSET_LENGTH?5?$CIopcode@ 00449404     vm.obj
 0002:0001172c       ??_C@_0BL@ONLJGGMJ@opcode?5?$DN?$DN?5CBC_EXT_DEBUGGER?$AA@ 0044942c     vm.obj
 0002:00011748       ??_C@_0CO@JAMLLEGF@ecma_is_value_undefined?5?$CIprop_va@ 00449448     vm.obj
 0002:00011778       ??_C@_0BK@CKDPHMBC@literal_index?5?$DM?5ident_end?$AA@ 00449478     vm.obj
 0002:00011798       ??_C@_0GE@CDKMKADK@opcode?5?$DN?$DN?5CBC_PUSH_PROP_LITERAL_@ 00449498     vm.obj
 0002:00011800       ??_C@_0FH@CDHLMAFB@opcode?5?$DN?$DN?5CBC_POST_INCR_IDENT_PU@ 00449500     vm.obj
 0002:00011858       ??_C@_0EL@GIDPIEKK@opcode?5?$DN?$DN?5CBC_POST_INCR_PUSH_RES@ 00449558     vm.obj
 0002:000118a8       ??_C@_0FN@NIKLLENL@opcode?5?$DN?$DN?5CBC_RETURN?5?$HM?$HM?5opcode?5?$DN@ 004495a8     vm.obj
 0002:00011908       ??_C@_0EB@BFFPLDFE@?$CKbyte_code_p?5?$DO?$DN?5CBC_CALL?5?$CG?$CG?5?$CKbyt@ 00449608     vm.obj
 0002:0001194c       ??_C@_0BP@BPKAABGL@ecma_is_value_boolean?5?$CIresult?$CJ?$AA@ 0044964c     vm.obj
 0002:00011970       ??_C@_0FE@NACEOKF@frame_ctx_p?9?$DOregisters_p?5?$CL?5regis@ 00449670     vm.obj
 0002:000119c4       ??_C@_0DN@IEJKBKAB@VM_GET_CONTEXT_TYPE?5?$CIcontext_top@ 004496c4     vm.obj
 0002:00011a04       ??_C@_0DI@BICLLPA@VM_GET_CONTEXT_TYPE?5?$CIstack_top_p@ 00449704     vm.obj
 0002:00011a40       ??_C@_0HF@BLFDFMPH@VM_GET_CONTEXT_TYPE?5?$CIstack_top_p@ 00449740     vm.obj
 0002:00011ab8       ??_C@_0EB@LHLDALOI@VM_GET_CONTEXT_TYPE?5?$CIstack_top_p@ 004497b8     vm.obj
 0002:00011afc       ??_C@_0CD@JAHLFKML@VM_OC_HAS_PUT_RESULT?5?$CIopcode_dat@ 004497fc     vm.obj
 0002:00011b20       ??_C@_0BJ@JBAOOKBJ@vm_stack_p?5?$DM?5stack_top_p?$AA@ 00449820     vm.obj
 0002:00011b40       ??_C@_0ED@NHOFKHJ@VM_GET_CONTEXT_TYPE?5?$CIstack_top_p@ 00449840     vm.obj
 0002:00011b84       ??_C@_0CH@OIHLELOP@byte_code_p?$FL0?$FN?5?$DN?$DN?5CBC_ASSIGN_SET@ 00449884     vm.obj
 0002:00011bb0       ??_C@_0EC@OFDAIBIO@VM_GET_CONTEXT_TYPE?5?$CIstack_top_p@ 004498b0     vm.obj
 0002:00011bf4       ??_C@_0L@NNKJHLOD@vm_execute?$AA@ 004498f4     vm.obj
 0002:00011c00       ??_C@_0DB@IEGLBGAM@frame_ctx_p?9?$DOcall_operation?5?$DN?$DN?5V@ 00449900     vm.obj
 0002:00011c34       ??_C@_06ILHAAFIL@vm_run?$AA@ 00449934     vm.obj
 0002:00011c3c       ??_C@_0BC@FNLDELB@vm_is_strict_mode?$AA@ 0044993c     vm.obj
 0002:00011c50       ??_C@_0CJ@DMCIJMCE@JERRY_CONTEXT?5?$CIvm_top_context_p?$CJ@ 00449950     vm.obj
 0002:00011cec       __IMPORT_DESCRIPTOR_KERNEL32 004499ec     kernel32:KERNEL32.dll
 0002:00011d00       __NULL_IMPORT_DESCRIPTOR   00449a00     kernel32:KERNEL32.dll
 0003:00000004       ___ctype                   00449a84     ctype.obj
 0003:00000014       __lpdays                   00449a94     time.obj
 0003:00000048       __days                     00449ac8     time.obj
 0003:0000007c       __timezone                 00449afc     time.obj
 0003:00000080       __daylight                 00449b00     time.obj
 0003:00000084       __dstbias                  00449b04     time.obj
 0003:00000090       ___isa_enabled             00449b10     MSVCRT:cpu_disp.obj
 0003:000000a0       _errno                     00449b20     errno.obj
 0003:000000c8       _jerry_global_heap         00449b48     jcontext.obj
 0003:000800c8       ___isa_available           004c9b48     MSVCRT:cpu_disp.obj
 0003:000800cc       ___favor                   004c9b4c     MSVCRT:cpu_disp.obj
 0003:000800e0       _jerry_global_hash_table   004c9b60     <common>
 0003:000808e0       _jerry_global_context      004ca360     <common>

 entry point at        0001:00024993

 Static symbols

 0000:fff326c0       .debug$S                   00400000     kernel32:KERNEL32.dll
 0001:0000019f       _ecma_gc_get_object_next   0040049f f   ecma-gc.obj
 0001:000001d6       _ecma_gc_is_object_visited 004004d6 f   ecma-gc.obj
 0001:0000020c       _ecma_gc_mark              0040050c f   ecma-gc.obj
 0001:00000388       _ecma_gc_mark_property     00400688 f   ecma-gc.obj
 0001:0000062f       _ecma_gc_set_object_next   0040092f f   ecma-gc.obj
 0001:0000066b       _ecma_gc_set_object_visited 0040096b f   ecma-gc.obj
 0001:000006a8       _ecma_gc_sweep             004009a8 f   ecma-gc.obj
 0001:0000244b       _ecma_divide_high_prec_by_10 0040274b f   ecma-helpers-errol.obj
 0001:000027c4       _ecma_multiply_high_prec_by_10 00402ac4 f   ecma-helpers-errol.obj
 0001:00003108       _ecma_number_pack          00403408 f   ecma-helpers-number.obj
 0001:00003251       _ecma_number_unpack        00403551 f   ecma-helpers-number.obj
 0001:0000331a       _ecma_compare_ecma_strings_longpath 0040361a f   ecma-helpers-string.obj
 0001:0000421b       _ecma_string_get_number_in_desc_size 0040451b f   ecma-helpers-string.obj
 0001:000045f9       _ecma_string_to_array_index 004048f9 f   ecma-helpers-string.obj
 0001:00004a14       _ecma_create_float_number  00404d14 f   ecma-helpers-value.obj
 0001:00004bf9       _ecma_is_number_equal_to_positive_zero 00404ef9 f   ecma-helpers-value.obj
 0001:00004f0b       _ecma_pointer_to_ecma_value 0040520b f   ecma-helpers-value.obj
 0001:00004fc3       _ecma_value_assign_float_number 004052c3 f   ecma-helpers-value.obj
 0001:00005604       _ecma_assert_object_contains_the_property 00405904 f   ecma-helpers.obj
 0001:000059d6       _ecma_create_property      00405cd6 f   ecma-helpers.obj
 0001:00006134       _ecma_free_internal_property 00406434 f   ecma-helpers.obj
 0001:00006c9e       _ecma_lcache_invalidate_entry 00406f9e f   ecma-lcache.obj
 0001:0000704e       _ecma_free_string_list     0040734e f   ecma-literal-storage.obj
 0001:00007b2b       $LN67                      00407e2b     ecma-builtin-array-prototype.obj
 0001:00007b7f       _ecma_builtin_array_prototype_helper_set_length 00407e7f f   ecma-builtin-array-prototype.obj
 0001:00007bbf       _ecma_builtin_array_prototype_join 00407ebf f   ecma-builtin-array-prototype.obj
 0001:00007e94       _ecma_builtin_array_prototype_object_array_heap_sort_helper 00408194 f   ecma-builtin-array-prototype.obj
 0001:00007f5f       _ecma_builtin_array_prototype_object_array_to_heap_helper 0040825f f   ecma-builtin-array-prototype.obj
 0001:0000815b       _ecma_builtin_array_prototype_object_concat 0040845b f   ecma-builtin-array-prototype.obj
 0001:000082c0       _ecma_builtin_array_prototype_object_every 004085c0 f   ecma-builtin-array-prototype.obj
 0001:00008590       _ecma_builtin_array_prototype_object_filter 00408890 f   ecma-builtin-array-prototype.obj
 0001:000088df       _ecma_builtin_array_prototype_object_for_each 00408bdf f   ecma-builtin-array-prototype.obj
 0001:00008b8d       _ecma_builtin_array_prototype_object_index_of 00408e8d f   ecma-builtin-array-prototype.obj
 0001:00008eaf       _ecma_builtin_array_prototype_object_last_index_of 004091af f   ecma-builtin-array-prototype.obj
 0001:00009240       _ecma_builtin_array_prototype_object_map 00409540 f   ecma-builtin-array-prototype.obj
 0001:000095ac       _ecma_builtin_array_prototype_object_pop 004098ac f   ecma-builtin-array-prototype.obj
 0001:00009844       _ecma_builtin_array_prototype_object_push 00409b44 f   ecma-builtin-array-prototype.obj
 0001:00009a95       _ecma_builtin_array_prototype_object_reduce 00409d95 f   ecma-builtin-array-prototype.obj
 0001:00009e5c       _ecma_builtin_array_prototype_object_reduce_right 0040a15c f   ecma-builtin-array-prototype.obj
 0001:0000a24c       _ecma_builtin_array_prototype_object_reverse 0040a54c f   ecma-builtin-array-prototype.obj
 0001:0000a5d3       _ecma_builtin_array_prototype_object_shift 0040a8d3 f   ecma-builtin-array-prototype.obj
 0001:0000a98a       _ecma_builtin_array_prototype_object_slice 0040ac8a f   ecma-builtin-array-prototype.obj
 0001:0000ad92       _ecma_builtin_array_prototype_object_some 0040b092 f   ecma-builtin-array-prototype.obj
 0001:0000b062       _ecma_builtin_array_prototype_object_sort 0040b362 f   ecma-builtin-array-prototype.obj
 0001:0000b53b       _ecma_builtin_array_prototype_object_sort_compare_helper 0040b83b f   ecma-builtin-array-prototype.obj
 0001:0000b7b0       _ecma_builtin_array_prototype_object_splice 0040bab0 f   ecma-builtin-array-prototype.obj
 0001:0000bf88       _ecma_builtin_array_prototype_object_to_locale_string 0040c288 f   ecma-builtin-array-prototype.obj
 0001:0000c20e       _ecma_builtin_array_prototype_object_to_string 0040c50e f   ecma-builtin-array-prototype.obj
 0001:0000c2e2       _ecma_builtin_array_prototype_object_unshift 0040c5e2 f   ecma-builtin-array-prototype.obj
 0001:0000c676       _ecma_op_array_get_to_string_at_index 0040c976 f   ecma-builtin-array-prototype.obj
 0001:0000c7dc       _ecma_builtin_arraybuffer_prototype_bytelength_getter 0040cadc f   ecma-builtin-arraybuffer-prototype.obj
 0001:0000c891       _ecma_builtin_arraybuffer_prototype_object_slice 0040cb91 f   ecma-builtin-arraybuffer-prototype.obj
 0001:0000cba8       _ecma_builtin_boolean_prototype_object_to_string 0040cea8 f   ecma-builtin-boolean-prototype.obj
 0001:0000cc39       _ecma_builtin_boolean_prototype_object_value_of 0040cf39 f   ecma-builtin-boolean-prototype.obj
 0001:0000cd47       _ecma_builtin_date_prototype_dispatch_get 0040d047 f   ecma-builtin-date-prototype.obj
 0001:0000ce57       $LN28                      0040d157     ecma-builtin-date-prototype.obj
 0001:0000ce7b       $LN20                      0040d17b     ecma-builtin-date-prototype.obj
 0001:0000d11e       _ecma_builtin_date_prototype_dispatch_set 0040d41e f   ecma-builtin-date-prototype.obj
 0001:0000d4be       $LN152                     0040d7be     ecma-builtin-date-prototype.obj
 0001:0000d4ce       $LN60                      0040d7ce     ecma-builtin-date-prototype.obj
 0001:0000d4de       _ecma_builtin_date_prototype_to_json 0040d7de f   ecma-builtin-date-prototype.obj
 0001:0000d994       _ecma_builtin_date_parse   0040dc94 f   ecma-builtin-date.obj
 0001:0000de60       _ecma_builtin_date_utc     0040e160 f   ecma-builtin-date.obj
 0001:0000deee       _ecma_date_construct_helper 0040e1ee f   ecma-builtin-date.obj
 0001:0000e1f1       _ecma_date_parse_date_chars 0040e4f1 f   ecma-builtin-date.obj
 0001:0000e280       _ecma_builtin_error_prototype_object_to_string 0040e580 f   ecma-builtin-error-prototype.obj
 0001:0000e733       _ecma_builtin_function_prototype_object_apply 0040ea33 f   ecma-builtin-function-prototype.obj
 0001:0000ea16       _ecma_builtin_function_prototype_object_bind 0040ed16 f   ecma-builtin-function-prototype.obj
 0001:0000ec84       _ecma_builtin_function_prototype_object_call 0040ef84 f   ecma-builtin-function-prototype.obj
 0001:0000eda5       _ecma_builtin_function_helper_get_function_expression 0040f0a5 f   ecma-builtin-function.obj
 0001:0000f1d9       $LN58                      0040f4d9     ecma-builtin-global.obj
 0001:0000f209       _ecma_builtin_global_object_byte_to_hex 0040f509 f   ecma-builtin-global.obj
 0001:0000f26c       _ecma_builtin_global_object_character_is_in 0040f56c f   ecma-builtin-global.obj
 0001:0000f2b1       _ecma_builtin_global_object_decode_uri_helper 0040f5b1 f   ecma-builtin-global.obj
 0001:0000f65f       _ecma_builtin_global_object_encode_uri_helper 0040f95f f   ecma-builtin-global.obj
 0001:0000f9a1       _ecma_builtin_global_object_escape 0040fca1 f   ecma-builtin-global.obj
 0001:0000fbea       _ecma_builtin_global_object_eval 0040feea f   ecma-builtin-global.obj
 0001:0000fc3a       _ecma_builtin_global_object_is_finite 0040ff3a f   ecma-builtin-global.obj
 0001:0000fd40       _ecma_builtin_global_object_is_nan 00410040 f   ecma-builtin-global.obj
 0001:0000fe27       _ecma_builtin_global_object_parse_float 00410127 f   ecma-builtin-global.obj
 0001:00010138       _ecma_builtin_global_object_parse_int 00410438 f   ecma-builtin-global.obj
 0001:00010585       _ecma_builtin_global_object_print 00410885 f   ecma-builtin-global.obj
 0001:0001071d       _ecma_builtin_global_object_unescape 00410a1d f   ecma-builtin-global.obj
 0001:00010a05       $LN29                      00410d05     ecma-builtin-helpers-date.obj
 0001:00011436       _ecma_date_value_copy_utf8_bytes 00411736 f   ecma-builtin-helpers-date.obj
 0001:00011453       _ecma_date_value_month_to_abbreviation 00411753 f   ecma-builtin-helpers-date.obj
 0001:000114e6       _ecma_date_value_number_to_bytes 004117e6 f   ecma-builtin-helpers-date.obj
 0001:000118e6       _ecma_date_value_to_string_common 00411be6 f   ecma-builtin-helpers-date.obj
 0001:00011b83       _ecma_date_value_week_day_to_abbreviation 00411e83 f   ecma-builtin-helpers-date.obj
 0001:00012d0a       _ecma_builtin_json_array   0041300a f   ecma-builtin-json.obj
 0001:0001300f       _ecma_builtin_json_check_id 0041330f f   ecma-builtin-json.obj
 0001:00013066       _ecma_builtin_json_check_right_square_token 00413366 f   ecma-builtin-json.obj
 0001:000130a7       _ecma_builtin_json_define_value_property 004133a7 f   ecma-builtin-json.obj
 0001:000131a1       _ecma_builtin_json_object  004134a1 f   ecma-builtin-json.obj
 0001:00013543       _ecma_builtin_json_parse   00413843 f   ecma-builtin-json.obj
 0001:000136d4       _ecma_builtin_json_parse_next_token 004139d4 f   ecma-builtin-json.obj
 0001:0001380c       _ecma_builtin_json_parse_number 00413b0c f   ecma-builtin-json.obj
 0001:00013914       _ecma_builtin_json_parse_string 00413c14 f   ecma-builtin-json.obj
 0001:00013ae7       _ecma_builtin_json_parse_value 00413de7 f   ecma-builtin-json.obj
 0001:00013d02       _ecma_builtin_json_quote   00414002 f   ecma-builtin-json.obj
 0001:00013fa3       _ecma_builtin_json_str     004142a3 f   ecma-builtin-json.obj
 0001:00014392       _ecma_builtin_json_stringify 00414692 f   ecma-builtin-json.obj
 0001:0001498e       _ecma_builtin_json_walk    00414c8e f   ecma-builtin-json.obj
 0001:00014f44       $LN96                      00415244     ecma-builtin-math.obj
 0001:00014f80       _ecma_builtin_math_object_max_min 00415280 f   ecma-builtin-math.obj
 0001:0001514a       _ecma_builtin_number_prototype_helper_round 0041544a f   ecma-builtin-number-prototype.obj
 0001:000151b0       _ecma_builtin_number_prototype_helper_to_string 004154b0 f   ecma-builtin-number-prototype.obj
 0001:000152a4       _ecma_builtin_number_prototype_object_to_exponential 004155a4 f   ecma-builtin-number-prototype.obj
 0001:00015609       _ecma_builtin_number_prototype_object_to_fixed 00415909 f   ecma-builtin-number-prototype.obj
 0001:0001597c       _ecma_builtin_number_prototype_object_to_precision 00415c7c f   ecma-builtin-number-prototype.obj
 0001:00015d25       _ecma_builtin_number_prototype_object_to_string 00416025 f   ecma-builtin-number-prototype.obj
 0001:000162da       _ecma_builtin_number_prototype_object_value_of 004165da f   ecma-builtin-number-prototype.obj
 0001:000164a6       _ecma_builtin_object_prototype_object_has_own_property 004167a6 f   ecma-builtin-object-prototype.obj
 0001:00016550       _ecma_builtin_object_prototype_object_is_prototype_of 00416850 f   ecma-builtin-object-prototype.obj
 0001:0001661f       _ecma_builtin_object_prototype_object_property_is_enumerable 0041691f f   ecma-builtin-object-prototype.obj
 0001:000166ec       _ecma_builtin_object_prototype_object_to_locale_string 004169ec f   ecma-builtin-object-prototype.obj
 0001:00016b2f       $LN77                      00416e2f     ecma-builtin-object.obj
 0001:00016b63       _ecma_builtin_object_object_create 00416e63 f   ecma-builtin-object.obj
 0001:00016c35       _ecma_builtin_object_object_define_properties 00416f35 f   ecma-builtin-object.obj
 0001:00016ecb       _ecma_builtin_object_object_define_property 004171cb f   ecma-builtin-object.obj
 0001:00016fe5       _ecma_builtin_object_object_freeze 004172e5 f   ecma-builtin-object.obj
 0001:0001711f       _ecma_builtin_object_object_get_own_property_descriptor 0041741f f   ecma-builtin-object.obj
 0001:000171de       _ecma_builtin_object_object_get_prototype_of 004174de f   ecma-builtin-object.obj
 0001:0001723a       _ecma_builtin_object_object_is_extensible 0041753a f   ecma-builtin-object.obj
 0001:0001727e       _ecma_builtin_object_object_is_frozen 0041757e f   ecma-builtin-object.obj
 0001:00017358       _ecma_builtin_object_object_is_sealed 00417658 f   ecma-builtin-object.obj
 0001:0001741e       _ecma_builtin_object_object_seal 0041771e f   ecma-builtin-object.obj
 0001:000175d1       _ecma_builtin_regexp_prototype_compile 004178d1 f   ecma-builtin-regexp-prototype.obj
 0001:00017aad       _ecma_builtin_regexp_prototype_exec 00417dad f   ecma-builtin-regexp-prototype.obj
 0001:00017bda       _ecma_builtin_regexp_prototype_test 00417eda f   ecma-builtin-regexp-prototype.obj
 0001:00017c49       _ecma_builtin_regexp_prototype_to_string 00417f49 f   ecma-builtin-regexp-prototype.obj
 0001:0001805c       _ecma_builtin_helper_split_match 0041835c f   ecma-builtin-string-prototype.obj
 0001:0001857f       $LN88                      0041887f     ecma-builtin-string-prototype.obj
 0001:000185cf       _ecma_builtin_string_prototype_object_char_at 004188cf f   ecma-builtin-string-prototype.obj
 0001:00018786       _ecma_builtin_string_prototype_object_char_code_at 00418a86 f   ecma-builtin-string-prototype.obj
 0001:000189be       _ecma_builtin_string_prototype_object_concat 00418cbe f   ecma-builtin-string-prototype.obj
 0001:00018af5       _ecma_builtin_string_prototype_object_conversion_helper 00418df5 f   ecma-builtin-string-prototype.obj
 0001:00018dab       _ecma_builtin_string_prototype_object_locale_compare 004190ab f   ecma-builtin-string-prototype.obj
 0001:00018ec0       _ecma_builtin_string_prototype_object_match 004191c0 f   ecma-builtin-string-prototype.obj
 0001:000193b5       _ecma_builtin_string_prototype_object_replace 004196b5 f   ecma-builtin-string-prototype.obj
 0001:000195f2       _ecma_builtin_string_prototype_object_replace_append_substr 004198f2 f   ecma-builtin-string-prototype.obj
 0001:00019689       _ecma_builtin_string_prototype_object_replace_get_string 00419989 f   ecma-builtin-string-prototype.obj
 0001:00019c9e       _ecma_builtin_string_prototype_object_replace_loop 00419f9e f   ecma-builtin-string-prototype.obj
 0001:00019ee7       _ecma_builtin_string_prototype_object_replace_main 0041a1e7 f   ecma-builtin-string-prototype.obj
 0001:0001a002       _ecma_builtin_string_prototype_object_replace_match 0041a302 f   ecma-builtin-string-prototype.obj
 0001:0001a2c1       _ecma_builtin_string_prototype_object_search 0041a5c1 f   ecma-builtin-string-prototype.obj
 0001:0001a50f       _ecma_builtin_string_prototype_object_slice 0041a80f f   ecma-builtin-string-prototype.obj
 0001:0001a77b       _ecma_builtin_string_prototype_object_split 0041aa7b f   ecma-builtin-string-prototype.obj
 0001:0001aef5       _ecma_builtin_string_prototype_object_substr 0041b1f5 f   ecma-builtin-string-prototype.obj
 0001:0001b247       _ecma_builtin_string_prototype_object_substring 0041b547 f   ecma-builtin-string-prototype.obj
 0001:0001b4d8       _ecma_builtin_string_prototype_object_to_string 0041b7d8 f   ecma-builtin-string-prototype.obj
 0001:0001b547       _ecma_builtin_string_prototype_object_trim 0041b847 f   ecma-builtin-string-prototype.obj
 0001:0001b698       _ecma_builtin_string_object_from_char_code 0041b998 f   ecma-builtin-string.obj
 0001:0001bbcb       $LN107                     0041becb     ecma-builtins.obj
 0001:0001bc1b       $LN99                      0041bf1b     ecma-builtins.obj
 0001:0001be00       $LN104                     0041c100     ecma-builtins.obj
 0001:0001be50       $LN97                      0041c150     ecma-builtins.obj
 0001:0001be75       _ecma_builtin_dispatch_routine 0041c175 f   ecma-builtins.obj
 0001:0001c1ad       $LN56                      0041c4ad     ecma-builtins.obj
 0001:0001c2e5       _ecma_builtin_get_property_count 0041c5e5 f   ecma-builtins.obj
 0001:0001c311       _ecma_builtin_init_object  0041c611 f   ecma-builtins.obj
 0001:0001c6d1       _ecma_builtin_make_function_object_for_routine 0041c9d1 f   ecma-builtins.obj
 0001:0001cad6       _ecma_instantiate_builtin  0041cdd6 f   ecma-builtins.obj
 0001:0001d7a6       $LN485                     0041daa6     ecma-builtins.obj
 0001:0001fe40       _ecma_op_function_construct_simple_or_external 00420140 f   ecma-function-object.obj
 0001:0002380e       _re_match_regexp           00423b0e f   ecma-regexp-object.obj
 0001:0002458e       $LN318                     0042488e     ecma-regexp-object.obj
 0001:0002470c       _re_set_data_property      00424a0c f   ecma-regexp-object.obj
 0001:00024a3a       _get_user_script           00424d3a f   entry.obj
 0001:00024b67       _print_value               00424e67 f   entry.obj
 0001:00026a5a       _eaddr                     00426d5a f   stdio.obj
 0001:00026b02       _iaddr                     00426e02 f   stdio.obj
 0001:00026bd3       _number                    00426ed3 f   stdio.obj
 0001:00026d6d       _skip_atoi                 0042706d f   stdio.obj
 0001:00026de5       __hx_aligned_free          004270e5 f   sysmem.obj
 0001:00026f71       ___ieee754_rem_pio2        00427271 f   trig.obj
 0001:000271f1       ___kernel_cos              004274f1 f   trig.obj
 0001:000272b6       ___kernel_rem_pio2         004275b6 f   trig.obj
 0001:00027834       ___kernel_sin              00427b34 f   trig.obj
 0001:000278bb       ___kernel_tan              00427bbb f   trig.obj
 0001:00027c32       _jerry_assert_api_available 00427f32 f   jerry.obj
 0001:00027fb5       _jmem_heap_alloc_block_internal 004282b5 f   jmem-heap.obj
 0001:000282e1       _jmem_heap_gc_and_alloc_block 004285e1 f   jmem-heap.obj
 0001:0002872a       _lit_char_is_unicode_letter 00428a2a f   lit-char-helpers.obj
 0001:000289a7       _search_char_in_char_array 00428ca7 f   lit-char-helpers.obj
 0001:000289e6       _search_char_in_interval_array 00428ce6 f   lit-char-helpers.obj
 0001:00028d13       _convert_code_point_to_high_surrogate 00429013 f   lit-strings.obj
 0001:0002a71d       $LN77                      0042aa1d     js-lexer.obj
 0001:0002a749       _lexer_parse_identifier    0042aa49 f   js-lexer.obj
 0001:0002a90b       _lexer_parse_number        0042ac0b f   js-lexer.obj
 0001:0002aaa8       _lexer_parse_string        0042ada8 f   js-lexer.obj
 0001:0002ad4a       _lexer_process_char_literal 0042b04a f   js-lexer.obj
 0001:0002af8b       _skip_spaces               0042b28b f   js-lexer.obj
 0001:0002b17c       _parser_append_binary_token 0042b47c f   js-parser-expr.obj
 0001:0002b635       _parser_append_object_literal_item 0042b935 f   js-parser-expr.obj
 0001:0002b700       _parser_emit_unary_lvalue_opcode 0042ba00 f   js-parser-expr.obj
 0001:0002b9ac       _parser_parse_array_literal 0042bcac f   js-parser-expr.obj
 0001:0002bde6       _parser_parse_object_literal 0042c0e6 f   js-parser-expr.obj
 0001:0002bf7d       _parser_parse_unary_expression 0042c27d f   js-parser-expr.obj
 0001:0002c30a       _parser_process_binary_opcodes 0042c60a f   js-parser-expr.obj
 0001:0002c530       _parser_process_unary_expression 0042c830 f   js-parser-expr.obj
 0001:0002ca8d       _parser_push_result        0042cd8d f   js-parser-expr.obj
 0001:0002cba2       _parser_data_free          0042cea2 f   js-parser-mem.obj
 0001:0002d3d2       _parser_scan_primary_expression 0042d6d2 f   js-parser-scanner.obj
 0001:0002d522       _parser_scan_primary_expression_end 0042d822 f   js-parser-scanner.obj
 0001:0002d649       _parser_scan_statement     0042d949 f   js-parser-scanner.obj
 0001:0002d821       $LN35                      0042db21     js-parser-scanner.obj
 0001:0002d851       $LN31                      0042db51     js-parser-scanner.obj
 0001:0002dc9b       _parser_parse_break_statement 0042df9b f   js-parser-statm.obj
 0001:0002de37       _parser_parse_case_statement 0042e137 f   js-parser-statm.obj
 0001:0002deeb       _parser_parse_continue_statement 0042e1eb f   js-parser-statm.obj
 0001:0002e0e1       _parser_parse_default_statement 0042e3e1 f   js-parser-statm.obj
 0001:0002e16e       _parser_parse_do_while_statement_end 0042e46e f   js-parser-statm.obj
 0001:0002e240       _parser_parse_enclosed_expr 0042e540 f   js-parser-statm.obj
 0001:0002e289       _parser_parse_for_statement_end 0042e589 f   js-parser-statm.obj
 0001:0002e3e0       _parser_parse_for_statement_start 0042e6e0 f   js-parser-statm.obj
 0001:0002e737       _parser_parse_function_statement 0042ea37 f   js-parser-statm.obj
 0001:0002e8e0       _parser_parse_if_statement_end 0042ebe0 f   js-parser-statm.obj
 0001:0002e9b6       _parser_parse_if_statement_start 0042ecb6 f   js-parser-statm.obj
 0001:0002e9ff       _parser_parse_label        0042ecff f   js-parser-statm.obj
 0001:0002f261       $LN210                     0042f561     js-parser-statm.obj
 0001:0002f285       $LN211                     0042f585     js-parser-statm.obj
 0001:0002f2ad       _parser_parse_switch_statement_start 0042f5ad f   js-parser-statm.obj
 0001:0002f4eb       _parser_parse_try_statement_end 0042f7eb f   js-parser-statm.obj
 0001:0002f72f       _parser_parse_var_statement 0042fa2f f   js-parser-statm.obj
 0001:0002f7fe       _parser_parse_while_statement_end 0042fafe f   js-parser-statm.obj
 0001:0002f912       _parser_parse_while_statement_start 0042fc12 f   js-parser-statm.obj
 0001:0002f9e1       _parser_parse_with_statement_end 0042fce1 f   js-parser-statm.obj
 0001:0002fab0       _parser_parse_with_statement_start 0042fdb0 f   js-parser-statm.obj
 0001:0002fb1b       _parser_save_range         0042fe1b f   js-parser-statm.obj
 0001:0002fb43       _parser_set_range          0042fe43 f   js-parser-statm.obj
 0001:0002fb6e       _parser_stack_change_last_uint8 0042fe6e f   js-parser-statm.obj
 0001:0002fbbb       _parser_stack_iterator_read_uint8 0042febb f   js-parser-statm.obj
 0001:0002fbef       _parser_statement_length   0042feef f   js-parser-statm.obj
 0001:00030300       _parser_emit_two_bytes     00430600 f   js-parser-util.obj
 0001:00030693       _parse_update_branches     00430993 f   js-parser.obj
 0001:0003085a       _parser_compute_indicies   00430b5a f   js-parser.obj
 0001:00030ed2       _parser_encode_literal     004311d2 f   js-parser.obj
 0001:00030f0d       _parser_free_literals      0043120d f   js-parser.obj
 0001:00030f4f       _parser_generate_initializers 0043124f f   js-parser.obj
 0001:0003163d       _parser_parse_source       0043193d f   js-parser.obj
 0001:00031836       _parser_post_processing    00431b36 f   js-parser.obj
 0001:000320e1       _parser_update_backward_branch 004323e1 f   js-parser.obj
 0001:00032150       _parser_update_forward_branch 00432450 f   js-parser.obj
 0001:000321f1       _re_bytecode_list_append   004324f1 f   re-bytecode.obj
 0001:00032367       _re_realloc_regexp_bytecode_block 00432667 f   re-bytecode.obj
 0001:00032425       _re_append_char_class      00432725 f   re-compiler.obj
 0001:00032768       _re_insert_into_group      00432a68 f   re-compiler.obj
 0001:00032892       _re_insert_into_group_with_jump 00432b92 f   re-compiler.obj
 0001:000328c5       _re_insert_simple_iterator 00432bc5 f   re-compiler.obj
 0001:00032949       _re_parse_alternative      00432c49 f   re-compiler.obj
 0001:00032d15       $LN69                      00433015     re-compiler.obj
 0001:00032d6d       _re_count_num_of_groups    0043306d f   re-parser.obj
 0001:00032dcb       _re_hex_lookup             004330cb f   re-parser.obj
 0001:00033262       _re_parse_iterator         00433562 f   re-parser.obj
 0001:00033829       _re_parse_non_greedy_char  00433b29 f   re-parser.obj
 0001:00033849       _re_parse_octal            00433b49 f   re-parser.obj
 0001:00034b22       _vm_decode_branch_offset   00434e22 f   vm-stack.obj
 0001:00034e20       _opfunc_call               00435120 f   vm.obj
 0001:00034f32       _opfunc_construct          00435232 f   vm.obj
 0001:00034fbc       _vm_construct_literal_object 004352bc f   vm.obj
 0001:0003500a       _vm_execute                0043530a f   vm.obj
 0001:0003512d       _vm_get_implicit_this_value 0043542d f   vm.obj
 0001:00035188       _vm_init_loop              00435488 f   vm.obj
 0001:000353c7       _vm_loop                   004356c7 f   vm.obj
 0001:00037257       $LN810                     00437557     vm.obj
 0001:000373b3       _vm_op_get_value           004376b3 f   vm.obj
 0001:000374a3       _vm_op_set_value           004377a3 f   vm.obj
 0001:000376c0       $$000000                   004379c0     MSVCRT:llmul.obj
 0001:00037700       $$000000                   00437a00     MSVCRT:ftol2.obj
 0001:000377b0       $$000000                   00437ab0     MSVCRT:llshl.obj
 0001:000377d0       $$000000                   00437ad0     MSVCRT:ulldvrm.obj
 0002:00001354       _nums_with_ascending_length 00439054     ecma-helpers-string.obj
 0002:0000137c       _max_uint32_len            0043907c     ecma-helpers-string.obj
 0002:00003784       _ecma_property_hashmap_steps 0043b484     ecma-property-hashmap.obj
 0002:00005300       _unescaped_uri_set         0043d000     ecma-builtin-global.obj
 0002:00005310       _unescaped_uri_component_set 0043d010     ecma-builtin-global.obj
 0002:00005320       _ecma_escape_set           0043d020     ecma-builtin-global.obj
 0002:000064e0       ?digit_chars@?7??ecma_builtin_number_prototype_object_to_string@@9@9 0043e1e0     ecma-builtin-number-prototype.obj
 0002:00007db8       ?builtin_number_list@?BF@??ecma_builtin_try_to_instantiate_property@@9@9 0043fab8     ecma-builtins.obj
 0002:00007e08       _ecma_builtin_property_list_references 0043fb08     ecma-builtins.obj
 0002:000097e8       ?prototype_str_p@?1??ecma_op_function_try_lazy_instantiate_property@@9@9 004414e8     ecma-function-object.obj
 0002:0000b580       _atanhi                    00443280     atan.obj
 0002:0000b5a0       _atanlo                    004432a0     atan.obj
 0002:0000b650       _halF                      00443350     exp.obj
 0002:0000b660       _ln2HI                     00443360     exp.obj
 0002:0000b670       _ln2LO                     00443370     exp.obj
 0002:0000b710       _Zero                      00443410     math.obj
 0002:0000b720       _bp                        00443420     pow.obj
 0002:0000b730       _dp_h                      00443430     pow.obj
 0002:0000b740       _dp_l                      00443440     pow.obj
 0002:0000b898       _init_jk                   00443598     trig.obj
 0002:0000b8a8       _PIo2                      004435a8     trig.obj
 0002:0000b8e8       _ipio2                     004435e8     trig.obj
 0002:0000b9f0       _npio2_hw                  004436f0     trig.obj
 0002:0000c200       _unicode_letter_interv_sps 00443f00     lit-char-helpers.obj
 0002:0000c3a8       _unicode_letter_interv_lens 004440a8     lit-char-helpers.obj
 0002:0000c47c       _unicode_separator_char_interv_sps 0044417c     lit-char-helpers.obj
 0002:0000c47e       _unicode_separator_char_interv_lens 0044417e     lit-char-helpers.obj
 0002:0000c480       _unicode_letter_chars      00444180     lit-char-helpers.obj
 0002:0000c4f0       _unicode_non_letter_ident_part_interv_sps 004441f0     lit-char-helpers.obj
 0002:0000c5b8       _unicode_non_letter_ident_part_interv_lens 004442b8     lit-char-helpers.obj
 0002:0000c61c       _unicode_non_letter_ident_part_chars 0044431c     lit-char-helpers.obj
 0002:0000c654       _unicode_separator_chars   00444354     lit-char-helpers.obj
 0002:0000c7c0       ?lit_magic_strings@?1??lit_get_magic_string_utf8@@9@9 004444c0     lit-magic-strings.obj
 0002:0000cb68       ?lit_magic_string_sizes@?1??lit_get_magic_string_size@@9@9 00444868     lit-magic-strings.obj
 0002:0000cc58       ?lit_magic_string_size_block_starts@?1??lit_get_magic_string_size_block_start@@9@9 00444958     lit-magic-strings.obj
 0002:0000dcc0       _lexer_get_literal         004459c0     js-lexer.obj
 0002:0000dcc8       _lexer_set_literal         004459c8     js-lexer.obj
 0002:0000dcd0       _keyword_length_2          004459d0     js-lexer.obj
 0002:0000dcf0       _keyword_length_3          004459f0     js-lexer.obj
 0002:0000dd20       _keyword_length_4          00445a20     js-lexer.obj
 0002:0000dd68       _keyword_length_5          00445a68     js-lexer.obj
 0002:0000ddb8       _keyword_length_6          00445ab8     js-lexer.obj
 0002:0000de00       _keyword_length_7          00445b00     js-lexer.obj
 0002:0000de30       _keyword_length_8          00445b30     js-lexer.obj
 0002:0000de50       _keyword_length_9          00445b50     js-lexer.obj
 0002:0000de68       _keyword_length_10         00445b68     js-lexer.obj
 0002:0000de80       _keyword_string_list       00445b80     js-lexer.obj
 0002:0000e4f8       _parser_binary_precedence_table 004461f8     js-parser-expr.obj
 0002:0000f2f0       ?statement_lengths@?1??parser_statement_length@@9@9 00446ff0     js-parser-statm.obj
 0002:000113a8       _vm_decode_table           004490a8     vm.obj
 0002:00011d38       .idata$6                   00449a38     kernel32:KERNEL32.dll
 0003:00000000       __ctype                    00449a80     ctype.obj
 0003:00000008       _next                      00449a88     rand.obj
 0003:0000000c       _digits                    00449a8c     stdio.obj
 0003:00000010       _upper_digits              00449a90     stdio.obj
 0003:000000a4       _tb                        00449b24     time.obj
 0004:00000000       _pinit                     004ca480     MSVCRT:cpu_disp.obj
 0005:00000060       $R000000                   004ca520     * linker generated manifest res *
