 JerryEngine

 Timestamp is 5cf8f8e4 (Thu Jun  6 19:28:36 2019)

 Preferred load address is 00400000

 Start         Length     Name                   Class
 0001:00000000 00037b55H .text$mn                CODE
 0002:00000000 00000000H .idata$5                DATA
 0002:00000000 00012c30H .rdata                  DATA
 0002:00012c30 00000000H .edata                  DATA
 0002:00012c30 000000f8H .rdata$zzzdbg           DATA
 0002:00012d28 00000000H .idata$2                DATA
 0002:00012d28 00000000H .idata$3                DATA
 0002:00012d28 00000000H .idata$4                DATA
 0002:00012d28 00000000H .idata$6                DATA
 0003:00000000 000000c0H .data                   DATA
 0003:000000c0 00080940H .bss                    DATA
 0004:00000000 00000060H .rsrc$01                DATA
 0004:00000060 00000180H .rsrc$02                DATA

  Address         Publics by Value              Rva+Base       Lib:Object

 0000:00000000       ___guard_fids_table        00000000     <absolute>
 0000:00000000       ___enclave_config          00000000     <absolute>
 0000:00000000       ___guard_longjmp_count     00000000     <absolute>
 0000:00000000       ___dynamic_value_reloc_table 00000000     <absolute>
 0000:00000000       ___safe_se_handler_table   00000000     <absolute>
 0000:00000000       ___hybrid_auxiliary_iat    00000000     <absolute>
 0000:00000000       ___guard_iat_count         00000000     <absolute>
 0000:00000000       ___safe_se_handler_count   00000000     <absolute>
 0000:00000000       ___guard_iat_table         00000000     <absolute>
 0000:00000000       ___hybrid_code_map_count   00000000     <absolute>
 0000:00000000       ___guard_longjmp_table     00000000     <absolute>
 0000:00000000       ___guard_fids_count        00000000     <absolute>
 0000:00000000       ___volatile_metadata       00000000     <absolute>
 0000:00000000       ___hybrid_code_map         00000000     <absolute>
 0000:00000100       ___guard_flags             00000100     <absolute>
 0001:00000000       _ecma_alloc_collection_chunk 004002c0 f   ecma-alloc.obj
 0001:00000024       _ecma_alloc_collection_header 004002e4 f   ecma-alloc.obj
 0001:00000048       _ecma_alloc_extended_object 00400308 f   ecma-alloc.obj
 0001:00000051       _ecma_alloc_number         00400311 f   ecma-alloc.obj
 0001:00000075       _ecma_alloc_object         00400335 f   ecma-alloc.obj
 0001:00000099       _ecma_alloc_property_pair  00400359 f   ecma-alloc.obj
 0001:000000a2       _ecma_alloc_string         00400362 f   ecma-alloc.obj
 0001:000000c6       _ecma_dealloc_object       00400386 f   ecma-alloc.obj
 0001:000000c6       _ecma_dealloc_collection_header 00400386 f   ecma-alloc.obj
 0001:000000c6       _ecma_dealloc_string       00400386 f   ecma-alloc.obj
 0001:000000c6       _ecma_dealloc_collection_chunk 00400386 f   ecma-alloc.obj
 0001:000000c6       _ecma_dealloc_number       00400386 f   ecma-alloc.obj
 0001:000000d7       _parser_free_local         00400397 f   js-parser-mem.obj
 0001:000000d7       _parser_free               00400397 f   js-parser-mem.obj
 0001:000000d7       _ecma_dealloc_extended_object 00400397 f   ecma-alloc.obj
 0001:000000dc       _ecma_dealloc_property_pair 0040039c f   ecma-alloc.obj
 0001:000000ed       _ecma_deref_object         004003ad f   ecma-gc.obj
 0001:0000011d       _ecma_free_unused_memory   004003dd f   ecma-gc.obj
 0001:00000457       _ecma_gc_run               00400717 f   ecma-gc.obj
 0001:00000a0b       _ecma_init_gc_info         00400ccb f   ecma-gc.obj
 0001:00000a88       _ecma_ref_object           00400d48 f   ecma-gc.obj
 0001:00000aab       _ecma_number_to_decimal    00400d6b f   ecma-helpers-conversion.obj
 0001:00000b72       _ecma_number_to_int32      00400e32 f   ecma-helpers-conversion.obj
 0001:00000beb       _ecma_number_to_uint32     00400eab f   ecma-helpers-conversion.obj
 0001:00000d5b       _ecma_number_to_utf8_string 0040101b f   ecma-helpers-conversion.obj
 0001:00001053       _ecma_uint32_to_utf8_string 00401313 f   ecma-helpers-conversion.obj
 0001:000010bb       _ecma_utf8_string_to_number 0040137b f   ecma-helpers-conversion.obj
 0001:000026e1       _ecma_errol0_dtoa          004029a1 f   ecma-helpers-errol.obj
 0001:00002a54       _ecma_free_external_pointer_in_property 00402d14 f   ecma-helpers-external-pointers.obj
 0001:00002a83       _ecma_get_external_pointer_value 00402d43 f   ecma-helpers-external-pointers.obj
 0001:00002ad0       _ecma_number_add           00402d90 f   ecma-helpers-number.obj
 0001:00002adb       _ecma_number_calc_remainder 00402d9b f   ecma-helpers-number.obj
 0001:00002bf6       _ecma_number_divide        00402eb6 f   ecma-helpers-number.obj
 0001:00002c01       _ecma_number_get_fraction_and_exponent 00402ec1 f   ecma-helpers-number.obj
 0001:00002d01       _ecma_number_get_next      00402fc1 f   ecma-helpers-number.obj
 0001:00002e06       _ecma_number_get_prev      004030c6 f   ecma-helpers-number.obj
 0001:00002ede       _ecma_number_is_infinity   0040319e f   ecma-helpers-number.obj
 0001:00002f45       _ecma_number_is_nan        00403205 f   ecma-helpers-number.obj
 0001:00002fae       _ecma_number_is_negative   0040326e f   ecma-helpers-number.obj
 0001:00002fff       _ecma_number_is_zero       004032bf f   ecma-helpers-number.obj
 0001:00003093       _ecma_number_make_from_sign_mantissa_and_exponent 00403353 f   ecma-helpers-number.obj
 0001:000031b1       _ecma_number_make_infinity 00403471 f   ecma-helpers-number.obj
 0001:000031ca       _ecma_number_make_nan      0040348a f   ecma-helpers-number.obj
 0001:000031de       _ecma_number_make_normal_positive_from_fraction_and_exponent 0040349e f   ecma-helpers-number.obj
 0001:00003270       _ecma_number_multiply      00403530 f   ecma-helpers-number.obj
 0001:0000327b       _ecma_number_negate        0040353b f   ecma-helpers-number.obj
 0001:0000337c       _ecma_number_substract     0040363c f   ecma-helpers-number.obj
 0001:00003393       _ecma_number_trunc         00403653 f   ecma-helpers-number.obj
 0001:000034a0       _ecma_compare_ecma_strings 00403760 f   ecma-helpers-string.obj
 0001:000035a3       _ecma_compare_ecma_strings_relational 00403863 f   ecma-helpers-string.obj
 0001:000036fb       _ecma_concat_ecma_strings  004039bb f   ecma-helpers-string.obj
 0001:00003ac8       _ecma_deref_ecma_string    00403d88 f   ecma-helpers-string.obj
 0001:00003bd0       _ecma_get_magic_string     00403e90 f   ecma-helpers-string.obj
 0001:00003bd9       _ecma_get_string_magic     00403e99 f   ecma-helpers-string.obj
 0001:00003bf5       _ecma_init_ecma_string_from_uint32 00403eb5 f   ecma-helpers-string.obj
 0001:00003c0d       _ecma_new_ecma_length_string 00403ecd f   ecma-helpers-string.obj
 0001:00003c23       _ecma_new_ecma_string_from_code_unit 00403ee3 f   ecma-helpers-string.obj
 0001:00003c42       _ecma_new_ecma_string_from_magic_string_ex_id 00403f02 f   ecma-helpers-string.obj
 0001:00003c87       _ecma_new_ecma_string_from_magic_string_id 00403f47 f   ecma-helpers-string.obj
 0001:00003cc5       _ecma_new_ecma_string_from_number 00403f85 f   ecma-helpers-string.obj
 0001:00003e29       _ecma_new_ecma_string_from_uint32 004040e9 f   ecma-helpers-string.obj
 0001:00003e43       _ecma_new_ecma_string_from_utf8 00404103 f   ecma-helpers-string.obj
 0001:00003f95       _ecma_ref_ecma_string      00404255 f   ecma-helpers-string.obj
 0001:00003ff0       _ecma_string_compare_to_property_name 004042b0 f   ecma-helpers-string.obj
 0001:00004055       _ecma_string_copy_to_cesu8_buffer 00404315 f   ecma-helpers-string.obj
 0001:0000419e       _ecma_string_from_property_name 0040445e f   ecma-helpers-string.obj
 0001:0000421a       _ecma_string_get_array_index 004044da f   ecma-helpers-string.obj
 0001:0000422f       _ecma_string_get_char_at_pos 004044ef f   ecma-helpers-string.obj
 0001:0000433c       _ecma_string_get_length    004045fc f   ecma-helpers-string.obj
 0001:0000441f       _ecma_string_get_property_index 004046df f   ecma-helpers-string.obj
 0001:00004451       _ecma_string_get_property_name_hash 00404711 f   ecma-helpers-string.obj
 0001:00004487       _ecma_string_get_size      00404747 f   ecma-helpers-string.obj
 0001:000044f6       _ecma_string_hash          004047b6 f   ecma-helpers-string.obj
 0001:00004502       _ecma_string_is_empty      004047c2 f   ecma-helpers-string.obj
 0001:0000451c       _ecma_string_is_length     004047dc f   ecma-helpers-string.obj
 0001:00004539       _ecma_string_raw_chars     004047f9 f   ecma-helpers-string.obj
 0001:00004664       _ecma_string_substr        00404924 f   ecma-helpers-string.obj
 0001:00004890       _ecma_string_to_number     00404b50 f   ecma-helpers-string.obj
 0001:0000497a       _ecma_string_to_property_name 00404c3a f   ecma-helpers-string.obj
 0001:000049ba       _ecma_string_to_utf8_bytes 00404c7a f   ecma-helpers-string.obj
 0001:000049ef       _ecma_string_trim          00404caf f   ecma-helpers-string.obj
 0001:00004b11       _ecma_are_values_integer_numbers 00404dd1 f   ecma-helpers-value.obj
 0001:00004b24       _ecma_check_value_type_is_spec_defined 00404de4 f   ecma-helpers-value.obj
 0001:00004b79       _ecma_copy_value           00404e39 f   ecma-helpers-value.obj
 0001:00004be2       _ecma_copy_value_if_not_object 00404ea2 f   ecma-helpers-value.obj
 0001:00004c13       _ecma_fast_copy_value      00404ed3 f   ecma-helpers-value.obj
 0001:00004c26       _ecma_fast_free_value      00404ee6 f   ecma-helpers-value.obj
 0001:00004c37       _ecma_free_value           00404ef7 f   ecma-helpers-value.obj
 0001:00004c7a       _ecma_free_value_if_not_object 00404f3a f   ecma-helpers-value.obj
 0001:00004c8f       _ecma_get_float_from_value 00404f4f f   ecma-helpers-value.obj
 0001:00004cbe       _ecma_get_integer_from_value 00404f7e f   ecma-helpers-value.obj
 0001:00004ce7       _ecma_get_number_from_value 00404fa7 f   ecma-helpers-value.obj
 0001:00004d10       _ecma_get_object_from_value 00404fd0 f   ecma-helpers-value.obj
 0001:00004d40       _ecma_get_string_from_value 00405000 f   ecma-helpers-value.obj
 0001:00004d6f       _ecma_get_value_from_error_value 0040502f f   ecma-helpers-value.obj
 0001:00004d98       _ecma_invert_boolean_value 00405058 f   ecma-helpers-value.obj
 0001:00004de1       _ecma_is_value_array_hole  004050a1 f   ecma-helpers-value.obj
 0001:00004df4       _ecma_is_value_boolean     004050b4 f   ecma-helpers-value.obj
 0001:00004e07       _ecma_is_value_direct      004050c7 f   ecma-helpers-value.obj
 0001:00004e16       _ecma_is_value_empty       004050d6 f   ecma-helpers-value.obj
 0001:00004e29       _ecma_is_value_false       004050e9 f   ecma-helpers-value.obj
 0001:00004e3c       _ecma_is_value_float_number 004050fc f   ecma-helpers-value.obj
 0001:00004e4f       _ecma_is_value_found       0040510f f   ecma-helpers-value.obj
 0001:00004e5d       _ecma_is_value_integer_number 0040511d f   ecma-helpers-value.obj
 0001:00004e6c       _ecma_is_value_null        0040512c f   ecma-helpers-value.obj
 0001:00004e7f       _ecma_is_value_number      0040513f f   ecma-helpers-value.obj
 0001:00004e98       _ecma_is_value_object      00405158 f   ecma-helpers-value.obj
 0001:00004eab       _ecma_is_value_simple      0040516b f   ecma-helpers-value.obj
 0001:00004ebe       _ecma_is_value_string      0040517e f   ecma-helpers-value.obj
 0001:00004ed1       _ecma_is_value_true        00405191 f   ecma-helpers-value.obj
 0001:00004ee4       _ecma_is_value_undefined   004051a4 f   ecma-helpers-value.obj
 0001:00004ef7       _ecma_make_boolean_value   004051b7 f   ecma-helpers-value.obj
 0001:00004f09       _ecma_make_error_obj_value 004051c9 f   ecma-helpers-value.obj
 0001:00004f1e       _ecma_make_error_value     004051de f   ecma-helpers-value.obj
 0001:00004f47       _ecma_make_int32_value     00405207 f   ecma-helpers-value.obj
 0001:00004f7a       _ecma_make_integer_value   0040523a f   ecma-helpers-value.obj
 0001:00004fad       _ecma_make_nan_value       0040526d f   ecma-helpers-value.obj
 0001:00004fbf       _ecma_make_number_value    0040527f f   ecma-helpers-value.obj
 0001:00005026       _ecma_make_object_value    004052e6 f   ecma-helpers-value.obj
 0001:00005057       _ecma_make_simple_value    00405317 f   ecma-helpers-value.obj
 0001:00005065       _ecma_make_string_value    00405325 f   ecma-helpers-value.obj
 0001:00005096       _ecma_make_uint32_value    00405356 f   ecma-helpers-value.obj
 0001:000050f4       _ecma_update_float_number  004053b4 f   ecma-helpers-value.obj
 0001:000051c8       _ecma_value_assign_number  00405488 f   ecma-helpers-value.obj
 0001:00005251       _ecma_value_assign_value   00405511 f   ecma-helpers-value.obj
 0001:0000529e       _ecma_append_to_values_collection 0040555e f   ecma-helpers-values-collection.obj
 0001:00005379       _ecma_collection_iterator_init 00405639 f   ecma-helpers-values-collection.obj
 0001:000053a1       _ecma_collection_iterator_next 00405661 f   ecma-helpers-values-collection.obj
 0001:0000549a       _ecma_free_values_collection 0040575a f   ecma-helpers-values-collection.obj
 0001:00005576       _ecma_new_strings_collection 00405836 f   ecma-helpers-values-collection.obj
 0001:000055dc       _ecma_new_values_collection 0040589c f   ecma-helpers-values-collection.obj
 0001:000056de       _ecma_remove_last_value_from_values_collection 0040599e f   ecma-helpers-values-collection.obj
 0001:00005886       _ecma_bytecode_deref       00405b46 f   ecma-helpers.obj
 0001:0000592f       _ecma_bytecode_ref         00405bef f   ecma-helpers.obj
 0001:00005952       _ecma_create_decl_lex_env  00405c12 f   ecma-helpers.obj
 0001:0000598a       _ecma_create_named_accessor_property 00405c4a f   ecma-helpers.obj
 0001:00005a49       _ecma_create_named_data_property 00405d09 f   ecma-helpers.obj
 0001:00005adb       _ecma_create_object        00405d9b f   ecma-helpers.obj
 0001:00005b27       _ecma_create_object_lex_env 00405de7 f   ecma-helpers.obj
 0001:00005d59       _ecma_delete_array_properties 00406019 f   ecma-helpers.obj
 0001:00005fb2       _ecma_delete_property      00406272 f   ecma-helpers.obj
 0001:00006104       _ecma_find_internal_property 004063c4 f   ecma-helpers.obj
 0001:0000618b       _ecma_find_named_property  0040644b f   ecma-helpers.obj
 0001:00006355       _ecma_free_property        00406615 f   ecma-helpers.obj
 0001:0000642f       _ecma_free_property_descriptor 004066ef f   ecma-helpers.obj
 0001:00006487       _ecma_get_lex_env_binding_object 00406747 f   ecma-helpers.obj
 0001:00006509       _ecma_get_lex_env_outer_reference 004067c9 f   ecma-helpers.obj
 0001:00006566       _ecma_get_lex_env_provide_this 00406826 f   ecma-helpers.obj
 0001:000065ec       _ecma_get_lex_env_type     004068ac f   ecma-helpers.obj
 0001:0000663b       _ecma_get_named_accessor_property_getter 004068fb f   ecma-helpers.obj
 0001:00006656       _ecma_get_named_accessor_property_setter 00406916 f   ecma-helpers.obj
 0001:00006672       _ecma_get_named_data_property 00406932 f   ecma-helpers.obj
 0001:000066ea       _ecma_get_object_extensible 004069aa f   ecma-helpers.obj
 0001:0000673c       _ecma_get_object_is_builtin 004069fc f   ecma-helpers.obj
 0001:0000678e       _ecma_get_object_prototype 00406a4e f   ecma-helpers.obj
 0001:000067eb       _ecma_get_object_type      00406aab f   ecma-helpers.obj
 0001:0000683a       _ecma_get_property_list    00406afa f   ecma-helpers.obj
 0001:000068a3       _ecma_is_lexical_environment 00406b63 f   ecma-helpers.obj
 0001:000068d2       _ecma_is_property_configurable 00406b92 f   ecma-helpers.obj
 0001:0000690d       _ecma_is_property_enumerable 00406bcd f   ecma-helpers.obj
 0001:00006948       _ecma_is_property_lcached  00406c08 f   ecma-helpers.obj
 0001:00006981       _ecma_is_property_writable 00406c41 f   ecma-helpers.obj
 0001:000069b8       _ecma_make_empty_property_descriptor 00406c78 f   ecma-helpers.obj
 0001:000069e0       _ecma_named_data_property_assign_value 00406ca0 f   ecma-helpers.obj
 0001:00006a00       _ecma_set_named_accessor_property_getter 00406cc0 f   ecma-helpers.obj
 0001:00006a31       _ecma_set_named_accessor_property_setter 00406cf1 f   ecma-helpers.obj
 0001:00006a63       _ecma_set_object_extensible 00406d23 f   ecma-helpers.obj
 0001:00006ac2       _ecma_set_object_is_builtin 00406d82 f   ecma-helpers.obj
 0001:00006b2a       _ecma_set_property_configurable_attr 00406dea f   ecma-helpers.obj
 0001:00006b6b       _ecma_set_property_enumerable_attr 00406e2b f   ecma-helpers.obj
 0001:00006bac       _ecma_set_property_lcached 00406e6c f   ecma-helpers.obj
 0001:00006bed       _ecma_set_property_writable_attr 00406ead f   ecma-helpers.obj
 0001:00006c29       _ecma_finalize             00406ee9 f   ecma-init-finalize.obj
 0001:00006c4b       _ecma_init                 00406f0b f   ecma-init-finalize.obj
 0001:00006c6f       _ecma_lcache_init          00406f2f f   ecma-lcache.obj
 0001:00006c84       _ecma_lcache_insert        00406f44 f   ecma-lcache.obj
 0001:00006d7e       _ecma_lcache_invalidate    0040703e f   ecma-lcache.obj
 0001:00006edc       _ecma_lcache_lookup        0040719c f   ecma-lcache.obj
 0001:00006fdd       _ecma_finalize_lit_storage 0040729d f   ecma-literal-storage.obj
 0001:00006ff6       _ecma_find_or_create_literal_number 004072b6 f   ecma-literal-storage.obj
 0001:00007161       _ecma_find_or_create_literal_string 00407421 f   ecma-literal-storage.obj
 0001:000072c6       _ecma_property_hashmap_create 00407586 f   ecma-property-hashmap.obj
 0001:00007573       _ecma_property_hashmap_delete 00407833 f   ecma-property-hashmap.obj
 0001:000076df       _ecma_property_hashmap_find 0040799f f   ecma-property-hashmap.obj
 0001:000078d2       _ecma_property_hashmap_free 00407b92 f   ecma-property-hashmap.obj
 0001:00007927       _ecma_property_hashmap_insert 00407be7 f   ecma-property-hashmap.obj
 0001:00007a64       _ecma_builtin_array_prototype_dispatch_routine 00407d24 f   ecma-builtin-array-prototype.obj
 0001:0000c9af       _ecma_builtin_array_dispatch_call 0040cc6f f   ecma-builtin-array.obj
 0001:0000c9db       _ecma_builtin_array_dispatch_construct 0040cc9b f   ecma-builtin-array.obj
 0001:0000ca13       _ecma_builtin_array_dispatch_routine 0040ccd3 f   ecma-builtin-array.obj
 0001:0000cac1       _ecma_builtin_arraybuffer_prototype_dispatch_routine 0040cd81 f   ecma-builtin-arraybuffer-prototype.obj
 0001:0000cd7d       _ecma_builtin_arraybuffer_dispatch_call 0040d03d f   ecma-builtin-arraybuffer.obj
 0001:0000cdad       _ecma_builtin_arraybuffer_dispatch_construct 0040d06d f   ecma-builtin-arraybuffer.obj
 0001:0000cdd9       _ecma_builtin_arraybuffer_dispatch_routine 0040d099 f   ecma-builtin-arraybuffer.obj
 0001:0000ce10       _ecma_builtin_boolean_prototype_dispatch_routine 0040d0d0 f   ecma-builtin-boolean-prototype.obj
 0001:0000cf4a       _ecma_builtin_boolean_dispatch_call 0040d20a f   ecma-builtin-boolean.obj
 0001:0000cf96       _ecma_builtin_boolean_dispatch_construct 0040d256 f   ecma-builtin-boolean.obj
 0001:0000cfd7       _ecma_builtin_boolean_dispatch_routine 0040d297 f   ecma-builtin-boolean.obj
 0001:0000d132       _ecma_builtin_date_prototype_dispatch_routine 0040d3f2 f   ecma-builtin-date-prototype.obj
 0001:0000d8de       _ecma_builtin_date_dispatch_call 0040db9e f   ecma-builtin-date.obj
 0001:0000d951       _ecma_builtin_date_dispatch_construct 0040dc11 f   ecma-builtin-date.obj
 0001:0000dbb1       _ecma_builtin_date_dispatch_routine 0040de71 f   ecma-builtin-date.obj
 0001:0000e4e4       _ecma_builtin_error_prototype_dispatch_routine 0040e7a4 f   ecma-builtin-error-prototype.obj
 0001:0000e81d       _ecma_builtin_error_dispatch_call 0040eadd f   ecma-builtin-error.obj
 0001:0000e832       _ecma_builtin_error_dispatch_construct 0040eaf2 f   ecma-builtin-error.obj
 0001:0000e83b       _ecma_builtin_error_dispatch_routine 0040eafb f   ecma-builtin-error.obj
 0001:0000e850       _ecma_builtin_eval_error_prototype_dispatch_routine 0040eb10 f   ecma-builtin-evalerror-prototype.obj
 0001:0000e865       _ecma_builtin_eval_error_dispatch_call 0040eb25 f   ecma-builtin-evalerror.obj
 0001:0000e87a       _ecma_builtin_eval_error_dispatch_construct 0040eb3a f   ecma-builtin-evalerror.obj
 0001:0000e883       _ecma_builtin_eval_error_dispatch_routine 0040eb43 f   ecma-builtin-evalerror.obj
 0001:0000e898       _ecma_builtin_function_prototype_dispatch_call 0040eb58 f   ecma-builtin-function-prototype.obj
 0001:0000e8cb       _ecma_builtin_function_prototype_dispatch_construct 0040eb8b f   ecma-builtin-function-prototype.obj
 0001:0000e8fe       _ecma_builtin_function_prototype_dispatch_routine 0040ebbe f   ecma-builtin-function-prototype.obj
 0001:0000ef61       _ecma_builtin_function_dispatch_call 0040f221 f   ecma-builtin-function.obj
 0001:0000ef8d       _ecma_builtin_function_dispatch_construct 0040f24d f   ecma-builtin-function.obj
 0001:0000f01d       _ecma_builtin_function_dispatch_routine 0040f2dd f   ecma-builtin-function.obj
 0001:0000f2a6       _ecma_builtin_global_dispatch_routine 0040f566 f   ecma-builtin-global.obj
 0001:00010b64       _ecma_date_date_from_time  00410e24 f   ecma-builtin-helpers-date.obj
 0001:00010cc4       _ecma_date_day             00410f84 f   ecma-builtin-helpers-date.obj
 0001:00010cf1       _ecma_date_day_from_year   00410fb1 f   ecma-builtin-helpers-date.obj
 0001:00010d72       _ecma_date_day_within_year 00411032 f   ecma-builtin-helpers-date.obj
 0001:00010db4       _ecma_date_daylight_saving_ta 00411074 f   ecma-builtin-helpers-date.obj
 0001:00010df8       _ecma_date_days_in_year    004110b8 f   ecma-builtin-helpers-date.obj
 0001:00010ead       _ecma_date_hour_from_time  0041116d f   ecma-builtin-helpers-date.obj
 0001:00010f04       _ecma_date_in_leap_year    004111c4 f   ecma-builtin-helpers-date.obj
 0001:00010f39       _ecma_date_local_time      004111f9 f   ecma-builtin-helpers-date.obj
 0001:00010f76       _ecma_date_local_tza       00411236 f   ecma-builtin-helpers-date.obj
 0001:00010fa2       _ecma_date_make_date       00411262 f   ecma-builtin-helpers-date.obj
 0001:00011005       _ecma_date_make_day        004112c5 f   ecma-builtin-helpers-date.obj
 0001:000111b0       _ecma_date_make_time       00411470 f   ecma-builtin-helpers-date.obj
 0001:000112c9       _ecma_date_min_from_time   00411589 f   ecma-builtin-helpers-date.obj
 0001:00011320       _ecma_date_month_from_time 004115e0 f   ecma-builtin-helpers-date.obj
 0001:000114d3       _ecma_date_ms_from_time    00411793 f   ecma-builtin-helpers-date.obj
 0001:0001151c       _ecma_date_sec_from_time   004117dc f   ecma-builtin-helpers-date.obj
 0001:00011573       _ecma_date_time_clip       00411833 f   ecma-builtin-helpers-date.obj
 0001:000115cf       _ecma_date_time_from_year  0041188f f   ecma-builtin-helpers-date.obj
 0001:000115fc       _ecma_date_time_within_day 004118bc f   ecma-builtin-helpers-date.obj
 0001:00011634       _ecma_date_timezone_offset 004118f4 f   ecma-builtin-helpers-date.obj
 0001:0001166a       _ecma_date_utc             0041192a f   ecma-builtin-helpers-date.obj
 0001:0001177c       _ecma_date_value_to_date_string 00411a3c f   ecma-builtin-helpers-date.obj
 0001:00011872       _ecma_date_value_to_iso_string 00411b32 f   ecma-builtin-helpers-date.obj
 0001:00011a09       _ecma_date_value_to_string 00411cc9 f   ecma-builtin-helpers-date.obj
 0001:00011c00       _ecma_date_value_to_time_string 00411ec0 f   ecma-builtin-helpers-date.obj
 0001:00011d16       _ecma_date_value_to_utc_string 00411fd6 f   ecma-builtin-helpers-date.obj
 0001:00011e65       _ecma_date_week_day        00412125 f   ecma-builtin-helpers-date.obj
 0001:00011ebc       _ecma_date_year_from_time  0041217c f   ecma-builtin-helpers-date.obj
 0001:00011f6a       _ecma_builtin_helper_error_dispatch_call 0041222a f   ecma-builtin-helpers-error.obj
 0001:00012018       _ecma_builtin_helper_json_create_formatted_json 004122d8 f   ecma-builtin-helpers-json.obj
 0001:000120e8       _ecma_builtin_helper_json_create_hex_digit_ecma_string 004123a8 f   ecma-builtin-helpers-json.obj
 0001:0001218d       _ecma_builtin_helper_json_create_non_formatted_json 0041244d f   ecma-builtin-helpers-json.obj
 0001:000121dd       _ecma_builtin_helper_json_create_separated_properties 0041249d f   ecma-builtin-helpers-json.obj
 0001:00012260       _ecma_has_object_value_in_collection 00412520 f   ecma-builtin-helpers-json.obj
 0001:000122d4       _ecma_has_string_value_in_collection 00412594 f   ecma-builtin-helpers-json.obj
 0001:00012351       _ecma_builtin_helper_array_concat_value 00412611 f   ecma-builtin-helpers.obj
 0001:000125db       _ecma_builtin_helper_array_index_normalize 0041289b f   ecma-builtin-helpers.obj
 0001:000126ad       _ecma_builtin_helper_def_prop 0041296d f   ecma-builtin-helpers.obj
 0001:00012718       _ecma_builtin_helper_get_to_locale_string_at_index 004129d8 f   ecma-builtin-helpers.obj
 0001:000128ba       _ecma_builtin_helper_object_get_properties 00412b7a f   ecma-builtin-helpers.obj
 0001:000129b1       _ecma_builtin_helper_object_to_string 00412c71 f   ecma-builtin-helpers.obj
 0001:00012acf       _ecma_builtin_helper_string_find_index 00412d8f f   ecma-builtin-helpers.obj
 0001:00012d09       _ecma_builtin_helper_string_index_normalize 00412fc9 f   ecma-builtin-helpers.obj
 0001:00012d74       _ecma_builtin_helper_string_prototype_object_index_of 00413034 f   ecma-builtin-helpers.obj
 0001:0001335c       _ecma_builtin_json_dispatch_routine 0041361c f   ecma-builtin-json.obj
 0001:00014e2e       _ecma_builtin_math_dispatch_routine 004150ee f   ecma-builtin-math.obj
 0001:00015305       _ecma_builtin_number_prototype_dispatch_routine 004155c5 f   ecma-builtin-number-prototype.obj
 0001:000165e8       _ecma_builtin_number_dispatch_call 004168a8 f   ecma-builtin-number.obj
 0001:00016632       _ecma_builtin_number_dispatch_construct 004168f2 f   ecma-builtin-number.obj
 0001:00016673       _ecma_builtin_number_dispatch_routine 00416933 f   ecma-builtin-number.obj
 0001:00016688       _ecma_builtin_object_prototype_dispatch_routine 00416948 f   ecma-builtin-object-prototype.obj
 0001:00016a5e       _ecma_builtin_object_dispatch_call 00416d1e f   ecma-builtin-object.obj
 0001:00016ac2       _ecma_builtin_object_dispatch_construct 00416d82 f   ecma-builtin-object.obj
 0001:00016b00       _ecma_builtin_object_dispatch_routine 00416dc0 f   ecma-builtin-object.obj
 0001:000177c8       _ecma_builtin_range_error_prototype_dispatch_routine 00417a88 f   ecma-builtin-rangeerror-prototype.obj
 0001:000177dd       _ecma_builtin_range_error_dispatch_call 00417a9d f   ecma-builtin-rangeerror.obj
 0001:000177f2       _ecma_builtin_range_error_dispatch_construct 00417ab2 f   ecma-builtin-rangeerror.obj
 0001:000177fb       _ecma_builtin_range_error_dispatch_routine 00417abb f   ecma-builtin-rangeerror.obj
 0001:00017810       _ecma_builtin_reference_error_prototype_dispatch_routine 00417ad0 f   ecma-builtin-referenceerror-prototype.obj
 0001:00017825       _ecma_builtin_reference_error_dispatch_call 00417ae5 f   ecma-builtin-referenceerror.obj
 0001:0001783a       _ecma_builtin_reference_error_dispatch_construct 00417afa f   ecma-builtin-referenceerror.obj
 0001:00017843       _ecma_builtin_reference_error_dispatch_routine 00417b03 f   ecma-builtin-referenceerror.obj
 0001:00017c79       _ecma_builtin_regexp_prototype_dispatch_routine 00417f39 f   ecma-builtin-regexp-prototype.obj
 0001:00018126       _ecma_builtin_regexp_dispatch_call 004183e6 f   ecma-builtin-regexp.obj
 0001:0001812f       _ecma_builtin_regexp_dispatch_construct 004183ef f   ecma-builtin-regexp.obj
 0001:000182c8       _ecma_builtin_regexp_dispatch_routine 00418588 f   ecma-builtin-regexp.obj
 0001:0001855e       _ecma_builtin_string_prototype_dispatch_routine 0041881e f   ecma-builtin-string-prototype.obj
 0001:0001b86f       _ecma_builtin_string_dispatch_call 0041bb2f f   ecma-builtin-string.obj
 0001:0001b8c0       _ecma_builtin_string_dispatch_construct 0041bb80 f   ecma-builtin-string.obj
 0001:0001b8ef       _ecma_builtin_string_dispatch_routine 0041bbaf f   ecma-builtin-string.obj
 0001:0001bb1a       _ecma_builtin_syntax_error_prototype_dispatch_routine 0041bdda f   ecma-builtin-syntaxerror-prototype.obj
 0001:0001bb2f       _ecma_builtin_syntax_error_dispatch_call 0041bdef f   ecma-builtin-syntaxerror.obj
 0001:0001bb44       _ecma_builtin_syntax_error_dispatch_construct 0041be04 f   ecma-builtin-syntaxerror.obj
 0001:0001bb4d       _ecma_builtin_syntax_error_dispatch_routine 0041be0d f   ecma-builtin-syntaxerror.obj
 0001:0001bb62       _ecma_builtin_type_error_thrower_dispatch_call 0041be22 f   ecma-builtin-type-error-thrower.obj
 0001:0001bb92       _ecma_builtin_type_error_thrower_dispatch_construct 0041be52 f   ecma-builtin-type-error-thrower.obj
 0001:0001bbc2       _ecma_builtin_type_error_thrower_dispatch_routine 0041be82 f   ecma-builtin-type-error-thrower.obj
 0001:0001bbd7       _ecma_builtin_type_error_prototype_dispatch_routine 0041be97 f   ecma-builtin-typeerror-prototype.obj
 0001:0001bbec       _ecma_builtin_type_error_dispatch_call 0041beac f   ecma-builtin-typeerror.obj
 0001:0001bc01       _ecma_builtin_type_error_dispatch_construct 0041bec1 f   ecma-builtin-typeerror.obj
 0001:0001bc0a       _ecma_builtin_type_error_dispatch_routine 0041beca f   ecma-builtin-typeerror.obj
 0001:0001bc1f       _ecma_builtin_uri_error_prototype_dispatch_routine 0041bedf f   ecma-builtin-urierror-prototype.obj
 0001:0001bc34       _ecma_builtin_uri_error_dispatch_call 0041bef4 f   ecma-builtin-urierror.obj
 0001:0001bc49       _ecma_builtin_uri_error_dispatch_construct 0041bf09 f   ecma-builtin-urierror.obj
 0001:0001bc52       _ecma_builtin_uri_error_dispatch_routine 0041bf12 f   ecma-builtin-urierror.obj
 0001:0001bc67       _ecma_builtin_dispatch_call 0041bf27 f   ecma-builtins.obj
 0001:0001bec8       _ecma_builtin_dispatch_construct 0041c188 f   ecma-builtins.obj
 0001:0001c4c9       _ecma_builtin_function_is_routine 0041c789 f   ecma-builtins.obj
 0001:0001c522       _ecma_builtin_get          0041c7e2 f   ecma-builtins.obj
 0001:0001c773       _ecma_builtin_is           0041ca33 f   ecma-builtins.obj
 0001:0001c7d0       _ecma_builtin_list_lazy_property_names 0041ca90 f   ecma-builtins.obj
 0001:0001ca23       _ecma_builtin_try_to_instantiate_property 0041cce3 f   ecma-builtins.obj
 0001:0001cd78       _ecma_finalize_builtins    0041d038 f   ecma-builtins.obj
 0001:0001dafb       _ecma_op_array_list_lazy_property_names 0041ddbb f   ecma-array-object.obj
 0001:0001db58       _ecma_op_array_object_define_own_property 0041de18 f   ecma-array-object.obj
 0001:0001dce7       _ecma_op_array_object_set_length 0041dfa7 f   ecma-array-object.obj
 0001:0001de61       _ecma_op_create_array_object 0041e121 f   ecma-array-object.obj
 0001:0001df6e       _ecma_arraybuffer_get_buffer 0041e22e f   ecma-arraybuffer-object.obj
 0001:0001dfa3       _ecma_arraybuffer_get_length 0041e263 f   ecma-arraybuffer-object.obj
 0001:0001dfd8       _ecma_arraybuffer_new_object 0041e298 f   ecma-arraybuffer-object.obj
 0001:0001e014       _ecma_op_create_arraybuffer_object 0041e2d4 f   ecma-arraybuffer-object.obj
 0001:0001e15f       _ecma_op_create_boolean_object 0041e41f f   ecma-boolean-object.obj
 0001:0001e1a8       _ecma_op_abstract_equality_compare 0041e468 f   ecma-comparison.obj
 0001:0001e3f4       _ecma_op_abstract_relational_compare 0041e6b4 f   ecma-comparison.obj
 0001:0001e86c       _ecma_op_strict_equality_compare 0041eb2c f   ecma-comparison.obj
 0001:0001ead8       _ecma_op_check_object_coercible 0041ed98 f   ecma-conversion.obj
 0001:0001eb10       _ecma_op_from_property_descriptor 0041edd0 f   ecma-conversion.obj
 0001:0001ed40       _ecma_op_same_value        0041f000 f   ecma-conversion.obj
 0001:0001ef46       _ecma_op_to_boolean        0041f206 f   ecma-conversion.obj
 0001:0001f048       _ecma_op_to_number         0041f308 f   ecma-conversion.obj
 0001:0001f166       _ecma_op_to_object         0041f426 f   ecma-conversion.obj
 0001:0001f20a       _ecma_op_to_primitive      0041f4ca f   ecma-conversion.obj
 0001:0001f241       _ecma_op_to_property_descriptor 0041f501 f   ecma-conversion.obj
 0001:0001f702       _ecma_op_to_string         0041f9c2 f   ecma-conversion.obj
 0001:0001f84c       _ecma_op_eval              0041fb0c f   ecma-eval.obj
 0001:0001f8ef       _ecma_op_eval_chars_buffer 0041fbaf f   ecma-eval.obj
 0001:0001f949       _ecma_new_standard_error   0041fc09 f   ecma-exceptions.obj
 0001:0001f9bc       _ecma_new_standard_error_with_message 0041fc7c f   ecma-exceptions.obj
 0001:0001fa04       _ecma_raise_common_error   0041fcc4 f   ecma-exceptions.obj
 0001:0001fa15       _ecma_raise_range_error    0041fcd5 f   ecma-exceptions.obj
 0001:0001fa26       _ecma_raise_reference_error 0041fce6 f   ecma-exceptions.obj
 0001:0001fa37       _ecma_raise_standard_error 0041fcf7 f   ecma-exceptions.obj
 0001:0001fa7e       _ecma_raise_syntax_error   0041fd3e f   ecma-exceptions.obj
 0001:0001fa8f       _ecma_raise_type_error     0041fd4f f   ecma-exceptions.obj
 0001:0001faa0       _ecma_raise_uri_error      0041fd60 f   ecma-exceptions.obj
 0001:0001fab1       _ecma_is_constructor       0041fd71 f   ecma-function-object.obj
 0001:0001fb4a       _ecma_op_create_function_object 0041fe0a f   ecma-function-object.obj
 0001:0001fc18       _ecma_op_function_call     0041fed8 f   ecma-function-object.obj
 0001:0001fef6       _ecma_op_function_construct 004201b6 f   ecma-function-object.obj
 0001:0002023e       _ecma_op_function_has_instance 004204fe f   ecma-function-object.obj
 0001:000203d3       _ecma_op_function_list_lazy_property_names 00420693 f   ecma-function-object.obj
 0001:0002042d       _ecma_op_function_try_lazy_instantiate_property 004206ed f   ecma-function-object.obj
 0001:000204fa       _ecma_op_is_callable       004207ba f   ecma-function-object.obj
 0001:0002057f       _ecma_op_get_value_lex_env_base 0042083f f   ecma-get-put-value.obj
 0001:000205bc       _ecma_op_get_value_object_base 0042087c f   ecma-get-put-value.obj
 0001:0002070e       _ecma_op_put_value_lex_env_base 004209ce f   ecma-get-put-value.obj
 0001:000207ae       _ecma_finalize_global_lex_env 00420a6e f   ecma-lex-env.obj
 0001:000207c2       _ecma_get_global_environment 00420a82 f   ecma-lex-env.obj
 0001:000207c8       _ecma_init_global_lex_env  00420a88 f   ecma-lex-env.obj
 0001:000207ec       _ecma_op_create_immutable_binding 00420aac f   ecma-lex-env.obj
 0001:0002085d       _ecma_op_create_mutable_binding 00420b1d f   ecma-lex-env.obj
 0001:0002095d       _ecma_op_delete_binding    00420c1d f   ecma-lex-env.obj
 0001:00020a63       _ecma_op_get_binding_value 00420d23 f   ecma-lex-env.obj
 0001:00020b44       _ecma_op_has_binding       00420e04 f   ecma-lex-env.obj
 0001:00020bd0       _ecma_op_implicit_this_value 00420e90 f   ecma-lex-env.obj
 0001:00020c69       _ecma_op_set_mutable_binding 00420f29 f   ecma-lex-env.obj
 0001:00020da9       _ecma_op_number_remainder  00421069 f   ecma-number-arithmetic.obj
 0001:00020e5a       _ecma_op_create_number_object 0042111a f   ecma-number-object.obj
 0001:00020ea3       _ecma_op_arguments_object_define_own_property 00421163 f   ecma-objects-arguments.obj
 0001:00020f57       _ecma_op_arguments_object_delete 00421217 f   ecma-objects-arguments.obj
 0001:00020feb       _ecma_op_create_arguments_object 004212ab f   ecma-objects-arguments.obj
 0001:000212a9       _ecma_op_create_object_object_arg 00421569 f   ecma-objects-general.obj
 0001:00021327       _ecma_op_create_object_object_noarg 004215e7 f   ecma-objects-general.obj
 0001:00021348       _ecma_op_create_object_object_noarg_and_set_prototype 00421608 f   ecma-objects-general.obj
 0001:0002135c       _ecma_op_general_object_default_value 0042161c f   ecma-objects-general.obj
 0001:0002148c       _ecma_op_general_object_define_own_property 0042174c f   ecma-objects-general.obj
 0001:0002195e       _ecma_op_general_object_delete 00421c1e f   ecma-objects-general.obj
 0001:00021a02       _ecma_reject               00421cc2 f   ecma-objects-general.obj
 0001:00021a1e       _ecma_object_class_is      00421cde f   ecma-objects.obj
 0001:00021a3f       _ecma_object_get_class_name 00421cff f   ecma-objects.obj
 0001:00021b2d       _ecma_op_object_default_value 00421ded f   ecma-objects.obj
 0001:00021bd4       _ecma_op_object_define_own_property 00421e94 f   ecma-objects.obj
 0001:00021c89       _ecma_op_object_delete     00421f49 f   ecma-objects.obj
 0001:00021d1f       _ecma_op_object_find       00421fdf f   ecma-objects.obj
 0001:00021d77       _ecma_op_object_find_own   00422037 f   ecma-objects.obj
 0001:00021fa0       _ecma_op_object_get        00422260 f   ecma-objects.obj
 0001:00021ff8       _ecma_op_object_get_own_data_prop 004222b8 f   ecma-objects.obj
 0001:00022059       _ecma_op_object_get_own_property 00422319 f   ecma-objects.obj
 0001:000222b4       _ecma_op_object_get_own_property_descriptor 00422574 f   ecma-objects.obj
 0001:000223c8       _ecma_op_object_get_property 00422688 f   ecma-objects.obj
 0001:00022403       _ecma_op_object_get_property_names 004226c3 f   ecma-objects.obj
 0001:00022c2c       _ecma_op_object_has_instance 00422eec f   ecma-objects.obj
 0001:00022cad       _ecma_op_object_has_own_property 00422f6d f   ecma-objects.obj
 0001:00022ccd       _ecma_op_object_has_property 00422f8d f   ecma-objects.obj
 0001:00022ced       _ecma_op_object_is_prototype_of 00422fad f   ecma-objects.obj
 0001:00022d0e       _ecma_op_object_put        00422fce f   ecma-objects.obj
 0001:0002304c       _ecma_op_resolve_reference_base 0042330c f   ecma-reference.obj
 0001:00023091       _ecma_op_resolve_reference_value 00423351 f   ecma-reference.obj
 0001:000231bd       _ecma_op_create_regexp_object 0042347d f   ecma-regexp-object.obj
 0001:000232ee       _ecma_op_create_regexp_object_from_bytecode 004235ae f   ecma-regexp-object.obj
 0001:00023368       _ecma_regexp_exec_helper   00423628 f   ecma-regexp-object.obj
 0001:0002398f       _re_canonicalize           00423c4f f   ecma-regexp-object.obj
 0001:000239e1       _re_initialize_props       00423ca1 f   ecma-regexp-object.obj
 0001:00024896       _re_parse_regexp_flags     00424b56 f   ecma-regexp-object.obj
 0001:00024a39       _re_set_result_array_properties 00424cf9 f   ecma-regexp-object.obj
 0001:00024ada       _ecma_op_create_string_object 00424d9a f   ecma-string-object.obj
 0001:00024b7c       _ecma_op_string_list_lazy_property_names 00424e3c f   ecma-string-object.obj
 0001:00024c41       __hx_jerry_entry           00424f01 f   entry.obj
 0001:00024f1b       _jerry_port_console        004251db f   hellox-port.obj
 0001:00024f48       _jerry_port_fatal          00425208 f   hellox-port.obj
 0001:00024f64       _jerry_port_get_current_time 00425224 f   hellox-port.obj
 0001:00024f9d       _jerry_port_get_time_zone  0042525d f   hellox-port.obj
 0001:00024faf       _jerry_port_log            0042526f f   hellox-port.obj
 0001:00024fe4       _acos                      004252a4 f   acos.obj
 0001:000251ce       _asin                      0042548e f   asin.obj
 0001:00025387       _atan                      00425647 f   atan.obj
 0001:000254fb       _atan2                     004257bb f   atan2.obj
 0001:000256c2       _ceil                      00425982 f   ceil.obj
 0001:000257d6       _copysign                  00425a96 f   copysign.obj
 0001:000257ef       _exp                       00425aaf f   exp.obj
 0001:0002598e       _fabs                      00425c4e f   fabs.obj
 0001:0002599d       _ChangeLine                00425c5d f   kapi.obj
 0001:000259a6       _GetCursorPos              00425c66 f   kapi.obj
 0001:000259bf       _GetMessage                00425c7f f   kapi.obj
 0001:000259d2       _GetSystemTime             00425c92 f   kapi.obj
 0001:000259e5       _GotoHome                  00425ca5 f   kapi.obj
 0001:000259ee       _GotoPrev                  00425cae f   kapi.obj
 0001:000259f7       _KMemAlloc                 00425cb7 f   kapi.obj
 0001:00025a10       _KMemFree                  00425cd0 f   kapi.obj
 0001:00025a2f       _PrintChar                 00425cef f   kapi.obj
 0001:00025a49       _SetCursorPos              00425d09 f   kapi.obj
 0001:00025a66       _TerminateKernelThread     00425d26 f   kapi.obj
 0001:00025a7f       ___BUG                     00425d3f f   kapi.obj
 0001:00025a97       _log                       00425d57 f   log.obj
 0001:00025a9a       _floor                     00425d5a f   math.obj
 0001:00025bba       _fmod                      00425e7a f   math.obj
 0001:00025e62       _memcmp                    00426122 f   memory.obj
 0001:00025e91       _memcpy                    00426151 f   memory.obj
 0001:00025eb6       _memmove                   00426176 f   memory.obj
 0001:00025f0e       _memset                    004261ce f   memory.obj
 0001:00025f3c       _nextafter                 004261fc f   nextafter.obj
 0001:0002602a       _pow                       004262ea f   pow.obj
 0001:00026693       _rand                      00426953 f   rand.obj
 0001:000266c3       _scalbn                    00426983 f   scalbn.obj
 0001:000267a7       _exit                      00426a67 f   sched.obj
 0001:000267b8       ___longjmp                 00426a78 f   setjmp.obj
 0001:000267d5       ___setjmp                  00426a95 f   setjmp.obj
 0001:000267f0       _sqrt                      00426ab0 f   sqrt.obj
 0001:0002699b       __hx_printf                00426c5b f   stdio.obj
 0001:00026a58       __hx_vsprintf              00426d18 f   stdio.obj
 0001:000270c6       _strlen                    00427386 f   string.obj
 0001:000270db       _strncmp                   0042739b f   string.obj
 0001:00027153       __hx_free                  00427413 f   sysmem.obj
 0001:00027191       __hx_malloc                00427451 f   sysmem.obj
 0001:000271b2       __gmtotime_t               00427472 f   time.obj
 0001:00027226       __time                     004274e6 f   time.obj
 0001:0002726a       _gettimeofday              0042752a f   time.obj
 0001:00027d51       _cos                       00428011 f   trig.obj
 0001:00027e0c       _sin                       004280cc f   trig.obj
 0001:00027ec9       _tan                       00428189 f   trig.obj
 0001:00027f4d       _jerry_cleanup             0042820d f   jerry.obj
 0001:00027f64       _jerry_dispatch_external_function 00428224 f   jerry.obj
 0001:00027f87       _jerry_dispatch_object_free_callback 00428247 f   jerry.obj
 0001:00027fa1       _jerry_eval                00428261 f   jerry.obj
 0001:00027fbe       _jerry_get_boolean_value   0042827e f   jerry.obj
 0001:00027fe0       _jerry_get_string_size     004282a0 f   jerry.obj
 0001:00028009       _jerry_init                004282c9 f   jerry.obj
 0001:0002805f       _jerry_release_value       0042831f f   jerry.obj
 0001:0002806d       _jerry_string_to_char_buffer 0042832d f   jerry.obj
 0001:000280b6       _jerry_value_has_error_flag 00428376 f   jerry.obj
 0001:000280c9       _jerry_value_is_boolean    00428389 f   jerry.obj
 0001:000280d7       _jerry_value_is_null       00428397 f   jerry.obj
 0001:000280e5       _jerry_value_is_number     004283a5 f   jerry.obj
 0001:000280f3       _jerry_value_is_object     004283b3 f   jerry.obj
 0001:00028101       _jerry_value_is_string     004283c1 f   jerry.obj
 0001:0002810f       _jerry_value_is_undefined  004283cf f   jerry.obj
 0001:0002811d       _jmem_compress_pointer     004283dd f   jmem-allocator.obj
 0001:000281b6       _jmem_decompress_pointer   00428476 f   jmem-allocator.obj
 0001:0002821c       _jmem_finalize             004284dc f   jmem-allocator.obj
 0001:00028226       _jmem_init                 004284e6 f   jmem-allocator.obj
 0001:0002822b       _jmem_register_free_unused_memory_callback 004284eb f   jmem-allocator.obj
 0001:0002825b       _jmem_run_free_unused_memory_callbacks 0042851b f   jmem-allocator.obj
 0001:00028273       _jmem_unregister_free_unused_memory_callback 00428533 f   jmem-allocator.obj
 0001:000282a3       _jmem_heap_alloc_block     00428563 f   jmem-heap.obj
 0001:00028444       _jmem_heap_alloc_block_null_on_error 00428704 f   jmem-heap.obj
 0001:00028455       _jmem_heap_finalize        00428715 f   jmem-heap.obj
 0001:00028479       _jmem_heap_free_block      00428739 f   jmem-heap.obj
 0001:0002863a       _jmem_heap_init            004288fa f   jmem-heap.obj
 0001:0002868f       _jmem_is_heap_pointer      0042894f f   jmem-heap.obj
 0001:000286ad       _jmem_pools_alloc          0042896d f   jmem-poolman.obj
 0001:000286e8       _jmem_pools_collect_empty  004289a8 f   jmem-poolman.obj
 0001:0002870d       _jmem_pools_finalize       004289cd f   jmem-poolman.obj
 0001:00028733       _jmem_pools_free           004289f3 f   jmem-poolman.obj
 0001:00028780       _jerry_assert_fail         00428a40 f   jrt-fatals.obj
 0001:000287a6       _jerry_fatal               00428a66 f   jrt-fatals.obj
 0001:000287e3       _jerry_unreachable         00428aa3 f   jrt-fatals.obj
 0001:00028806       _lit_char_get_utf8_length  00428ac6 f   lit-char-helpers.obj
 0001:00028829       _lit_char_hex_to_int       00428ae9 f   lit-char-helpers.obj
 0001:0002887c       _lit_char_is_decimal_digit 00428b3c f   lit-char-helpers.obj
 0001:00028891       _lit_char_is_hex_digit     00428b51 f   lit-char-helpers.obj
 0001:000288b8       _lit_char_is_identifier_part 00428b78 f   lit-char-helpers.obj
 0001:000288e3       _lit_char_is_identifier_part_character 00428ba3 f   lit-char-helpers.obj
 0001:0002895b       _lit_char_is_identifier_start 00428c1b f   lit-char-helpers.obj
 0001:00028986       _lit_char_is_identifier_start_character 00428c46 f   lit-char-helpers.obj
 0001:000289c1       _lit_char_is_line_terminator 00428c81 f   lit-char-helpers.obj
 0001:000289ed       _lit_char_is_octal_digit   00428cad f   lit-char-helpers.obj
 0001:00028a40       _lit_char_is_white_space   00428d00 f   lit-char-helpers.obj
 0001:00028aa7       _lit_char_is_word_char     00428d67 f   lit-char-helpers.obj
 0001:00028ae1       _lit_char_to_lower_case    00428da1 f   lit-char-helpers.obj
 0001:00028b1e       _lit_char_to_upper_case    00428dde f   lit-char-helpers.obj
 0001:00028b5b       _lit_char_to_utf8_bytes    00428e1b f   lit-char-helpers.obj
 0001:00028bb6       _lit_read_code_unit_from_hex 00428e76 f   lit-char-helpers.obj
 0001:00028ce5       _lit_copy_magic_string_to_buffer 00428fa5 f   lit-magic-strings.obj
 0001:00028d3f       _lit_get_magic_string_ex_count 00428fff f   lit-magic-strings.obj
 0001:00028d45       _lit_get_magic_string_ex_size 00429005 f   lit-magic-strings.obj
 0001:00028d55       _lit_get_magic_string_ex_utf8 00429015 f   lit-magic-strings.obj
 0001:00028d83       _lit_get_magic_string_size 00429043 f   lit-magic-strings.obj
 0001:00028db0       _lit_get_magic_string_size_block_start 00429070 f   lit-magic-strings.obj
 0001:00028ddb       _lit_get_magic_string_utf8 0042909b f   lit-magic-strings.obj
 0001:00028e08       _lit_is_ex_utf8_string_magic 004290c8 f   lit-magic-strings.obj
 0001:00028e53       _lit_is_ex_utf8_string_pair_magic 00429113 f   lit-magic-strings.obj
 0001:00028ec2       _lit_is_utf8_string_magic  00429182 f   lit-magic-strings.obj
 0001:00028f25       _lit_is_utf8_string_pair_magic 004291e5 f   lit-magic-strings.obj
 0001:00028ff6       _lit_code_point_to_cesu8   004292b6 f   lit-strings.obj
 0001:0002904c       _lit_code_point_to_utf8    0042930c f   lit-strings.obj
 0001:0002915c       _lit_code_unit_to_utf8     0042941c f   lit-strings.obj
 0001:000291e4       _lit_compare_utf8_strings_relational 004294a4 f   lit-strings.obj
 0001:00029247       _lit_convert_surrogate_pair_to_code_point 00429507 f   lit-strings.obj
 0001:000292b9       _lit_get_unicode_char_size_by_utf8_first_byte 00429579 f   lit-strings.obj
 0001:000292fb       _lit_is_cesu8_string_valid 004295bb f   lit-strings.obj
 0001:00029399       _lit_is_code_point_utf16_high_surrogate 00429659 f   lit-strings.obj
 0001:000293b0       _lit_is_code_point_utf16_low_surrogate 00429670 f   lit-strings.obj
 0001:000293c7       _lit_is_utf8_string_valid  00429687 f   lit-strings.obj
 0001:000294bc       _lit_read_code_point_from_utf8 0042977c f   lit-strings.obj
 0001:0002958b       _lit_read_code_unit_from_utf8 0042984b f   lit-strings.obj
 0001:00029643       _lit_read_prev_code_unit_from_utf8 00429903 f   lit-strings.obj
 0001:00029676       _lit_utf8_decr             00429936 f   lit-strings.obj
 0001:000296a9       _lit_utf8_incr             00429969 f   lit-strings.obj
 0001:000296df       _lit_utf8_peek_next        0042999f f   lit-strings.obj
 0001:00029717       _lit_utf8_peek_prev        004299d7 f   lit-strings.obj
 0001:0002974f       _lit_utf8_read_next        00429a0f f   lit-strings.obj
 0001:0002978b       _lit_utf8_read_prev        00429a4b f   lit-strings.obj
 0001:000297cc       _lit_utf8_string_calc_hash 00429a8c f   lit-strings.obj
 0001:0002980a       _lit_utf8_string_code_unit_at 00429aca f   lit-strings.obj
 0001:00029857       _lit_utf8_string_hash_combine 00429b17 f   lit-strings.obj
 0001:000298a6       _lit_utf8_string_length    00429b66 f   lit-strings.obj
 0001:000298e9       _lit_zt_utf8_string_size   00429ba9 f   lit-strings.obj
 0001:000298f2       _util_free_literal         00429bb2 f   common.obj
 0001:0002992a       _lexer_compare_identifier_to_current 00429bea f   js-lexer.obj
 0001:00029a55       _lexer_construct_function_object 00429d15 f   js-lexer.obj
 0001:00029ac7       _lexer_construct_literal_object 00429d87 f   js-lexer.obj
 0001:00029fe2       _lexer_construct_number_object 0042a2a2 f   js-lexer.obj
 0001:0002a136       _lexer_construct_regexp_object 0042a3f6 f   js-lexer.obj
 0001:0002a397       _lexer_expect_identifier   0042a657 f   js-lexer.obj
 0001:0002a477       _lexer_expect_object_literal_id 0042a737 f   js-lexer.obj
 0001:0002a597       _lexer_hex_to_character    0042a857 f   js-lexer.obj
 0001:0002a5e4       _lexer_next_token          0042a8a4 f   js-lexer.obj
 0001:0002b12b       _lexer_scan_identifier     0042b3eb f   js-lexer.obj
 0001:0002bceb       _parser_parse_expression   0042bfab f   js-parser-expr.obj
 0001:0002cdb6       _parser_cbc_stream_alloc_page 0042d076 f   js-parser-mem.obj
 0001:0002cde1       _parser_cbc_stream_free    0042d0a1 f   js-parser-mem.obj
 0001:0002cdf2       _parser_cbc_stream_init    0042d0b2 f   js-parser-mem.obj
 0001:0002ce2b       _parser_list_append        0042d0eb f   js-parser-mem.obj
 0001:0002ce84       _parser_list_free          0042d144 f   js-parser-mem.obj
 0001:0002ce9b       _parser_list_get           0042d15b f   js-parser-mem.obj
 0001:0002cf10       _parser_list_init          0042d1d0 f   js-parser-mem.obj
 0001:0002cf3e       _parser_list_iterator_init 0042d1fe f   js-parser-mem.obj
 0001:0002cf54       _parser_list_iterator_next 0042d214 f   js-parser-mem.obj
 0001:0002cf9c       _parser_list_reset         0042d25c f   js-parser-mem.obj
 0001:0002cfb1       _parser_malloc             0042d271 f   js-parser-mem.obj
 0001:0002cff2       _parser_malloc_local       0042d2b2 f   js-parser-mem.obj
 0001:0002d033       _parser_stack_free         0042d2f3 f   js-parser-mem.obj
 0001:0002d061       _parser_stack_init         0042d321 f   js-parser-mem.obj
 0001:0002d087       _parser_stack_iterator_read 0042d347 f   js-parser-mem.obj
 0001:0002d11b       _parser_stack_iterator_skip 0042d3db f   js-parser-mem.obj
 0001:0002d163       _parser_stack_iterator_write 0042d423 f   js-parser-mem.obj
 0001:0002d1f7       _parser_stack_pop          0042d4b7 f   js-parser-mem.obj
 0001:0002d323       _parser_stack_pop_uint16   0042d5e3 f   js-parser-mem.obj
 0001:0002d3aa       _parser_stack_pop_uint8    0042d66a f   js-parser-mem.obj
 0001:0002d456       _parser_stack_push         0042d716 f   js-parser-mem.obj
 0001:0002d517       _parser_stack_push_uint16  0042d7d7 f   js-parser-mem.obj
 0001:0002d5a4       _parser_stack_push_uint8   0042d864 f   js-parser-mem.obj
 0001:0002dad0       _parser_scan_until         0042dd90 f   js-parser-scanner.obj
 0001:0002ddd2       _parser_free_jumps         0042e092 f   js-parser-statm.obj
 0001:0002ed39       _parser_parse_statements   0042eff9 f   js-parser-statm.obj
 0001:0002feb3       _parser_emit_cbc           00430173 f   js-parser-util.obj
 0001:0002ff14       _parser_emit_cbc_backward_branch 004301d4 f   js-parser-util.obj
 0001:00030184       _parser_emit_cbc_call      00430444 f   js-parser-util.obj
 0001:00030211       _parser_emit_cbc_forward_branch 004304d1 f   js-parser-util.obj
 0001:000303a9       _parser_emit_cbc_forward_branch_item 00430669 f   js-parser-util.obj
 0001:000303dd       _parser_emit_cbc_literal   0043069d f   js-parser-util.obj
 0001:00030457       _parser_emit_cbc_literal_from_token 00430717 f   js-parser-util.obj
 0001:000304d7       _parser_emit_cbc_push_number 00430797 f   js-parser-util.obj
 0001:0003060f       _parser_flush_cbc          004308cf f   js-parser-util.obj
 0001:00030811       _parser_set_branch_to_current_position 00430ad1 f   js-parser-util.obj
 0001:000308bc       _parser_set_breaks_to_current_position 00430b7c f   js-parser-util.obj
 0001:000308f2       _parser_set_continues_to_current_position 00430bb2 f   js-parser-util.obj
 0001:000314f3       _parser_parse_function     004317b3 f   js-parser.obj
 0001:00031890       _parser_parse_script       00431b50 f   js-parser.obj
 0001:000323f7       _parser_raise_error        004326b7 f   js-parser.obj
 0001:00032528       _re_append_char            004327e8 f   re-bytecode.obj
 0001:0003253e       _re_append_jump_offset     004327fe f   re-bytecode.obj
 0001:00032554       _re_append_opcode          00432814 f   re-bytecode.obj
 0001:0003256a       _re_append_u32             0043282a f   re-bytecode.obj
 0001:000325d2       _re_bytecode_list_insert   00432892 f   re-bytecode.obj
 0001:00032680       _re_get_bytecode_length    00432940 f   re-bytecode.obj
 0001:0003268d       _re_get_char               0043294d f   re-bytecode.obj
 0001:0003269f       _re_get_opcode             0043295f f   re-bytecode.obj
 0001:000326b1       _re_get_value              00432971 f   re-bytecode.obj
 0001:000326c2       _re_insert_opcode          00432982 f   re-bytecode.obj
 0001:000326db       _re_insert_u32             0043299b f   re-bytecode.obj
 0001:000327d7       _re_cache_gc_run           00432a97 f   re-compiler.obj
 0001:00032803       _re_compile_bytecode       00432ac3 f   re-compiler.obj
 0001:000331b5       _re_parse_char_class       00433475 f   re-parser.obj
 0001:00033778       _re_parse_next_token       00433a38 f   re-parser.obj
 0001:00033c27       _do_number_arithmetic      00433ee7 f   opcodes-ecma-arithmetics.obj
 0001:00033e24       _opfunc_addition           004340e4 f   opcodes-ecma-arithmetics.obj
 0001:000340ff       _opfunc_unary_minus        004343bf f   opcodes-ecma-arithmetics.obj
 0001:000341dd       _opfunc_unary_plus         0043449d f   opcodes-ecma-arithmetics.obj
 0001:000342b3       _do_number_bitwise_logic   00434573 f   opcodes-ecma-bitwise.obj
 0001:0003461f       _opfunc_equal_value        004348df f   opcodes-ecma-equality.obj
 0001:0003467b       _opfunc_not_equal_value    0043493b f   opcodes-ecma-equality.obj
 0001:000346ec       _opfunc_greater_or_equal_than 004349ac f   opcodes-ecma-relational.obj
 0001:0003476a       _opfunc_greater_than       00434a2a f   opcodes-ecma-relational.obj
 0001:000347e0       _opfunc_in                 00434aa0 f   opcodes-ecma-relational.obj
 0001:0003486e       _opfunc_instanceof         00434b2e f   opcodes-ecma-relational.obj
 0001:000348e6       _opfunc_less_or_equal_than 00434ba6 f   opcodes-ecma-relational.obj
 0001:0003495e       _opfunc_less_than          00434c1e f   opcodes-ecma-relational.obj
 0001:000349d4       _opfunc_for_in             00434c94 f   opcodes.obj
 0001:00034aae       _opfunc_logical_not        00434d6e f   opcodes.obj
 0001:00034ac8       _opfunc_set_accessor       00434d88 f   opcodes.obj
 0001:00034ba4       _opfunc_typeof             00434e64 f   opcodes.obj
 0001:00034c47       _vm_op_delete_prop         00434f07 f   opcodes.obj
 0001:00034de4       _vm_op_delete_var          004350a4 f   opcodes.obj
 0001:00034e49       _vm_var_decl               00435109 f   opcodes.obj
 0001:00034f1f       _vm_stack_context_abort    004351df f   vm-stack.obj
 0001:0003500b       _vm_stack_find_finally     004352cb f   vm-stack.obj
 0001:00035759       _vm_is_direct_eval_form_call 00435a19 f   vm.obj
 0001:00035761       _vm_is_strict_mode         00435a21 f   vm.obj
 0001:00037872       _vm_run                    00437b32 f   vm.obj
 0001:00037942       _vm_run_eval               00437c02 f   vm.obj
 0001:000379e0       __ftol2_sse                00437ca0 f   MSVCRT:ftol2.obj
 0001:000379e9       __ftol2_pentium4           00437ca9 f   MSVCRT:ftol2.obj
 0001:000379fc       __ftol2_sse_excpt          00437cbc f   MSVCRT:ftol2.obj
 0001:00037a20       __ftol2                    00437ce0 f   MSVCRT:ftol2.obj
 0001:00037aa0       __allshl                   00437d60 f   MSVCRT:llshl.obj
 0001:00037ac0       __aulldvrm                 00437d80 f   MSVCRT:ulldvrm.obj
 0002:00000000       ??_C@_0BC@IKHGKNGB@ecma_alloc_object@ 00437e40     ecma-alloc.obj
 0002:00000018       ??_C@_0EM@ONDINLI@d?3?2hellox?2personal?2hellox_os?2je@ 00437e58     ecma-alloc.obj
 0002:00000064       ??_C@_0BB@NOMKPHHH@object_p?5?$CB?$DN?5NULL@ 00437ea4     ecma-alloc.obj
 0002:00000078       ??_C@_0BC@EPPCKLGL@ecma_alloc_number@ 00437eb8     ecma-alloc.obj
 0002:0000008c       ??_C@_0BB@PDKGCFDI@number_p?5?$CB?$DN?5NULL@ 00437ecc     ecma-alloc.obj
 0002:000000a0       ??_C@_0BN@BFBOCJJ@ecma_alloc_collection_header@ 00437ee0     ecma-alloc.obj
 0002:000000c0       ??_C@_0BM@BIEHPLGF@collection_header_p?5?$CB?$DN?5NULL@ 00437f00     ecma-alloc.obj
 0002:000000dc       ??_C@_0BM@OKKANDLD@ecma_alloc_collection_chunk@ 00437f1c     ecma-alloc.obj
 0002:000000f8       ??_C@_0BL@GFAOPNEF@collection_chunk_p?5?$CB?$DN?5NULL@ 00437f38     ecma-alloc.obj
 0002:00000114       ??_C@_0BC@IMPGALGH@ecma_alloc_string@ 00437f54     ecma-alloc.obj
 0002:00000128       ??_C@_0BB@HEIBMMLG@string_p?5?$CB?$DN?5NULL@ 00437f68     ecma-alloc.obj
 0002:0000013c       ??_C@_0BI@DCFJKDJC@ecma_gc_get_object_next@ 00437f7c     ecma-gc.obj
 0002:00000158       ??_C@_0EJ@LGKFBFEK@d?3?2hellox?2personal?2hellox_os?2je@ 00437f98     ecma-gc.obj
 0002:000001a4       ??_C@_0BI@EPNBIL@ecma_gc_set_object_next@ 00437fe4     ecma-gc.obj
 0002:000001bc       ??_C@_0BK@HCLBCKLK@ecma_gc_is_object_visited@ 00437ffc     ecma-gc.obj
 0002:000001d8       ??_C@_0BL@KCLJCPIH@ecma_gc_set_object_visited@ 00438018     ecma-gc.obj
 0002:000001f4       ??_C@_0BC@EMGCMHGH@ecma_init_gc_info@ 00438034     ecma-gc.obj
 0002:00000208       ??_C@_0EO@PMHJNKIP@JERRY_CONTEXT?5?$CIecma_gc_new_obje@ 00438048     ecma-gc.obj
 0002:00000258       ??_C@_0DA@FLGJGANF@object_p?9?$DOtype_flags_refs?5?$DM?5ECM@ 00438098     ecma-gc.obj
 0002:00000288       ??_C@_0BC@KLMFBOKI@ecma_deref_object@ 004380c8     ecma-gc.obj
 0002:0000029c       ??_C@_0DB@KBIGEBNO@object_p?9?$DOtype_flags_refs?5?$DO?$DN?5EC@ 004380dc     ecma-gc.obj
 0002:000002d0       ??_C@_0BG@NGAOGKNN@ecma_gc_mark_property@ 00438110     ecma-gc.obj
 0002:000002e8       ??_C@_0LB@HNIKFMNL@ECMA_PROPERTY_GET_INTERNAL_PROP@ 00438128     ecma-gc.obj
 0002:0000039c       ??_C@_0N@BKPJDMCO@ecma_gc_mark@ 004381dc     ecma-gc.obj
 0002:000003ac       ??_C@_0CF@LLGILIBN@ecma_gc_is_object_visited?5?$CIobje@ 004381ec     ecma-gc.obj
 0002:000003d4       ??_C@_0BA@GDEHKCIK@args_length?5?$DO?50@ 00438214     ecma-gc.obj
 0002:000003e8       ??_C@_0GE@IBLOLMJJ@prop_iter_p?9?$DOtypes?$FL0?$FN?5?$DN?$DN?5ECMA_P@ 00438228     ecma-gc.obj
 0002:0000044c       ??_C@_0O@OCNPMOOA@ecma_gc_sweep@ 0043828c     ecma-gc.obj
 0002:00000460       ??_C@_0GN@HENCFDH@object_p?5?$CB?$DN?5NULL?5?$CG?$CG?5?$CBecma_gc_is@ 004382a0     ecma-gc.obj
 0002:000004d0       ??_C@_0N@JCKCCIM@is_retrieved@ 00438310     ecma-gc.obj
 0002:000004e0       ??_C@_0CN@JKBNEPCE@ECMA_PROPERTY_IS_PROPERTY_PAIR?5@ 00438320     ecma-gc.obj
 0002:00000510       ??_C@_0GL@OAPMCIMK@prop_iter_p?9?$DOtypes?$FL0?$FN?5?$CB?$DN?5ECMA_P@ 00438350     ecma-gc.obj
 0002:00000580       ??_C@_0GL@MBLFBKKG@prop_iter_p?9?$DOtypes?$FL0?$FN?5?$DN?$DN?5ECMA_P@ 004383c0     ecma-gc.obj
 0002:000005ec       ??_C@_0CL@PEMGPMJF@JERRY_CONTEXT?5?$CIecma_gc_objects_@ 0043842c     ecma-gc.obj
 0002:00000618       ??_C@_0M@MKKPKPM@ecma_gc_run@ 00438458     ecma-gc.obj
 0002:00000628       ??_C@_0EE@IAKKOODA@JERRY_CONTEXT?5?$CIecma_gc_objects_@ 00438468     ecma-gc.obj
 0002:0000066c       ??_C@_0CI@GFCOJPHF@?$CBecma_gc_is_object_visited?5?$CIobj@ 004384ac     ecma-gc.obj
 0002:00000694       ??_C@_0DD@HHLNLEHP@ecma_gc_get_object_next?5?$CIobj_pr@ 004384d4     ecma-gc.obj
 0002:000006c8       ??_C@_0CH@JBMLMFBO@ecma_gc_is_object_visited?5?$CIobj_@ 00438508     ecma-gc.obj
 0002:000006f0       ??_C@_0BI@DOLKBKAG@ecma_free_unused_memory@ 00438530     ecma-gc.obj
 0002:00000708       ??_C@_0DC@LMAGLLEC@severity?5?$DN?$DN?5JMEM_FREE_UNUSED_ME@ 00438548     ecma-gc.obj
 0002:0000073c       ??_C@_0BL@FAEINABE@ecma_utf8_string_to_number@ 0043857c     ecma-helpers-conversion.obj
 0002:00000758       ??_C@_0FJ@EBJPJHFO@d?3?2hellox?2personal?2hellox_os?2je@ 00438598     ecma-helpers-conversion.obj
 0002:000007b4       ??_C@_0BF@JBHEMMID@begin_p?5?$DN?$DN?5end_p?5?$CL?51@ 004385f4     ecma-helpers-conversion.obj
 0002:000007cc       ??_C@_0CC@CMIIIGNE@fraction_uint128?$FL0?$FN?5?$DM?$DN?5UINT32_M@ 0043860c     ecma-helpers-conversion.obj
 0002:000007f0       ??_C@_0CC@KLCOENJH@fraction_uint128?$FL1?$FN?5?$DM?$DN?5UINT32_M@ 00438630     ecma-helpers-conversion.obj
 0002:00000814       ??_C@_0CC@PILEBGBD@fraction_uint128?$FL2?$FN?5?$DM?$DN?5UINT32_M@ 00438654     ecma-helpers-conversion.obj
 0002:00000838       ??_C@_0CC@HPBCNNFA@fraction_uint128?$FL3?$FN?5?$DM?$DN?5UINT32_M@ 00438678     ecma-helpers-conversion.obj
 0002:00000860       ??_C@_0FE@PDAMKHLI@ECMA_NUMBER_CONVERSION_128BIT_I@ 004386a0     ecma-helpers-conversion.obj
 0002:000008b8       ??_C@_0EC@MOBHKNHP@?$CBECMA_NUMBER_CONVERSION_128BIT_@ 004386f8     ecma-helpers-conversion.obj
 0002:000008fc       ??_C@_06EHOKBAHN@e?5?$DO?$DN?50@ 0043873c     ecma-helpers-conversion.obj
 0002:00000904       ??_C@_0CG@JCPDIJDM@fraction_uint128_tmp?$FL2?$FN?5?$DM?$DN?5UINT@ 00438744     ecma-helpers-conversion.obj
 0002:0000092c       ??_C@_0CG@BFFFECHP@fraction_uint128_tmp?$FL3?$FN?5?$DM?$DN?5UINT@ 0043876c     ecma-helpers-conversion.obj
 0002:00000954       ??_C@_06KFFKBACO@e?5?$CB?$DN?50@ 00438794     ecma-helpers-conversion.obj
 0002:00000960       ??_C@_0FI@MFCDCHFP@ECMA_NUMBER_CONVERSION_128BIT_I@ 004387a0     ecma-helpers-conversion.obj
 0002:000009b8       ??_C@_0BL@FMHECEAD@ecma_uint32_to_utf8_string@ 004387f8     ecma-helpers-conversion.obj
 0002:000009d4       ??_C@_0BG@IIMHPIE@buf_p?5?$DO?$DN?5out_buffer_p@ 00438814     ecma-helpers-conversion.obj
 0002:000009ec       ??_C@_0BG@BNJCLOFB@ecma_number_to_uint32@ 0043882c     ecma-helpers-conversion.obj
 0002:00000a04       ??_C@_0CG@OFIMCP@num_in_uint32_range?5?$DM?5uint64_2_@ 00438844     ecma-helpers-conversion.obj
 0002:00000a2c       ??_C@_0CE@GHFDHKOH@ret?5?$DN?$DN?5uint64_2_pow_32?5?9?5uint32@ 0043886c     ecma-helpers-conversion.obj
 0002:00000a50       ??_C@_0BC@DJBPLNPI@ret?5?$DN?$DN?5uint32_num@ 00438890     ecma-helpers-conversion.obj
 0002:00000a64       ??_C@_0BF@HICHGHJP@ecma_number_to_int32@ 004388a4     ecma-helpers-conversion.obj
 0002:00000a7c       ??_C@_0CC@IHLHOLJG@ret?5?$DN?$DN?5int64_num?5?9?5int64_2_pow_@ 004388bc     ecma-helpers-conversion.obj
 0002:00000aa0       ??_C@_0BB@OOEJKKFC@ret?5?$DN?$DN?5int64_num@ 004388e0     ecma-helpers-conversion.obj
 0002:00000ab4       ??_C@_0BH@MDEOCECD@ecma_number_to_decimal@ 004388f4     ecma-helpers-conversion.obj
 0002:00000acc       ??_C@_0BK@KCLNKHIB@?$CBecma_number_is_nan?5?$CInum?$CJ@ 0043890c     ecma-helpers-conversion.obj
 0002:00000ae8       ??_C@_0BL@GMDGLMAE@?$CBecma_number_is_zero?5?$CInum?$CJ@ 00438928     ecma-helpers-conversion.obj
 0002:00000b04       ??_C@_0BP@ELHJBID@?$CBecma_number_is_infinity?5?$CInum?$CJ@ 00438944     ecma-helpers-conversion.obj
 0002:00000b24       ??_C@_0BP@ECKPJKKC@?$CBecma_number_is_negative?5?$CInum?$CJ@ 00438964     ecma-helpers-conversion.obj
 0002:00000b44       ??_C@_0BL@OPHEHCPJ@ecma_number_to_utf8_string@ 00438984     ecma-helpers-conversion.obj
 0002:00000b60       ??_C@_0BB@KGHDGHOG@1?5?$DM?$DN?5buffer_size@ 004389a0     ecma-helpers-conversion.obj
 0002:00000b74       ??_C@_0CA@CDMCIHFA@dst_p?5?$DM?$DN?5buffer_p?5?$CL?5buffer_size@ 004389b4     ecma-helpers-conversion.obj
 0002:00000b94       ??_C@_0DJ@MJNBIBHL@ecma_number_get_next?5?$CIecma_numb@ 004389d4     ecma-helpers-conversion.obj
 0002:00000bd0       __real@0000000000000000    00438a10     ecma-helpers-conversion.obj
 0002:00000bd8       __real@4030000000000000    00438a18     ecma-helpers-conversion.obj
 0002:00000be0       __real@41f0000000000000    00438a20     ecma-helpers-conversion.obj
 0002:00000be8       __real@8000000000000000    00438a28     ecma-helpers-conversion.obj
 0002:00000bf0       __real@3fe0000000000000    00438a30     ecma-helpers-errol.obj
 0002:00000bf8       __real@3ff0000000000000    00438a38     ecma-helpers-errol.obj
 0002:00000c00       __real@400000000d6bf94d    00438a40     ecma-helpers-errol.obj
 0002:00000c08       __real@4020000000000000    00438a48     ecma-helpers-errol.obj
 0002:00000c10       __real@4024000000000000    00438a50     ecma-helpers-errol.obj
 0002:00000c18       __real@7ff0000000000000    00438a58     ecma-helpers-errol.obj
 0002:00000c20       __real@fff0000000000000    00438a60     ecma-helpers-errol.obj
 0002:00000c28       ??_C@_0GA@OBBFOBEJ@d?3?2hellox?2personal?2hellox_os?2je@ 00438a68     ecma-helpers-external-pointers.obj
 0002:00000c88       ??_C@_0FJ@PAEMIBID@id?5?$DN?$DN?5ECMA_INTERNAL_PROPERTY_NA@ 00438ac8     ecma-helpers-external-pointers.obj
 0002:00000ce4       ??_C@_0CA@IMJABMAF@ecma_get_external_pointer_value@ 00438b24     ecma-helpers-external-pointers.obj
 0002:00000d04       ??_C@_0CH@KLDPELAO@ecma_free_external_pointer_in_p@ 00438b44     ecma-helpers-external-pointers.obj
 0002:00000d30       ??_C@_0LH@JEAECGNM@ECMA_PROPERTY_GET_INTERNAL_PROP@ 00438b70     ecma-helpers-external-pointers.obj
 0002:00000de8       _ecma_number_exponent_bias 00438c28     ecma-helpers-number.obj
 0002:00000dec       ??_C@_0BB@JAKEDCEH@ecma_number_pack@ 00438c2c     ecma-helpers-number.obj
 0002:00000e00       ??_C@_0FF@KJCCIJFG@d?3?2hellox?2personal?2hellox_os?2je@ 00438c40     ecma-helpers-number.obj
 0002:00000e58       ??_C@_0EA@MJCFNIOK@?$CIbiased_exp?5?$CG?5?$HO?$CI?$CI1u?5?$DM?$DM?5ECMA_NUM@ 00438c98     ecma-helpers-number.obj
 0002:00000e98       ??_C@_0DO@INAAOJKE@?$CIfraction?5?$CG?5?$HO?$CI?$CI1ull?5?$DM?$DM?5ECMA_NUM@ 00438cd8     ecma-helpers-number.obj
 0002:00000ed8       ??_C@_0BD@CKNDCAOA@ecma_number_is_nan@ 00438d18     ecma-helpers-number.obj
 0002:00000eec       ??_C@_0BJ@JFFCMCPK@is_nan?5?$DN?$DN?5is_nan_ieee754@ 00438d2c     ecma-helpers-number.obj
 0002:00000f08       ??_C@_0BI@LILCMNPA@ecma_number_is_negative@ 00438d48     ecma-helpers-number.obj
 0002:00000f20       ??_C@_0BE@ENHLLKDB@ecma_number_is_zero@ 00438d60     ecma-helpers-number.obj
 0002:00000f34       ??_C@_0BL@FLGLGGHI@is_zero?5?$DN?$DN?5is_zero_ieee754@ 00438d74     ecma-helpers-number.obj
 0002:00000f50       ??_C@_0BI@EDODDKG@ecma_number_is_infinity@ 00438d90     ecma-helpers-number.obj
 0002:00000f68       ??_C@_0CG@JOFGHKKO@ecma_number_get_fraction_and_ex@ 00438da8     ecma-helpers-number.obj
 0002:00000f90       ??_C@_0O@DJFFJPGJ@fraction?5?$CB?$DN?50@ 00438dd0     ecma-helpers-number.obj
 0002:00000fa0       ??_C@_0EI@BNHEPMDD@biased_exp?5?$DO?50?5?$CG?$CG?5biased_exp?5?$DM?5@ 00438de0     ecma-helpers-number.obj
 0002:00000fe8       ??_C@_0DM@GCMGFHLN@ecma_number_make_normal_positiv@ 00438e28     ecma-helpers-number.obj
 0002:00001028       ??_C@_0EE@LOECMLLK@?$CIfraction?5?$CG?5?$HO?$CI?$CI1ull?5?$DM?$DM?5?$CIECMA_NU@ 00438e68     ecma-helpers-number.obj
 0002:0000106c       ??_C@_0DH@OKEKICCI@?$CIfraction?5?$CG?5?$CI1ull?5?$DM?$DM?5ECMA_NUMBE@ 00438eac     ecma-helpers-number.obj
 0002:000010a4       ??_C@_0DB@LIJNMGCB@ecma_number_make_from_sign_mant@ 00438ee4     ecma-helpers-number.obj
 0002:000010d8       ??_C@_0IC@IKENHCKM@?$CI?$CImantissa?5?$CG?5?$HO?$CI?$CI1ull?5?$DM?$DM?5?$CIECMA_N@ 00438f18     ecma-helpers-number.obj
 0002:0000115c       ??_C@_0DO@JBCKDEOE@?$CImantissa?5?$CG?5?$HO?$CI?$CI1ull?5?$DM?$DM?5ECMA_NUM@ 00438f9c     ecma-helpers-number.obj
 0002:0000119c       ??_C@_0BF@GFKMCCAJ@ecma_number_get_prev@ 00438fdc     ecma-helpers-number.obj
 0002:000011b4       ??_C@_0BF@FBHKDGGN@ecma_number_get_next@ 00438ff4     ecma-helpers-number.obj
 0002:000011cc       ??_C@_0DA@DDCLDNDG@fraction?5?$CG?5?$CI1ull?5?$DM?$DM?5ECMA_NUMBER@ 0043900c     ecma-helpers-number.obj
 0002:000011fc       ??_C@_0BD@KNAKEKJ@ecma_number_negate@ 0043903c     ecma-helpers-number.obj
 0002:00001210       ??_C@_0GF@FIMLCBNK@negated?5?$DN?$DN?5negated_ieee754?5?$HM?$HM?5?$CI@ 00439050     ecma-helpers-number.obj
 0002:00001278       ??_C@_0BC@GJJACNIJ@ecma_number_trunc@ 004390b8     ecma-helpers-number.obj
 0002:0000128c       ??_C@_0BL@EOIEJCPI@ecma_number_calc_remainder@ 004390cc     ecma-helpers-number.obj
 0002:000012a8       ??_C@_0GJ@CAEIADL@?$CBecma_number_is_nan?5?$CIleft_num?$CJ?5@ 004390e8     ecma-helpers-number.obj
 0002:00001318       ??_C@_0GM@KBPJOLK@?$CBecma_number_is_nan?5?$CIright_num?$CJ@ 00439158     ecma-helpers-number.obj
 0002:00001384       ??_C@_0BL@KDDIMHD@ecma_string_to_array_index@ 004391c4     ecma-helpers-string.obj
 0002:000013a0       ??_C@_0FF@NDEBKGLG@d?3?2hellox?2personal?2hellox_os?2je@ 004391e0     ecma-helpers-string.obj
 0002:000013f8       ??_C@_0EG@HEHJLGPC@string_size?5?$DO?50?5?$CG?$CG?5?$CKstring_p?5?$DO?$DN@ 00439238     ecma-helpers-string.obj
 0002:00001440       ??_C@_0BP@DNHPEIHN@ecma_new_ecma_string_from_utf8@ 00439280     ecma-helpers-string.obj
 0002:00001460       ??_C@_0CF@HLIGDENI@string_p?5?$CB?$DN?5NULL?5?$HM?$HM?5string_size@ 004392a0     ecma-helpers-string.obj
 0002:00001488       ??_C@_0DC@DKNEOCMN@lit_is_cesu8_string_valid?5?$CIstri@ 004392c8     ecma-helpers-string.obj
 0002:000014bc       ??_C@_0BA@DLKLMPDB@string_size?5?$DO?50@ 004392fc     ecma-helpers-string.obj
 0002:000014cc       ??_C@_0BF@JMGHJLHG@character?5?$DO?$DN?50x10000@ 0043930c     ecma-helpers-string.obj
 0002:000014e4       ??_C@_0CB@MMGGCEJP@ecma_new_ecma_string_from_numbe@ 00439324     ecma-helpers-string.obj
 0002:00001508       ??_C@_0N@BODNKAMC@str_size?5?$DO?50@ 00439348     ecma-helpers-string.obj
 0002:00001518       ??_C@_0JP@ODHPCHEF@lit_is_utf8_string_magic?5?$CIstr_b@ 00439358     ecma-helpers-string.obj
 0002:000015b8       ??_C@_0CK@BKDOLNJD@ecma_new_ecma_string_from_magic@ 004393f8     ecma-helpers-string.obj
 0002:000015e4       ??_C@_0BN@HJMLKLAJ@id?5?$DM?5LIT_MAGIC_STRING__COUNT@ 00439424     ecma-helpers-string.obj
 0002:00001604       ??_C@_0CN@GIHEDAON@ecma_new_ecma_string_from_magic@ 00439444     ecma-helpers-string.obj
 0002:00001634       ??_C@_0CG@GDMHNLHL@id?5?$DM?5lit_get_magic_string_ex_co@ 00439474     ecma-helpers-string.obj
 0002:0000165c       ??_C@_0BJ@NLCNLBMD@ecma_concat_ecma_strings@ 0043949c     ecma-helpers-string.obj
 0002:00001678       ??_C@_0CH@OFHNIPOB@string1_p?5?$CB?$DN?5NULL?5?$CG?$CG?5string2_p?5@ 004394b8     ecma-helpers-string.obj
 0002:000016a0       ??_C@_0EP@DEMJCHLL@ECMA_STRING_GET_CONTAINER?5?$CIstri@ 004394e0     ecma-helpers-string.obj
 0002:000016f0       ??_C@_0EP@LEJDILAO@ECMA_STRING_GET_CONTAINER?5?$CIstri@ 00439530     ecma-helpers-string.obj
 0002:00001740       ??_C@_0BG@KBMFGHGD@utf8_string1_size?5?$DO?50@ 00439580     ecma-helpers-string.obj
 0002:00001758       ??_C@_0BG@DICHABGC@utf8_string2_size?5?$DO?50@ 00439598     ecma-helpers-string.obj
 0002:00001770       ??_C@_0CJ@JADOEEFL@utf8_string1_length?5?$DM?$DN?5utf8_str@ 004395b0     ecma-helpers-string.obj
 0002:0000179c       ??_C@_0CJ@OFHHHLNO@utf8_string2_length?5?$DM?$DN?5utf8_str@ 004395dc     ecma-helpers-string.obj
 0002:000017c8       ??_C@_0BF@BFHBNOJ@ecma_ref_ecma_string@ 00439608     ecma-helpers-string.obj
 0002:000017e0       ??_C@_0DE@LCGKOENH@string_p?9?$DOrefs_and_container?5?$DO?$DN@ 00439620     ecma-helpers-string.obj
 0002:00001814       ??_C@_0BH@JEDAJPKB@ecma_deref_ecma_string@ 00439654     ecma-helpers-string.obj
 0002:00001830       ??_C@_0FC@PJCFBKOA@?$CBecma_string_to_array_index?5?$CIch@ 00439670     ecma-helpers-string.obj
 0002:00001884       ??_C@_0CP@KBGHDDG@string_p?9?$DOu?4long_utf8_string_si@ 004396c4     ecma-helpers-string.obj
 0002:000018b4       ??_C@_0BG@CBOCDCJP@ecma_string_to_number@ 004396f4     ecma-helpers-string.obj
 0002:000018cc       ??_C@_0O@FABAPJHP@str_p?5?$CB?$DN?5NULL@ 0043970c     ecma-helpers-string.obj
 0002:000018dc       ??_C@_0BF@JFNKDHCK@str_buffer_p?5?$CB?$DN?5NULL@ 0043971c     ecma-helpers-string.obj
 0002:000018f4       ??_C@_0CB@IGJPOLBK@ecma_string_copy_to_cesu8_buffe@ 00439734     ecma-helpers-string.obj
 0002:00001918       ??_C@_0BG@CGPFJNCF@string_desc_p?5?$CB?$DN?5NULL@ 00439758     ecma-helpers-string.obj
 0002:00001930       ??_C@_0DJ@BIDPADEO@string_desc_p?9?$DOrefs_and_contain@ 00439770     ecma-helpers-string.obj
 0002:0000196c       ??_C@_0CF@LECKGNOK@buffer_p?5?$CB?$DN?5NULL?5?$HM?$HM?5buffer_size@ 004397ac     ecma-helpers-string.obj
 0002:00001994       ??_C@_0DE@PMICMKGB@ecma_string_get_size?5?$CIstring_de@ 004397d4     ecma-helpers-string.obj
 0002:000019c8       ??_C@_0FD@GMLMFLLD@ECMA_STRING_GET_CONTAINER?5?$CIstri@ 00439808     ecma-helpers-string.obj
 0002:00001a1c       ??_C@_0BE@FHBPJGEE@size?5?$DM?$DN?5buffer_size@ 0043985c     ecma-helpers-string.obj
 0002:00001a30       ??_C@_0BK@JDBPHGFC@ecma_string_to_utf8_bytes@ 00439870     ecma-helpers-string.obj
 0002:00001a4c       ??_C@_0BE@OOOEENKM@size?5?$DN?$DN?5buffer_size@ 0043988c     ecma-helpers-string.obj
 0002:00001a88       ??_C@_0BG@MPBBALOD@ecma_string_raw_chars@ 004398c8     ecma-helpers-string.obj
 0002:00001aa0       ??_C@_0CK@FNODBCKG@ecma_string_get_length?5?$CIstring_@ 004398e0     ecma-helpers-string.obj
 0002:00001acc       ??_C@_0CG@DMDPLJGK@ECMA_STRING_IS_ASCII?5?$CIresult_p?0@ 0043990c     ecma-helpers-string.obj
 0002:00001af8       ??_C@_0EO@MBEIEHCF@ECMA_STRING_GET_CONTAINER?5?$CIstri@ 00439938     ecma-helpers-string.obj
 0002:00001b48       ??_C@_0BP@KAKFPLPG@ecma_string_from_property_name@ 00439988     ecma-helpers-string.obj
 0002:00001b68       ??_C@_0EJ@CIBNHBL@ECMA_PROPERTY_GET_NAME_TYPE?5?$CIpr@ 004399a8     ecma-helpers-string.obj
 0002:00001bb4       ??_C@_0CF@ELIEIJHG@ecma_string_compare_to_property@ 004399f4     ecma-helpers-string.obj
 0002:00001bdc       ??_C@_0DF@PDNPKAEJ@property_name_type?5?$DN?$DN?5ECMA_PROP@ 00439a1c     ecma-helpers-string.obj
 0002:00001c14       ??_C@_0CD@KHIGBMCC@ecma_compare_ecma_strings_longp@ 00439a54     ecma-helpers-string.obj
 0002:00001c38       ??_C@_0EP@FOPLFAAH@ECMA_STRING_GET_CONTAINER?5?$CIstri@ 00439a78     ecma-helpers-string.obj
 0002:00001c88       ??_C@_0FF@KHEONAKH@ECMA_STRING_GET_CONTAINER?5?$CIstri@ 00439ac8     ecma-helpers-string.obj
 0002:00001ce0       ??_C@_0BK@GFDNLDCE@ecma_compare_ecma_strings@ 00439b20     ecma-helpers-string.obj
 0002:00001cfc       ??_C@_0CF@BKJCDJGB@ecma_compare_ecma_strings_relat@ 00439b3c     ecma-helpers-string.obj
 0002:00001d24       ??_C@_0BH@NBCBPCJO@ecma_string_get_length@ 00439b64     ecma-helpers-string.obj
 0002:00001d40       ??_C@_0II@ODKFDJKH@ECMA_STRING_IS_ASCII?5?$CIlit_get_m@ 00439b80     ecma-helpers-string.obj
 0002:00001dc8       ??_C@_0BF@PMMLHBAJ@ecma_string_get_size@ 00439c08     ecma-helpers-string.obj
 0002:00001de0       ??_C@_0BM@HKHLDLLL@ecma_string_get_char_at_pos@ 00439c20     ecma-helpers-string.obj
 0002:00001dfc       ??_C@_0CK@PGKPLGM@index?5?$DM?5ecma_string_get_length?5@ 00439c3c     ecma-helpers-string.obj
 0002:00001e28       ??_C@_0EN@PAMDGPNF@ECMA_STRING_GET_CONTAINER?5?$CIstri@ 00439c68     ecma-helpers-string.obj
 0002:00001e78       ??_C@_08LJAEONMP@is_ascii@ 00439cb8     ecma-helpers-string.obj
 0002:00001e84       ??_C@_0BH@IINEHCIM@utf8_str_p___size?5?$CB?$DN?50@ 00439cc4     ecma-helpers-string.obj
 0002:00001e9c       ??_C@_0BH@CNMEAIAP@utf8_str_p___size?5?$DN?$DN?50@ 00439cdc     ecma-helpers-string.obj
 0002:00001eb4       ??_C@_0BD@HHLIFDHM@ecma_string_substr@ 00439cf4     ecma-helpers-string.obj
 0002:00001ec8       ??_C@_0BL@ILGCHDMB@start_pos?5?$DM?$DN?5string_length@ 00439d08     ecma-helpers-string.obj
 0002:00001ee4       ??_C@_0BJ@HOBLFPIL@end_pos?5?$DM?$DN?5string_length@ 00439d24     ecma-helpers-string.obj
 0002:00001f00       ??_C@_0BB@BDAAJGPD@ecma_string_trim@ 00439d40     ecma-helpers-string.obj
 0002:00001f14       ??_C@_0BD@FDOMDLBA@utf8_str_p?5?$CB?$DN?5NULL@ 00439d54     ecma-helpers-string.obj
 0002:00001f28       ??_C@_0BL@JNJJIGPE@ecma_pointer_to_ecma_value@ 00439d68     ecma-helpers-value.obj
 0002:00001f48       ??_C@_0FE@EPLONJOG@d?3?2hellox?2personal?2hellox_os?2je@ 00439d88     ecma-helpers-value.obj
 0002:00001f9c       ??_C@_0CH@MPLKCOKP@?$CIuint_ptr?5?$CG?5ECMA_VALUE_FULL_MAS@ 00439ddc     ecma-helpers-value.obj
 0002:00001fc4       ??_C@_0CG@MDLIDCPG@ecma_check_value_type_is_spec_d@ 00439e04     ecma-helpers-value.obj
 0002:00001ff0       ??_C@_0LP@LBAKHLHE@ecma_is_value_undefined?5?$CIvalue?$CJ@ 00439e30     ecma-helpers-value.obj
 0002:000020b0       ??_C@_0BI@HPNDGJOA@ecma_make_integer_value@ 00439ef0     ecma-helpers-value.obj
 0002:000020c8       ??_C@_0CH@OKGAAONI@ECMA_IS_INTEGER_NUMBER?5?$CIinteger@ 00439f08     ecma-helpers-value.obj
 0002:000020f0       ??_C@_0BH@HJCIFFC@ecma_make_string_value@ 00439f30     ecma-helpers-value.obj
 0002:00002108       ??_C@_0BG@EDECEECB@ecma_string_p?5?$CB?$DN?5NULL@ 00439f48     ecma-helpers-value.obj
 0002:00002120       ??_C@_0BH@MHHIMGPA@ecma_make_object_value@ 00439f60     ecma-helpers-value.obj
 0002:00002138       ??_C@_0BG@FDLHKHEI@ecma_make_error_value@ 00439f78     ecma-helpers-value.obj
 0002:00002150       ??_C@_0BN@MCBDHJKB@?$CBECMA_IS_VALUE_ERROR?5?$CIvalue?$CJ@ 00439f90     ecma-helpers-value.obj
 0002:00002170       ??_C@_0BM@ONLLBPAG@ecma_get_integer_from_value@ 00439fb0     ecma-helpers-value.obj
 0002:0000218c       ??_C@_0CF@FHMFMCCG@ecma_is_value_integer_number?5?$CIv@ 00439fcc     ecma-helpers-value.obj
 0002:000021b4       ??_C@_0BK@LIPOEBDP@ecma_get_float_from_value@ 00439ff4     ecma-helpers-value.obj
 0002:000021d0       ??_C@_0DF@IDCFJKME@ecma_get_value_type_field?5?$CIvalu@ 0043a010     ecma-helpers-value.obj
 0002:00002208       ??_C@_0BL@HNOHDDMN@ecma_get_string_from_value@ 0043a048     ecma-helpers-value.obj
 0002:00002224       ??_C@_0DG@LFKEJEBE@ecma_get_value_type_field?5?$CIvalu@ 0043a064     ecma-helpers-value.obj
 0002:0000225c       ??_C@_0BL@JBCOIKNA@ecma_get_object_from_value@ 0043a09c     ecma-helpers-value.obj
 0002:00002278       ??_C@_0DG@LDCEDCBC@ecma_get_value_type_field?5?$CIvalu@ 0043a0b8     ecma-helpers-value.obj
 0002:000022b0       ??_C@_0BK@CLELFLNB@ecma_invert_boolean_value@ 0043a0f0     ecma-helpers-value.obj
 0002:000022cc       ??_C@_0BO@LFJKODHP@ecma_is_value_boolean?5?$CIvalue?$CJ@ 0043a10c     ecma-helpers-value.obj
 0002:000022ec       ??_C@_0CA@HCPHKMCB@ecma_get_value_from_error_value@ 0043a12c     ecma-helpers-value.obj
 0002:0000230c       ??_C@_0BM@PMNAAOAB@ECMA_IS_VALUE_ERROR?5?$CIvalue?$CJ@ 0043a14c     ecma-helpers-value.obj
 0002:00002328       ??_C@_0BA@JICAEAEC@ecma_copy_value@ 0043a168     ecma-helpers-value.obj
 0002:00002338       ??_C@_0BJ@KGGPGOG@ecma_update_float_number@ 0043a178     ecma-helpers-value.obj
 0002:00002354       ??_C@_0CJ@NCAAPELE@ecma_is_value_float_number?5?$CIflo@ 0043a194     ecma-helpers-value.obj
 0002:00002380       ??_C@_0BL@ODCHMFDG@ecma_new_values_collection@ 0043a1c0     ecma-helpers-values-collection.obj
 0002:000023a0       ??_C@_0GA@BCFGMPG@d?3?2hellox?2personal?2hellox_os?2je@ 0043a1e0     ecma-helpers-values-collection.obj
 0002:00002400       ??_C@_0CM@EKDPKFIA@values_buffer?5?$CB?$DN?5NULL?5?$HM?$HM?5values@ 0043a240     ecma-helpers-values-collection.obj
 0002:0000242c       ??_C@_0DA@JHKAKEOJ@cur_value_buf_iter_p?5?$CL?51?5?$DM?$DN?5cur@ 0043a26c     ecma-helpers-values-collection.obj
 0002:0000245c       ??_C@_0BM@DJFKJHAE@ecma_free_values_collection@ 0043a29c     ecma-helpers-values-collection.obj
 0002:00002478       ??_C@_0BB@PICEOPM@header_p?5?$CB?$DN?5NULL@ 0043a2b8     ecma-helpers-values-collection.obj
 0002:0000248c       ??_C@_0CE@EFHPDOOC@value_index?5?$DM?5header_p?9?$DOunit_nu@ 0043a2cc     ecma-helpers-values-collection.obj
 0002:000024b0       ??_C@_0CL@CNHEIIHE@cur_value_buf_iter_p?5?$DM?5cur_valu@ 0043a2f0     ecma-helpers-values-collection.obj
 0002:000024dc       ??_C@_0CB@EOOGEJN@ecma_append_to_values_collectio@ 0043a31c     ecma-helpers-values-collection.obj
 0002:00002500       ??_C@_0CO@CJCHFCJD@header_p?9?$DOfirst_chunk_cp?5?$DN?$DN?5ECM@ 0043a340     ecma-helpers-values-collection.obj
 0002:00002530       ??_C@_0DB@HIOCHGMP@last_chunk_p?9?$DOnext_chunk_cp?5?$DN?$DN?5@ 0043a370     ecma-helpers-values-collection.obj
 0002:00002568       ??_C@_0FE@DNKHKOIJ@?$CIuint8_t?5?$CK?$CJ?5?$CIvalues_p?5?$CL?5pos_of_@ 0043a3a8     ecma-helpers-values-collection.obj
 0002:000025bc       ??_C@_0CO@NOPOAGLC@ecma_remove_last_value_from_val@ 0043a3fc     ecma-helpers-values-collection.obj
 0002:000025ec       ??_C@_0CO@PPDJPFLJ@header_p?5?$CB?$DN?5NULL?5?$CG?$CG?5header_p?9?$DOu@ 0043a42c     ecma-helpers-values-collection.obj
 0002:00002620       ??_C@_0FP@BAIOGEFN@?$CIuint8_t?5?$CK?$CJ?5?$CIvalues_p?5?$CL?5pos_of_@ 0043a460     ecma-helpers-values-collection.obj
 0002:00002680       ??_C@_0GK@FNNJIIFK@ECMA_GET_NON_NULL_POINTER?5?$CIecma@ 0043a4c0     ecma-helpers-values-collection.obj
 0002:000026ec       ??_C@_0BM@HBDBAHKB@ecma_new_strings_collection@ 0043a52c     ecma-helpers-values-collection.obj
 0002:00002708       ??_C@_0DC@JPFJOMGI@string_ptrs_buffer?5?$CB?$DN?5NULL?5?$HM?$HM?5s@ 0043a548     ecma-helpers-values-collection.obj
 0002:0000273c       ??_C@_0BO@FGDJIAPE@ecma_collection_iterator_next@ 0043a57c     ecma-helpers-values-collection.obj
 0002:0000275c       ??_C@_0BP@DHPAGCLG@iterator_p?9?$DOcurrent_index?5?$DN?$DN?50@ 0043a59c     ecma-helpers-values-collection.obj
 0002:00002780       ??_C@_0EC@BMPLGBHL@iterator_p?9?$DOcurrent_index?5?$CL?51?5?$DM@ 0043a5c0     ecma-helpers-values-collection.obj
 0002:000027c4       ??_C@_0BF@DBOINNDP@next_chunk_p?5?$CB?$DN?5NULL@ 0043a604     ecma-helpers-values-collection.obj
 0002:000027dc       ??_C@_0DO@BPEABACD@iterator_p?9?$DOcurrent_value_p?5?$DM?5i@ 0043a61c     ecma-helpers-values-collection.obj
 0002:0000281c       ??_C@_0BL@EDIAKGGD@ecma_create_object_lex_env@ 0043a65c     ecma-helpers.obj
 0002:00002838       ??_C@_0EO@HJJFGBIO@d?3?2hellox?2personal?2hellox_os?2je@ 0043a678     ecma-helpers.obj
 0002:00002888       ??_C@_0EG@OADGBFJF@binding_obj_p?5?$CB?$DN?5NULL?5?$CG?$CG?5?$CBecma_@ 0043a6c8     ecma-helpers.obj
 0002:000028d0       ??_C@_0BM@IOOMKIID@ecma_is_lexical_environment@ 0043a710     ecma-helpers.obj
 0002:000028ec       ??_C@_0BL@HPBPCAFJ@ecma_get_object_extensible@ 0043a72c     ecma-helpers.obj
 0002:00002908       ??_C@_0CI@NFIDOJPH@?$CBecma_is_lexical_environment?5?$CIo@ 0043a748     ecma-helpers.obj
 0002:00002930       ??_C@_0BL@IKEJPJBI@ecma_set_object_extensible@ 0043a770     ecma-helpers.obj
 0002:0000294c       ??_C@_0BF@PAFLIPK@ecma_get_object_type@ 0043a78c     ecma-helpers.obj
 0002:00002968       ??_C@_0EI@OBBOOFIK@?$CB?$CIobject_p?9?$DOtype_flags_refs?5?$CG?5E@ 0043a7a8     ecma-helpers.obj
 0002:000029b0       ??_C@_0BK@BLCBJJND@ecma_get_object_prototype@ 0043a7f0     ecma-helpers.obj
 0002:000029cc       ??_C@_0BL@BILNCJNE@ecma_get_object_is_builtin@ 0043a80c     ecma-helpers.obj
 0002:000029e8       ??_C@_0BL@ONOLPAJF@ecma_set_object_is_builtin@ 0043a828     ecma-helpers.obj
 0002:00002a08       ??_C@_0FK@EPABIFIC@?$CIobject_p?9?$DOtype_flags_refs?5?$CG?5EC@ 0043a848     ecma-helpers.obj
 0002:00002a64       ??_C@_0BG@DDKOFMJB@ecma_get_lex_env_type@ 0043a8a4     ecma-helpers.obj
 0002:00002a7c       ??_C@_0CH@CBGGLDJM@ecma_is_lexical_environment?5?$CIob@ 0043a8bc     ecma-helpers.obj
 0002:00002aa4       ??_C@_0CB@OKJPCFIL@ecma_get_lex_env_outer_referenc@ 0043a8e4     ecma-helpers.obj
 0002:00002ac8       ??_C@_0BH@HANCFDLD@ecma_get_property_list@ 0043a908     ecma-helpers.obj
 0002:00002ae0       ??_C@_0HE@GFFBIPO@?$CBecma_is_lexical_environment?5?$CIo@ 0043a920     ecma-helpers.obj
 0002:00002b54       ??_C@_0BO@LDJHECLN@ecma_get_lex_env_provide_this@ 0043a994     ecma-helpers.obj
 0002:00002b78       ??_C@_0JM@IIBJLHGL@ecma_get_lex_env_type?5?$CIobject_p@ 0043a9b8     ecma-helpers.obj
 0002:00002c14       ??_C@_0CA@PPOECIGC@ecma_get_lex_env_binding_object@ 0043aa54     ecma-helpers.obj
 0002:00002c34       ??_C@_0BF@HGIEMIEO@ecma_create_property@ 0043aa74     ecma-helpers.obj
 0002:00002c4c       ??_C@_0DC@MIEAJDKG@ECMA_PROPERTY_IS_PROPERTY_PAIR?5@ 0043aa8c     ecma-helpers.obj
 0002:00002c80       ??_C@_0EK@MEOBEBM@ECMA_PROPERTY_VALUE_PTR?5?$CIproper@ 0043aac0     ecma-helpers.obj
 0002:00002cd0       ??_C@_0EK@BFFFCFFN@ECMA_PROPERTY_VALUE_PTR?5?$CIproper@ 0043ab10     ecma-helpers.obj
 0002:00002d1c       ??_C@_0BM@NPMNMLKN@ecma_find_internal_property@ 0043ab5c     ecma-helpers.obj
 0002:00002d38       ??_C@_0CA@OICGLKPJ@ecma_create_named_data_property@ 0043ab78     ecma-helpers.obj
 0002:00002d58       ??_C@_0CD@ILHALEFN@object_p?5?$CB?$DN?5NULL?5?$CG?$CG?5name_p?5?$CB?$DN?5N@ 0043ab98     ecma-helpers.obj
 0002:00002d7c       ??_C@_0DE@ICKCDNIH@ecma_find_named_property?5?$CIobjec@ 0043abbc     ecma-helpers.obj
 0002:00002db0       ??_C@_0EJ@GFMFHDGN@?$CIprop_attributes?5?$CG?5?$HOECMA_PROPER@ 0043abf0     ecma-helpers.obj
 0002:00002dfc       ??_C@_0CE@HFHECNEO@ecma_create_named_accessor_prop@ 0043ac3c     ecma-helpers.obj
 0002:00002e20       ??_C@_0EA@NGBOKDCI@?$CIprop_attributes?5?$CG?5?$HOECMA_PROPER@ 0043ac60     ecma-helpers.obj
 0002:00002e60       ??_C@_0BJ@OFFJHIHE@ecma_find_named_property@ 0043aca0     ecma-helpers.obj
 0002:00002e7c       ??_C@_0O@CKBLGDL@obj_p?5?$CB?$DN?5NULL@ 0043acbc     ecma-helpers.obj
 0002:00002e8c       ??_C@_0P@DFPLIOEJ@name_p?5?$CB?$DN?5NULL@ 0043accc     ecma-helpers.obj
 0002:00002e9c       ??_C@_0BN@LFFAEMNB@ecma_get_named_data_property@ 0043acdc     ecma-helpers.obj
 0002:00002ec0       ??_C@_0FL@NALEGIIJ@property_p?5?$CB?$DN?5NULL?5?$CG?$CG?5ECMA_PROP@ 0043ad00     ecma-helpers.obj
 0002:00002f1c       ??_C@_0BM@MNIKLKHP@ecma_free_internal_property@ 0043ad5c     ecma-helpers.obj
 0002:00002f38       ??_C@_0FJ@KNEDDCPJ@property_p?5?$CB?$DN?5NULL?5?$CG?$CG?5ECMA_PROP@ 0043ad78     ecma-helpers.obj
 0002:00002f94       ??_C@_0BD@HDOOPMJK@ecma_free_property@ 0043add4     ecma-helpers.obj
 0002:00002fa8       ??_C@_0CH@BKNNABHN@object_p?5?$CB?$DN?5NULL?5?$CG?$CG?5property_p?5@ 0043ade8     ecma-helpers.obj
 0002:00002fd0       ??_C@_0ED@GFGJAJMD@ECMA_PROPERTY_GET_TYPE?5?$CI?$CKproper@ 0043ae10     ecma-helpers.obj
 0002:00003014       ??_C@_0BN@IENKFAAP@name_cp?5?$DN?$DN?5ECMA_NULL_POINTER@ 0043ae54     ecma-helpers.obj
 0002:00003034       ??_C@_0BF@DKPBDFLI@ecma_delete_property@ 0043ae74     ecma-helpers.obj
 0002:0000304c       ??_C@_0BD@GMHGONDL@cur_prop_p?5?$CB?$DN?5NULL@ 0043ae8c     ecma-helpers.obj
 0002:00003060       ??_C@_0CM@LDEFKFAP@ECMA_PROPERTY_IS_PROPERTY_PAIR?5@ 0043aea0     ecma-helpers.obj
 0002:00003090       ??_C@_0EM@FOHHDPAP@ECMA_PROPERTY_GET_TYPE?5?$CIcur_pro@ 0043aed0     ecma-helpers.obj
 0002:000030dc       ??_C@_0DD@EFIAJCPL@cur_prop_p?9?$DOtypes?$FLi?$FN?5?$DN?$DN?5ECMA_PR@ 0043af1c     ecma-helpers.obj
 0002:00003110       ??_C@_0BN@EJLHMPEM@ecma_delete_array_properties@ 0043af50     ecma-helpers.obj
 0002:00003130       ??_C@_0BI@CCEGJGMK@new_length?5?$DM?5old_length@ 0043af70     ecma-helpers.obj
 0002:00003148       ??_C@_0DA@KHGIGIP@ECMA_PROPERTY_IS_PROPERTY_PAIR?5@ 0043af88     ecma-helpers.obj
 0002:00003178       ??_C@_0CF@PPJOJHLF@index?5?$CB?$DN?5ECMA_STRING_NOT_ARRAY_@ 0043afb8     ecma-helpers.obj
 0002:000031a0       ??_C@_0DH@CFFONBEA@current_prop_p?9?$DOtypes?$FLi?$FN?5?$DN?$DN?5ECM@ 0043afe0     ecma-helpers.obj
 0002:000031d8       ??_C@_0CJ@JLGHGOFD@ecma_assert_object_contains_the@ 0043b018     ecma-helpers.obj
 0002:00003204       ??_C@_0BE@EGGFGNMM@prop_iter_p?5?$CB?$DN?5NULL@ 0043b044     ecma-helpers.obj
 0002:00003218       ??_C@_0DO@NICBIMGP@ECMA_PROPERTY_GET_TYPE?5?$CIprop_pa@ 0043b058     ecma-helpers.obj
 0002:00003258       ??_C@_0BK@OFHCFGJB@ecma_is_property_writable@ 0043b098     ecma-helpers.obj
 0002:00003278       ??_C@_0IF@IELMIGNK@ECMA_PROPERTY_GET_TYPE?5?$CIpropert@ 0043b0b8     ecma-helpers.obj
 0002:00003300       ??_C@_0CA@NPDMNEJD@ecma_set_property_writable_attr@ 0043b140     ecma-helpers.obj
 0002:00003320       ??_C@_0EF@EEBGJHPO@ECMA_PROPERTY_GET_TYPE?5?$CI?$CKproper@ 0043b160     ecma-helpers.obj
 0002:00003368       ??_C@_0BM@MDMDFKMH@ecma_is_property_enumerable@ 0043b1a8     ecma-helpers.obj
 0002:00003388       ??_C@_0MO@MOINEMME@ECMA_PROPERTY_GET_TYPE?5?$CIpropert@ 0043b1c8     ecma-helpers.obj
 0002:00003458       ??_C@_0CC@KJIEDMGO@ecma_set_property_enumerable_at@ 0043b298     ecma-helpers.obj
 0002:00003480       ??_C@_0JB@IKFEHLCP@ECMA_PROPERTY_GET_TYPE?5?$CI?$CKproper@ 0043b2c0     ecma-helpers.obj
 0002:00003514       ??_C@_0BO@DPFKDGNJ@ecma_is_property_configurable@ 0043b354     ecma-helpers.obj
 0002:00003534       ??_C@_0CE@NNJFDOEK@ecma_set_property_configurable_@ 0043b374     ecma-helpers.obj
 0002:00003558       ??_C@_0BJ@PEEFKJOF@ecma_is_property_lcached@ 0043b398     ecma-helpers.obj
 0002:00003574       ??_C@_0BK@OOPPCEMJ@ecma_set_property_lcached@ 0043b3b4     ecma-helpers.obj
 0002:00003590       ??_C@_0BE@CFCKIJFB@ecma_bytecode_deref@ 0043b3d0     ecma-helpers.obj
 0002:000035a4       ??_C@_0BF@OPCFEHCO@bytecode_p?9?$DOrefs?5?$DO?50@ 0043b3e4     ecma-helpers.obj
 0002:000035bc       ??_C@_0BN@IPDPHJKG@ecma_lcache_invalidate_entry@ 0043b3fc     ecma-lcache.obj
 0002:000035e0       ??_C@_0EN@PGJJHEKJ@d?3?2hellox?2personal?2hellox_os?2je@ 0043b420     ecma-lcache.obj
 0002:00003630       ??_C@_0BA@DFPPBHPJ@entry_p?5?$CB?$DN?5NULL@ 0043b470     ecma-lcache.obj
 0002:00003640       ??_C@_0CI@FADDHOKB@entry_p?9?$DOobject_cp?5?$CB?$DN?5ECMA_NULL@ 0043b480     ecma-lcache.obj
 0002:00003668       ??_C@_0BI@KJHDHPNC@entry_p?9?$DOprop_p?5?$CB?$DN?5NULL@ 0043b4a8     ecma-lcache.obj
 0002:00003680       ??_C@_0BD@OELBBILA@ecma_lcache_insert@ 0043b4c0     ecma-lcache.obj
 0002:00003694       ??_C@_0DF@MAELBGIB@prop_p?5?$CB?$DN?5NULL?5?$CG?$CG?5?$CBecma_is_prop@ 0043b4d4     ecma-lcache.obj
 0002:000036d0       ??_C@_0IJ@ENBLBKFD@ECMA_PROPERTY_GET_TYPE?5?$CI?$CKprop_p@ 0043b510     ecma-lcache.obj
 0002:0000375c       ??_C@_0BD@FJDJDKID@ecma_lcache_lookup@ 0043b59c     ecma-lcache.obj
 0002:00003770       ??_C@_0BE@BNPGOHMJ@prop_name_p?5?$CB?$DN?5NULL@ 0043b5b0     ecma-lcache.obj
 0002:00003784       ??_C@_0DE@FJICHIMA@prop_p?5?$CB?$DN?5NULL?5?$CG?$CG?5ecma_is_prope@ 0043b5c4     ecma-lcache.obj
 0002:000037b8       ??_C@_0BH@LHNAKGCM@ecma_lcache_invalidate@ 0043b5f8     ecma-lcache.obj
 0002:000037d0       ??_C@_0CA@JMMPPNID@entry_p?9?$DOobject_cp?5?$DN?$DN?5object_cp@ 0043b610     ecma-lcache.obj
 0002:000037f0       ??_C@_0BG@LEAKCKBA@ecma_free_string_list@ 0043b630     ecma-literal-storage.obj
 0002:00003808       ??_C@_0FG@CDDIOBLI@d?3?2hellox?2personal?2hellox_os?2je@ 0043b648     ecma-literal-storage.obj
 0002:00003860       ??_C@_0CM@BHBBILGM@ECMA_STRING_IS_REF_EQUALS_TO_ON@ 0043b6a0     ecma-literal-storage.obj
 0002:0000388c       ??_C@_0CD@BLNLHKBD@ecma_find_or_create_literal_num@ 0043b6cc     ecma-literal-storage.obj
 0002:000038b0       ??_C@_0EC@OCCJMPK@ECMA_STRING_GET_CONTAINER?5?$CIvalu@ 0043b6f0     ecma-literal-storage.obj
 0002:000038fc       ??_C@_0BN@DNBJMGAA@ecma_property_hashmap_create@ 0043b73c     ecma-property-hashmap.obj
 0002:00003920       ??_C@_0FH@PLCGNG@d?3?2hellox?2personal?2hellox_os?2je@ 0043b760     ecma-property-hashmap.obj
 0002:00003978       ??_C@_0CK@HIAKOFEE@ecma_get_property_list?5?$CIobject_@ 0043b7b8     ecma-property-hashmap.obj
 0002:000039a8       ??_C@_0ED@HPBCEMEG@ECMA_PROPERTY_IS_PROPERTY_PAIR?5@ 0043b7e8     ecma-property-hashmap.obj
 0002:000039ec       ??_C@_0BE@DEMLADGE@entry_index?5?$DM?$DN?5mask@ 0043b82c     ecma-property-hashmap.obj
 0002:00003a00       ??_C@_0CB@CMPHHPL@entry_index?5?$CB?$DN?5start_entry_inde@ 0043b840     ecma-property-hashmap.obj
 0002:00003a24       ??_C@_0BL@MJCODBAK@ecma_property_hashmap_free@ 0043b864     ecma-property-hashmap.obj
 0002:00003a40       ??_C@_0EJ@PLBKMMBB@property_p?5?$CB?$DN?5NULL?5?$CG?$CG?5property_@ 0043b880     ecma-property-hashmap.obj
 0002:00003a8c       ??_C@_0BN@NKOLPBHJ@ecma_property_hashmap_insert@ 0043b8cc     ecma-property-hashmap.obj
 0002:00003aac       ??_C@_0DJ@KHAFBGIG@hashmap_p?9?$DOheader?4types?$FL0?$FN?5?$DN?$DN?5E@ 0043b8ec     ecma-property-hashmap.obj
 0002:00003ae8       ??_C@_0CP@HCIAIEPO@property_index?5?$DM?5ECMA_PROPERTY_@ 0043b928     ecma-property-hashmap.obj
 0002:00003b18       ??_C@_0BK@BBCMHALL@hashmap_p?9?$DOnull_count?5?$DO?50@ 0043b958     ecma-property-hashmap.obj
 0002:00003b34       ??_C@_0BN@GEBPDPIL@ecma_property_hashmap_delete@ 0043b974     ecma-property-hashmap.obj
 0002:00003b54       ??_C@_0CN@CFCHFCPM@property_pair_p?9?$DOnames_cp?$FLoffse@ 0043b994     ecma-property-hashmap.obj
 0002:00003b84       ??_C@_0DE@OKOCGPIJ@ECMA_PROPERTY_HASHMAP_GET_BIT?5?$CI@ 0043b9c4     ecma-property-hashmap.obj
 0002:00003bb8       ??_C@_0BL@FLHIDPDE@ecma_property_hashmap_find@ 0043b9f8     ecma-property-hashmap.obj
 0002:00003bd4       ??_C@_0CO@HOFFHCNG@ECMA_PROPERTY_IS_NAMED_PROPERTY@ 0043ba14     ecma-property-hashmap.obj
 0002:00003c04       ??_C@_0P@OKLMCFNM@property_found@ 0043ba44     ecma-property-hashmap.obj
 0002:00003c14       ??_C@_0BA@GIIDIHIC@?$CBproperty_found@ 0043ba54     ecma-property-hashmap.obj
 0002:00003c28       _ecma_builtin_array_prototype_property_descriptor_list 0043ba68     ecma-builtin-array-prototype.obj
 0002:00003cb8       ??_C@_0CO@CCHIPHJI@ecma_builtin_array_prototype_di@ 0043baf8     ecma-builtin-array-prototype.obj
 0002:00003ce8       ??_C@_0HI@NLKFIJIO@d?3?2hellox?2personal?2hellox_os?2je@ 0043bb28     ecma-builtin-array-prototype.obj
 0002:00003d60       ??_C@_0CO@PIIABKIA@ecma_builtin_array_prototype_ob@ 0043bba0     ecma-builtin-array-prototype.obj
 0002:00003d90       ??_C@_0GJ@IFMIGKFP@d?3?2hellox?2personal?2hellox_os?2je@ 0043bbd0     ecma-builtin-array-prototype.obj
 0002:00003dfc       ??_C@_0DO@PMNDDFLN@ret_value?5?$DN?$DN?5ecma_make_simple_v@ 0043bc3c     ecma-builtin-array-prototype.obj
 0002:00003e3c       ??_C@_0DF@NAAGBIDM@ecma_builtin_array_prototype_ob@ 0043bc7c     ecma-builtin-array-prototype.obj
 0002:00003e74       ??_C@_0CD@EDOGEAGC@ecma_number_is_nan?5?$CIlength_numb@ 0043bcb4     ecma-builtin-array-prototype.obj
 0002:00003e98       ??_C@_0CL@DDCKONKN@ecma_builtin_array_prototype_ob@ 0043bcd8     ecma-builtin-array-prototype.obj
 0002:00003ec4       ??_C@_0CF@IMLMFDIL@ecma_op_array_get_to_string_at_@ 0043bd04     ecma-builtin-array-prototype.obj
 0002:00003eec       ??_C@_0CC@HALPHLII@ecma_builtin_array_prototype_jo@ 0043bd2c     ecma-builtin-array-prototype.obj
 0002:00003f10       ??_C@_0CI@BKGKGCFE@ecma_builtin_array_prototype_ob@ 0043bd50     ecma-builtin-array-prototype.obj
 0002:00003f38       ??_C@_0CA@BAPCJIN@ecma_number_is_nan?5?$CIlen_number?$CJ@ 0043bd78     ecma-builtin-array-prototype.obj
 0002:00003f58       ??_C@_0CJ@PMNKBHIC@ecma_builtin_array_prototype_ob@ 0043bd98     ecma-builtin-array-prototype.obj
 0002:00003f84       ??_C@_0CA@CMCEJLBJ@ecma_number_is_nan?5?$CIlength_var?$CJ@ 0043bdc4     ecma-builtin-array-prototype.obj
 0002:00003fa4       ??_C@_0CM@IDJJJPAD@ecma_builtin_array_prototype_ob@ 0043bde4     ecma-builtin-array-prototype.obj
 0002:00003fd0       ??_C@_0CK@GDMHDPIF@ecma_builtin_array_prototype_ob@ 0043be10     ecma-builtin-array-prototype.obj
 0002:00003ffc       ??_C@_0CK@MDFFHILO@ecma_builtin_array_prototype_ob@ 0043be3c     ecma-builtin-array-prototype.obj
 0002:00004028       ??_C@_0BN@KDEEKOKA@ecma_number_is_nan?5?$CIend_num?$CJ@ 0043be68     ecma-builtin-array-prototype.obj
 0002:00004048       ??_C@_0BP@GGOJFEKB@ecma_number_is_nan?5?$CIstart_num?$CJ@ 0043be88     ecma-builtin-array-prototype.obj
 0002:00004068       ??_C@_0BL@BFDBFDMG@start?5?$DM?$DN?5len?5?$CG?$CG?5end?5?$DM?$DN?5len@ 0043bea8     ecma-builtin-array-prototype.obj
 0002:00004084       ??_C@_0BO@FCLDLIEH@ecma_is_value_true?5?$CIput_comp?$CJ@ 0043bec4     ecma-builtin-array-prototype.obj
 0002:000040a4       ??_C@_0DI@EEBDCHDN@ecma_builtin_array_prototype_ob@ 0043bee4     ecma-builtin-array-prototype.obj
 0002:000040dc       ??_C@_0CA@CIGAKMIN@ecma_op_is_callable?5?$CIcomparefn?$CJ@ 0043bf1c     ecma-builtin-array-prototype.obj
 0002:000040fc       ??_C@_0BN@FBFBABIA@ecma_number_is_nan?5?$CIret_num?$CJ@ 0043bf3c     ecma-builtin-array-prototype.obj
 0002:0000411c       ??_C@_0DJ@BKDJLDMH@ecma_builtin_array_prototype_ob@ 0043bf5c     ecma-builtin-array-prototype.obj
 0002:00004158       ??_C@_0CL@LGDKCHEB@ecma_is_value_number?5?$CIchild_com@ 0043bf98     ecma-builtin-array-prototype.obj
 0002:00004184       ??_C@_0P@KPFLEJBI@child?5?$DM?$DN?5right@ 0043bfc4     ecma-builtin-array-prototype.obj
 0002:00004194       ??_C@_0CK@GPOEGDNB@ecma_is_value_number?5?$CIswap_comp@ 0043bfd4     ecma-builtin-array-prototype.obj
 0002:000041c0       ??_C@_0BP@HNEACEID@parent?5?$DO?$DN?50?5?$CG?$CG?5parent?5?$DM?$DN?5right@ 0043c000     ecma-builtin-array-prototype.obj
 0002:000041e0       ??_C@_0DL@IDBPNINB@ecma_builtin_array_prototype_ob@ 0043c020     ecma-builtin-array-prototype.obj
 0002:0000421c       ??_C@_0CJ@GDGLONMD@ecma_builtin_array_prototype_ob@ 0043c05c     ecma-builtin-array-prototype.obj
 0002:00004248       ??_C@_0EF@GECDDNMM@copied_num?5?$DN?$DN?5defined_prop_coun@ 0043c088     ecma-builtin-array-prototype.obj
 0002:00004290       ??_C@_0BK@EHOGLFAP@values_buffer___size?5?$CB?$DN?50@ 0043c0d0     ecma-builtin-array-prototype.obj
 0002:000042ac       ??_C@_0BK@OCPGMPIM@values_buffer___size?5?$DN?$DN?50@ 0043c0ec     ecma-builtin-array-prototype.obj
 0002:000042c8       ??_C@_0CL@ODFEIFFH@ecma_builtin_array_prototype_ob@ 0043c108     ecma-builtin-array-prototype.obj
 0002:000042f4       ??_C@_0CA@PJGNIMFK@ecma_number_is_nan?5?$CIdelete_num?$CJ@ 0043c134     ecma-builtin-array-prototype.obj
 0002:00004314       ??_C@_0CM@ONCKAFPH@ecma_builtin_array_prototype_ob@ 0043c154     ecma-builtin-array-prototype.obj
 0002:00004340       ??_C@_0CN@IEFAMEOI@ecma_builtin_array_prototype_ob@ 0043c180     ecma-builtin-array-prototype.obj
 0002:00004370       ??_C@_0CC@CJGIGLDP@ecma_number_is_nan?5?$CIarg_from_id@ 0043c1b0     ecma-builtin-array-prototype.obj
 0002:00004394       ??_C@_0DC@LPLFPIPJ@ecma_builtin_array_prototype_ob@ 0043c1d4     ecma-builtin-array-prototype.obj
 0002:000043c8       ??_C@_0CK@INMPDNLJ@ecma_builtin_array_prototype_ob@ 0043c208     ecma-builtin-array-prototype.obj
 0002:000043f4       ??_C@_0CG@KBIGBOHA@?$CBECMA_IS_VALUE_ERROR?5?$CIto_object@ 0043c234     ecma-builtin-array-prototype.obj
 0002:0000441c       ??_C@_0CJ@CHMICKJO@ecma_builtin_array_prototype_ob@ 0043c25c     ecma-builtin-array-prototype.obj
 0002:00004448       ??_C@_0CN@CJLBIOND@ecma_builtin_array_prototype_ob@ 0043c288     ecma-builtin-array-prototype.obj
 0002:00004478       ??_C@_0CI@LCIHMABM@ecma_builtin_array_prototype_ob@ 0043c2b8     ecma-builtin-array-prototype.obj
 0002:000044a0       ??_C@_0BM@LDGMNEOI@ecma_is_value_object?5?$CIarg1?$CJ@ 0043c2e0     ecma-builtin-array-prototype.obj
 0002:000044bc       ??_C@_0CB@GMGHNLKN@?$CBECMA_IS_VALUE_ERROR?5?$CInew_array@ 0043c2fc     ecma-builtin-array-prototype.obj
 0002:000044e0       ??_C@_0CL@FBBGBCAL@ecma_builtin_array_prototype_ob@ 0043c320     ecma-builtin-array-prototype.obj
 0002:0000450c       ??_C@_0CL@DMIHLOCN@ecma_builtin_array_prototype_ob@ 0043c34c     ecma-builtin-array-prototype.obj
 0002:00004538       ??_C@_0CC@LBKOFKFL@ecma_is_value_object?5?$CIcallbackf@ 0043c378     ecma-builtin-array-prototype.obj
 0002:0000455c       ??_C@_0DB@OFAJPLJD@ecma_builtin_array_prototype_ob@ 0043c39c     ecma-builtin-array-prototype.obj
 0002:00004590       __real@bff0000000000000    0043c3d0     ecma-builtin-array-prototype.obj
 0002:00004598       _ecma_builtin_array_property_descriptor_list 0043c3d8     ecma-builtin-array.obj
 0002:000045b0       ??_C@_0CE@KIKIFJ@ecma_builtin_array_dispatch_rou@ 0043c3f0     ecma-builtin-array.obj
 0002:000045d4       ??_C@_0CB@CEBNEBAD@ecma_builtin_array_dispatch_cal@ 0043c414     ecma-builtin-array.obj
 0002:000045f8       ??_C@_0FP@EAHIKAPI@d?3?2hellox?2personal?2hellox_os?2je@ 0043c438     ecma-builtin-array.obj
 0002:00004658       ??_C@_0DE@HNANGPKB@arguments_list_len?5?$DN?$DN?50?5?$HM?$HM?5argu@ 0043c498     ecma-builtin-array.obj
 0002:0000468c       ??_C@_0CG@NEONMBJI@ecma_builtin_array_dispatch_con@ 0043c4cc     ecma-builtin-array.obj
 0002:000046b4       _ecma_builtin_arraybuffer_prototype_property_descriptor_list 0043c4f4     ecma-builtin-arraybuffer-prototype.obj
 0002:000046cc       ??_C@_0DE@COGNCDEO@ecma_builtin_arraybuffer_protot@ 0043c50c     ecma-builtin-arraybuffer-prototype.obj
 0002:00004700       ??_C@_0DA@LCNIBMJC@ecma_builtin_arraybuffer_protot@ 0043c540     ecma-builtin-arraybuffer-prototype.obj
 0002:00004730       ??_C@_0GP@FEMLIFFH@d?3?2hellox?2personal?2hellox_os?2je@ 0043c570     ecma-builtin-arraybuffer-prototype.obj
 0002:000047a0       _ecma_builtin_arraybuffer_property_descriptor_list 0043c5e0     ecma-builtin-arraybuffer.obj
 0002:000047b8       ??_C@_0CK@NBHNJJOC@ecma_builtin_arraybuffer_dispat@ 0043c5f8     ecma-builtin-arraybuffer.obj
 0002:000047e4       ??_C@_0CH@LAMLABGG@ecma_builtin_arraybuffer_dispat@ 0043c624     ecma-builtin-arraybuffer.obj
 0002:00004810       ??_C@_0GF@PKJJPNC@d?3?2hellox?2personal?2hellox_os?2je@ 0043c650     ecma-builtin-arraybuffer.obj
 0002:00004878       ??_C@_0CM@ICACGHAE@ecma_builtin_arraybuffer_dispat@ 0043c6b8     ecma-builtin-arraybuffer.obj
 0002:000048a4       _ecma_builtin_boolean_prototype_property_descriptor_list 0043c6e4     ecma-builtin-boolean-prototype.obj
 0002:000048bc       ??_C@_0DA@LNENGFBH@ecma_builtin_boolean_prototype_@ 0043c6fc     ecma-builtin-boolean-prototype.obj
 0002:000048ec       ??_C@_0DA@GHLFIIAP@ecma_builtin_boolean_prototype_@ 0043c72c     ecma-builtin-boolean-prototype.obj
 0002:00004920       ??_C@_0GL@OLBHDFAF@d?3?2hellox?2personal?2hellox_os?2je@ 0043c760     ecma-builtin-boolean-prototype.obj
 0002:0000498c       ??_C@_0CF@DMHCGILL@ecma_is_value_boolean?5?$CIvalue_of@ 0043c7cc     ecma-builtin-boolean-prototype.obj
 0002:000049b4       ??_C@_0CP@MDGGOGN@ecma_builtin_boolean_prototype_@ 0043c7f4     ecma-builtin-boolean-prototype.obj
 0002:000049e4       ??_C@_0DL@LGHPANFF@ecma_is_value_boolean?5?$CIext_obje@ 0043c824     ecma-builtin-boolean-prototype.obj
 0002:00004a20       _ecma_builtin_boolean_property_descriptor_list 0043c860     ecma-builtin-boolean.obj
 0002:00004a34       ??_C@_0CG@LJEKFDKI@ecma_builtin_boolean_dispatch_r@ 0043c874     ecma-builtin-boolean.obj
 0002:00004a5c       ??_C@_0CD@PJNJMFEN@ecma_builtin_boolean_dispatch_c@ 0043c89c     ecma-builtin-boolean.obj
 0002:00004a80       ??_C@_0GB@BKLMFFBB@d?3?2hellox?2personal?2hellox_os?2je@ 0043c8c0     ecma-builtin-boolean.obj
 0002:00004ae4       ??_C@_0CI@PDCFIDBC@ecma_builtin_boolean_dispatch_c@ 0043c924     ecma-builtin-boolean.obj
 0002:00004b10       _ecma_builtin_date_prototype_property_descriptor_list 0043c950     ecma-builtin-date-prototype.obj
 0002:00004c30       ??_C@_0CE@HMBNHEKA@ecma_builtin_date_prototype_to_@ 0043ca70     ecma-builtin-date-prototype.obj
 0002:00004c58       ??_C@_0GI@BNOBIDKL@d?3?2hellox?2personal?2hellox_os?2je@ 0043ca98     ecma-builtin-date-prototype.obj
 0002:00004cc0       ??_C@_0CJ@NLFECIGL@ecma_builtin_date_prototype_dis@ 0043cb00     ecma-builtin-date-prototype.obj
 0002:00004cf0       ??_C@_0EC@OGNKAJHE@builtin_routine_id?5?$DN?$DN?5ECMA_DATE@ 0043cb30     ecma-builtin-date-prototype.obj
 0002:00004d34       ??_C@_0CJ@ECPOIKD@ecma_builtin_date_prototype_dis@ 0043cb74     ecma-builtin-date-prototype.obj
 0002:00004d60       ??_C@_0GP@DFBPBGFG@builtin_routine_id?5?$DN?$DN?5ECMA_DATE@ 0043cba0     ecma-builtin-date-prototype.obj
 0002:00004dd0       ??_C@_0GN@KMIJBLJB@builtin_routine_id?5?$DN?$DN?5ECMA_DATE@ 0043cc10     ecma-builtin-date-prototype.obj
 0002:00004e40       ??_C@_0HN@PKPGAAIN@builtin_routine_id?5?$DN?$DN?5ECMA_DATE@ 0043cc80     ecma-builtin-date-prototype.obj
 0002:00004ec0       ??_C@_0CN@FOGHMALM@ecma_builtin_date_prototype_dis@ 0043cd00     ecma-builtin-date-prototype.obj
 0002:00004ef0       ??_C@_0BO@BHEKDGHC@ecma_number_is_nan?5?$CItime_num?$CJ@ 0043cd30     ecma-builtin-date-prototype.obj
 0002:00004f10       ??_C@_0DI@BMFKMBBJ@builtin_routine_id?5?$DN?$DN?5ECMA_DATE@ 0043cd50     ecma-builtin-date-prototype.obj
 0002:00004f48       __real@4058c00000000000    0043cd88     ecma-builtin-date-prototype.obj
 0002:00004f50       __real@409db00000000000    0043cd90     ecma-builtin-date-prototype.obj
 0002:00004f58       _ecma_builtin_date_property_descriptor_list 0043cd98     ecma-builtin-date.obj
 0002:00004f7c       ??_C@_0CD@HNIEKFAD@ecma_builtin_date_dispatch_rout@ 0043cdbc     ecma-builtin-date.obj
 0002:00004fa0       ??_C@_0BL@BEFMKOON@ecma_date_parse_date_chars@ 0043cde0     ecma-builtin-date.obj
 0002:00004fc0       ??_C@_0FO@IIGMJKBA@d?3?2hellox?2personal?2hellox_os?2je@ 0043ce00     ecma-builtin-date.obj
 0002:00005020       ??_C@_0BB@GKLODKDC@num_of_chars?5?$DO?50@ 0043ce60     ecma-builtin-date.obj
 0002:00005034       ??_C@_0BL@EHMHOHJB@ecma_date_construct_helper@ 0043ce74     ecma-builtin-date.obj
 0002:00005050       ??_C@_0BI@EMNFHDDL@ecma_builtin_date_parse@ 0043ce90     ecma-builtin-date.obj
 0002:00005068       ??_C@_0BF@FHJEBCBN@date_start_p?5?$CB?$DN?5NULL@ 0043cea8     ecma-builtin-date.obj
 0002:00005080       ??_C@_0BG@LCAAKJOL@ecma_builtin_date_utc@ 0043cec0     ecma-builtin-date.obj
 0002:00005098       ??_C@_0CA@JHEBFBHC@ecma_builtin_date_dispatch_call@ 0043ced8     ecma-builtin-date.obj
 0002:000050b8       ??_C@_0CF@OKAIHFNH@ecma_builtin_date_dispatch_cons@ 0043cef8     ecma-builtin-date.obj
 0002:000050e0       ??_C@_0CA@POMJCONI@ECMA_IS_VALUE_ERROR?5?$CIret_value?$CJ@ 0043cf20     ecma-builtin-date.obj
 0002:00005100       __real@4028000000000000    0043cf40     ecma-builtin-date.obj
 0002:00005108       __real@4038000000000000    0043cf48     ecma-builtin-date.obj
 0002:00005110       __real@403f000000000000    0043cf50     ecma-builtin-date.obj
 0002:00005118       __real@404d800000000000    0043cf58     ecma-builtin-date.obj
 0002:00005120       _ecma_builtin_error_prototype_property_descriptor_list 0043cf60     ecma-builtin-error-prototype.obj
 0002:00005140       ??_C@_0CO@EDFCEOKL@ecma_builtin_error_prototype_di@ 0043cf80     ecma-builtin-error-prototype.obj
 0002:00005170       ??_C@_0CO@JJKKKDLD@ecma_builtin_error_prototype_ob@ 0043cfb0     ecma-builtin-error-prototype.obj
 0002:000051a0       ??_C@_0GJ@CMCLJOMB@d?3?2hellox?2personal?2hellox_os?2je@ 0043cfe0     ecma-builtin-error-prototype.obj
 0002:0000520c       ??_C@_0BD@JLDEPPGI@bytes?5?$DN?$DN?5name_size@ 0043d04c     ecma-builtin-error-prototype.obj
 0002:00005220       ??_C@_0CK@JBPJIGOI@ret_str_buffer_p?5?$DM?$DN?5ret_str_buf@ 0043d060     ecma-builtin-error-prototype.obj
 0002:0000524c       ??_C@_0BC@IDMIFKEI@bytes?5?$DN?$DN?5msg_size@ 0043d08c     ecma-builtin-error-prototype.obj
 0002:00005260       ??_C@_0CK@DEHCBGOG@ret_str_buffer_p?5?$DN?$DN?5ret_str_buf@ 0043d0a0     ecma-builtin-error-prototype.obj
 0002:0000528c       ??_C@_0BL@CEBOIFPH@ret_str_buffer___size?5?$CB?$DN?50@ 0043d0cc     ecma-builtin-error-prototype.obj
 0002:000052a8       ??_C@_0BL@IBAOPPHE@ret_str_buffer___size?5?$DN?$DN?50@ 0043d0e8     ecma-builtin-error-prototype.obj
 0002:000052c4       _ecma_builtin_error_property_descriptor_list 0043d104     ecma-builtin-error.obj
 0002:000052d8       ??_C@_0CE@LDPLNJIB@ecma_builtin_error_dispatch_rou@ 0043d118     ecma-builtin-error.obj
 0002:000052fc       _ecma_builtin_eval_error_prototype_property_descriptor_list 0043d13c     ecma-builtin-evalerror-prototype.obj
 0002:00005314       ??_C@_0DD@GBIAHHNI@ecma_builtin_eval_error_prototy@ 0043d154     ecma-builtin-evalerror-prototype.obj
 0002:00005348       _ecma_builtin_eval_error_property_descriptor_list 0043d188     ecma-builtin-evalerror.obj
 0002:0000535c       ??_C@_0CJ@BAMFEKOE@ecma_builtin_eval_error_dispatc@ 0043d19c     ecma-builtin-evalerror.obj
 0002:00005388       _ecma_builtin_function_prototype_property_descriptor_list 0043d1c8     ecma-builtin-function-prototype.obj
 0002:000053b4       ??_C@_0DB@GPFIBALH@ecma_builtin_function_prototype@ 0043d1f4     ecma-builtin-function-prototype.obj
 0002:000053e8       ??_C@_0CN@EGMFPPKJ@ecma_builtin_function_prototype@ 0043d228     ecma-builtin-function-prototype.obj
 0002:00005418       ??_C@_0GM@BAFLBGDK@d?3?2hellox?2personal?2hellox_os?2je@ 0043d258     ecma-builtin-function-prototype.obj
 0002:00005484       ??_C@_0BF@INHCCDLN@last_index?5?$DN?$DN?5length@ 0043d2c4     ecma-builtin-function-prototype.obj
 0002:0000549c       ??_C@_0BN@HOMCLLIJ@arguments_list_p___size?5?$CB?$DN?50@ 0043d2dc     ecma-builtin-function-prototype.obj
 0002:000054bc       ??_C@_0BN@NLNCMBAK@arguments_list_p___size?5?$DN?$DN?50@ 0043d2fc     ecma-builtin-function-prototype.obj
 0002:000054dc       ??_C@_0CM@DBEIHPIA@ecma_builtin_function_prototype@ 0043d31c     ecma-builtin-function-prototype.obj
 0002:00005508       ??_C@_0CF@FALCDDCN@?$CBECMA_IS_VALUE_ERROR?5?$CIget_len_v@ 0043d348     ecma-builtin-function-prototype.obj
 0002:00005530       ??_C@_0CF@LIJLIGGC@ecma_is_value_number?5?$CIget_len_v@ 0043d370     ecma-builtin-function-prototype.obj
 0002:00005558       ??_C@_0CD@EINJKBNB@ecma_is_value_boolean?5?$CIcompleti@ 0043d398     ecma-builtin-function-prototype.obj
 0002:0000557c       ??_C@_0CO@PKNHPBJJ@ecma_builtin_function_prototype@ 0043d3bc     ecma-builtin-function-prototype.obj
 0002:000055ac       ??_C@_0DD@NBKKELLE@ecma_builtin_function_prototype@ 0043d3ec     ecma-builtin-function-prototype.obj
 0002:000055e0       _ecma_builtin_function_property_descriptor_list 0043d420     ecma-builtin-function.obj
 0002:000055f4       ??_C@_0CH@GMOFEIBD@ecma_builtin_function_dispatch_@ 0043d434     ecma-builtin-function.obj
 0002:0000561c       ??_C@_0CE@OGILONEH@ecma_builtin_function_dispatch_@ 0043d45c     ecma-builtin-function.obj
 0002:00005640       ??_C@_0GC@JJLILKIG@d?3?2hellox?2personal?2hellox_os?2je@ 0043d480     ecma-builtin-function.obj
 0002:000056a4       ??_C@_0DF@FDBFCDEC@ecma_builtin_function_helper_ge@ 0043d4e4     ecma-builtin-function.obj
 0002:000056dc       ??_C@_0CJ@HOHBOICC@ecma_builtin_function_dispatch_@ 0043d51c     ecma-builtin-function.obj
 0002:00005738       _ecma_builtin_global_property_descriptor_list 0043d578     ecma-builtin-global.obj
 0002:00005804       ??_C@_0CF@BENBEJGC@ecma_builtin_global_dispatch_ro@ 0043d644     ecma-builtin-global.obj
 0002:0000582c       ??_C@_0CB@ELDDIPDJ@ecma_builtin_global_object_prin@ 0043d66c     ecma-builtin-global.obj
 0002:00005850       ??_C@_0GA@HOIPLNLP@d?3?2hellox?2personal?2hellox_os?2je@ 0043d690     ecma-builtin-global.obj
 0002:000058b0       ??_C@_06HHCOKMHE@?2u0000@  0043d6f0     ecma-builtin-global.obj
 0002:000058b8       ??_C@_02HAOIJKIC@?$CFc@    0043d6f8     ecma-builtin-global.obj
 0002:000058bc       ??_C@_0L@FKJJHKLP@?2u?$CF02x?$CF02x@ 0043d6fc     ecma-builtin-global.obj
 0002:000058c8       ??_C@_01CLKCMJKC@?5@       0043d708     ecma-builtin-global.obj
 0002:000058cc       ??_C@_01EEMJAFIK@?6@       0043d70c     ecma-builtin-global.obj
 0002:000058d0       ??_C@_0CF@PNEHNDAM@ecma_builtin_global_object_pars@ 0043d710     ecma-builtin-global.obj
 0002:000058f8       ??_C@_0BP@MKAGMDIL@ecma_number_is_nan?5?$CIradix_num?$CJ@ 0043d738     ecma-builtin-global.obj
 0002:00005918       ??_C@_0BE@JPNMEBJF@string_buff?5?$CB?$DN?5NULL@ 0043d758     ecma-builtin-global.obj
 0002:0000592c       ??_C@_0CH@LNKHBNOL@ecma_builtin_global_object_pars@ 0043d76c     ecma-builtin-global.obj
 0002:00005954       ??_C@_0CC@KJKGNLKL@ecma_builtin_global_object_is_n@ 0043d794     ecma-builtin-global.obj
 0002:00005978       ??_C@_0BN@OEFEMBFF@ecma_number_is_nan?5?$CIarg_num?$CJ@ 0043d7b8     ecma-builtin-global.obj
 0002:00005998       ??_C@_0CF@FKLEIDMM@ecma_builtin_global_object_is_f@ 0043d7d8     ecma-builtin-global.obj
 0002:000059c0       ??_C@_0CL@KAIOJDMD@ecma_builtin_global_object_char@ 0043d800     ecma-builtin-global.obj
 0002:000059ec       ??_C@_0BA@DNMBMHBO@character?5?$DM?5128@ 0043d82c     ecma-builtin-global.obj
 0002:000059fc       ??_C@_0CN@FDBMDPBI@ecma_builtin_global_object_deco@ 0043d83c     ecma-builtin-global.obj
 0002:00005a2c       ??_C@_0BO@FPEFHEKP@ecma_is_value_string?5?$CIstring?$CJ@ 0043d86c     ecma-builtin-global.obj
 0002:00005a4c       ??_C@_0CO@LHBBDENL@output_start_p?5?$CL?5output_size?5?$DN?$DN@ 0043d88c     ecma-builtin-global.obj
 0002:00005a7c       ??_C@_0BL@PPCAJENE@output_start_p___size?5?$CB?$DN?50@ 0043d8bc     ecma-builtin-global.obj
 0002:00005a98       ??_C@_0BL@FKDAOOFH@output_start_p___size?5?$DN?$DN?50@ 0043d8d8     ecma-builtin-global.obj
 0002:00005ab4       ??_C@_0BK@HFDOGHHI@input_start_p___size?5?$CB?$DN?50@ 0043d8f4     ecma-builtin-global.obj
 0002:00005ad0       ??_C@_0BK@NACOBNPL@input_start_p___size?5?$DN?$DN?50@ 0043d910     ecma-builtin-global.obj
 0002:00005aec       ??_C@_0CH@LFCHGOJO@ecma_builtin_global_object_byte@ 0043d92c     ecma-builtin-global.obj
 0002:00005b14       ??_C@_0L@CPICKENE@byte?5?$DM?5256@ 0043d954     ecma-builtin-global.obj
 0002:00005b20       ??_C@_0CN@JMEJNOD@ecma_builtin_global_object_enco@ 0043d960     ecma-builtin-global.obj
 0002:00005b50       ??_C@_0DA@NGHIDGKE@output_start_p?5?$CL?5output_length?5@ 0043d990     ecma-builtin-global.obj
 0002:00005b80       ??_C@_0CC@KMKEOEIC@ecma_builtin_global_object_esca@ 0043d9c0     ecma-builtin-global.obj
 0002:00005ba4       ??_C@_0CE@CMDLANJK@ecma_builtin_global_object_unes@ 0043d9e4     ecma-builtin-global.obj
 0002:00005bc8       ??_C@_0BO@OPOFFHLJ@output_char_p?5?$DM?$DN?5input_curr_p@ 0043da08     ecma-builtin-global.obj
 0002:00005be8       __real@4048000000000000    0043da28     ecma-builtin-global.obj
 0002:00005bf0       __real@4050400000000000    0043da30     ecma-builtin-global.obj
 0002:00005bf8       __real@4058400000000000    0043da38     ecma-builtin-global.obj
 0002:00005c00       ??_C@_0BK@NMBINAEJ@ecma_date_month_from_time@ 0043da40     ecma-builtin-helpers-date.obj
 0002:00005c20       ??_C@_0GG@LJOFLPNM@d?3?2hellox?2personal?2hellox_os?2je@ 0043da60     ecma-builtin-helpers-date.obj
 0002:00005c88       ??_C@_0DN@JJPJHOHP@day_within_year?5?$DO?$DN?50?5?$CG?$CG?5day_wit@ 0043dac8     ecma-builtin-helpers-date.obj
 0002:00005cc8       ??_C@_0BJ@NBLDPEJP@ecma_date_date_from_time@ 0043db08     ecma-builtin-helpers-date.obj
 0002:00005ce4       ??_C@_0DH@DIHFAOJG@?$CBecma_number_is_nan?5?$CIecma_date_@ 0043db24     ecma-builtin-helpers-date.obj
 0002:00005d1c       ??_C@_03KOEHGMDN@Sun@      0043db5c     ecma-builtin-helpers-date.obj
 0002:00005d20       ??_C@_03PDAGKDH@Mon@       0043db60     ecma-builtin-helpers-date.obj
 0002:00005d24       ??_C@_03NAGEINEP@Tue@      0043db64     ecma-builtin-helpers-date.obj
 0002:00005d28       ??_C@_03MHOMLAJA@Wed@      0043db68     ecma-builtin-helpers-date.obj
 0002:00005d2c       ??_C@_03IOFIKPDN@Thu@      0043db6c     ecma-builtin-helpers-date.obj
 0002:00005d30       ??_C@_03IDIOELNC@Fri@      0043db70     ecma-builtin-helpers-date.obj
 0002:00005d34       ??_C@_03FEFJNEK@Sat@       0043db74     ecma-builtin-helpers-date.obj
 0002:00005d38       ??_C@_03JMFMNIFM@?9?9?9@   0043db78     ecma-builtin-helpers-date.obj
 0002:00005d3c       ??_C@_03JIHJHPIE@Jan@      0043db7c     ecma-builtin-helpers-date.obj
 0002:00005d40       ??_C@_03HJBDCHOM@Feb@      0043db80     ecma-builtin-helpers-date.obj
 0002:00005d44       ??_C@_03ODNJBKGA@Mar@      0043db84     ecma-builtin-helpers-date.obj
 0002:00005d48       ??_C@_03LEOLGMJP@Apr@      0043db88     ecma-builtin-helpers-date.obj
 0002:00005d4c       ??_C@_03CNMDKL@May@        0043db8c     ecma-builtin-helpers-date.obj
 0002:00005d50       ??_C@_03IDFGHECI@Jun@      0043db90     ecma-builtin-helpers-date.obj
 0002:00005d54       ??_C@_03LBGABGKK@Jul@      0043db94     ecma-builtin-helpers-date.obj
 0002:00005d58       ??_C@_03IFJFEIGA@Aug@      0043db98     ecma-builtin-helpers-date.obj
 0002:00005d5c       ??_C@_03GGCAPAJC@Sep@      0043db9c     ecma-builtin-helpers-date.obj
 0002:00005d60       ??_C@_03BMAOKBAD@Oct@      0043dba0     ecma-builtin-helpers-date.obj
 0002:00005d64       ??_C@_03JPJOFNIA@Nov@      0043dba4     ecma-builtin-helpers-date.obj
 0002:00005d68       ??_C@_03MKABNOCG@Dec@      0043dba8     ecma-builtin-helpers-date.obj
 0002:00005d6c       ??_C@_04FIEKMBKB@?5GMT@    0043dbac     ecma-builtin-helpers-date.obj
 0002:00005d74       ??_C@_0BK@DBGDFNEK@ecma_date_value_to_string@ 0043dbb4     ecma-builtin-helpers-date.obj
 0002:00005d90       ??_C@_0CN@CIHIJFNC@Failed?5to?5allocate?5dynamic?5arra@ 0043dbd0     ecma-builtin-helpers-date.obj
 0002:00005dc0       ??_C@_0DP@LAEFIMDP@?$CIuint32_t?$CJ?5?$CIdest_p?5?9?5character_@ 0043dc00     ecma-builtin-helpers-date.obj
 0002:00005e00       ??_C@_0CP@FFCNFPGP@BUG?3?5NULL?5pointer?5of?5dynamic?5ar@ 0043dc40     ecma-builtin-helpers-date.obj
 0002:00005e30       ??_C@_0BO@LBONGGDI@ecma_date_value_to_utc_string@ 0043dc70     ecma-builtin-helpers-date.obj
 0002:00005e50       ??_C@_0BO@BBOJNIFJ@ecma_date_value_to_iso_string@ 0043dc90     ecma-builtin-helpers-date.obj
 0002:00005e70       ??_C@_0BP@MGPLOHA@ecma_date_value_to_date_string@ 0043dcb0     ecma-builtin-helpers-date.obj
 0002:00005e90       ??_C@_0BP@GBAPBIOL@ecma_date_value_to_time_string@ 0043dcd0     ecma-builtin-helpers-date.obj
 0002:00005eb0       __real@3fd0000000000000    0043dcf0     ecma-builtin-helpers-date.obj
 0002:00005eb8       __real@4000000000000000    0043dcf8     ecma-builtin-helpers-date.obj
 0002:00005ec0       __real@4008000000000000    0043dd00     ecma-builtin-helpers-date.obj
 0002:00005ec8       __real@4010000000000000    0043dd08     ecma-builtin-helpers-date.obj
 0002:00005ed0       __real@4014000000000000    0043dd10     ecma-builtin-helpers-date.obj
 0002:00005ed8       __real@4018000000000000    0043dd18     ecma-builtin-helpers-date.obj
 0002:00005ee0       __real@401c000000000000    0043dd20     ecma-builtin-helpers-date.obj
 0002:00005ee8       __real@4022000000000000    0043dd28     ecma-builtin-helpers-date.obj
 0002:00005ef0       __real@4026000000000000    0043dd30     ecma-builtin-helpers-date.obj
 0002:00005ef8       __real@403e000000000000    0043dd38     ecma-builtin-helpers-date.obj
 0002:00005f00       __real@404d000000000000    0043dd40     ecma-builtin-helpers-date.obj
 0002:00005f08       __real@404e000000000000    0043dd48     ecma-builtin-helpers-date.obj
 0002:00005f10       __real@4056400000000000    0043dd50     ecma-builtin-helpers-date.obj
 0002:00005f18       __real@4056800000000000    0043dd58     ecma-builtin-helpers-date.obj
 0002:00005f20       __real@4059000000000000    0043dd60     ecma-builtin-helpers-date.obj
 0002:00005f28       __real@405dc00000000000    0043dd68     ecma-builtin-helpers-date.obj
 0002:00005f30       __real@405e000000000000    0043dd70     ecma-builtin-helpers-date.obj
 0002:00005f38       __real@4062c00000000000    0043dd78     ecma-builtin-helpers-date.obj
 0002:00005f40       __real@4062e00000000000    0043dd80     ecma-builtin-helpers-date.obj
 0002:00005f48       __real@4066800000000000    0043dd88     ecma-builtin-helpers-date.obj
 0002:00005f50       __real@4066a00000000000    0043dd90     ecma-builtin-helpers-date.obj
 0002:00005f58       __real@406a600000000000    0043dd98     ecma-builtin-helpers-date.obj
 0002:00005f60       __real@406a800000000000    0043dda0     ecma-builtin-helpers-date.obj
 0002:00005f68       __real@406e400000000000    0043dda8     ecma-builtin-helpers-date.obj
 0002:00005f70       __real@406e600000000000    0043ddb0     ecma-builtin-helpers-date.obj
 0002:00005f78       __real@4071000000000000    0043ddb8     ecma-builtin-helpers-date.obj
 0002:00005f80       __real@4071100000000000    0043ddc0     ecma-builtin-helpers-date.obj
 0002:00005f88       __real@4072f00000000000    0043ddc8     ecma-builtin-helpers-date.obj
 0002:00005f90       __real@4073000000000000    0043ddd0     ecma-builtin-helpers-date.obj
 0002:00005f98       __real@4074d00000000000    0043ddd8     ecma-builtin-helpers-date.obj
 0002:00005fa0       __real@4074e00000000000    0043dde0     ecma-builtin-helpers-date.obj
 0002:00005fa8       __real@4076d00000000000    0043dde8     ecma-builtin-helpers-date.obj
 0002:00005fb0       __real@4076e00000000000    0043ddf0     ecma-builtin-helpers-date.obj
 0002:00005fb8       __real@4079000000000000    0043ddf8     ecma-builtin-helpers-date.obj
 0002:00005fc0       __real@408f400000000000    0043de00     ecma-builtin-helpers-date.obj
 0002:00005fc8       __real@4099040000000000    0043de08     ecma-builtin-helpers-date.obj
 0002:00005fd0       __real@409db40000000000    0043de10     ecma-builtin-helpers-date.obj
 0002:00005fd8       __real@409ec40000000000    0043de18     ecma-builtin-helpers-date.obj
 0002:00005fe0       __real@409ec80000000000    0043de20     ecma-builtin-helpers-date.obj
 0002:00005fe8       __real@40ed4c0000000000    0043de28     ecma-builtin-helpers-date.obj
 0002:00005ff0       __real@41118d8800000000    0043de30     ecma-builtin-helpers-date.obj
 0002:00005ff8       __real@414b774000000000    0043de38     ecma-builtin-helpers-date.obj
 0002:00006000       __real@4194997000000000    0043de40     ecma-builtin-helpers-date.obj
 0002:00006008       __real@433eb208c2dc0000    0043de48     ecma-builtin-helpers-date.obj
 0002:00006010       __real@c0ed4c0000000000    0043de50     ecma-builtin-helpers-date.obj
 0002:00006018       __real@c1114ff800000000    0043de58     ecma-builtin-helpers-date.obj
 0002:00006020       ??_C@_0CI@NMLIPJMP@ecma_builtin_helper_error_dispa@ 0043de60     ecma-builtin-helpers-error.obj
 0002:00006048       ??_C@_0GH@DOOAJANM@d?3?2hellox?2personal?2hellox_os?2je@ 0043de88     ecma-builtin-helpers-error.obj
 0002:000060b0       ??_C@_0CE@ICAOCNAN@ecma_has_object_value_in_collec@ 0043def0     ecma-builtin-helpers-json.obj
 0002:000060d8       ??_C@_0GG@GHPFEGID@d?3?2hellox?2personal?2hellox_os?2je@ 0043df18     ecma-builtin-helpers-json.obj
 0002:00006140       ??_C@_0CE@OAAEHJID@ecma_is_value_object?5?$CIobject_va@ 0043df80     ecma-builtin-helpers-json.obj
 0002:00006164       ??_C@_0CE@CODLEEAG@ecma_has_string_value_in_collec@ 0043dfa4     ecma-builtin-helpers-json.obj
 0002:00006188       ??_C@_0CE@DGENJIN@ecma_is_value_string?5?$CIstring_va@ 0043dfc8     ecma-builtin-helpers-json.obj
 0002:000061ac       ??_C@_0DG@LOGGEBDG@ecma_builtin_helper_json_create@ 0043dfec     ecma-builtin-helpers-json.obj
 0002:000061e4       ??_C@_0BF@MAAJHDAJ@hex_buff___size?5?$DN?$DN?50@ 0043e024     ecma-builtin-helpers-json.obj
 0002:000061fc       ??_C@_0CD@NLNLCKH@ecma_string_get_length?5?$CIhex_str@ 0043e03c     ecma-builtin-helpers-json.obj
 0002:00006220       ??_C@_0CF@OJHMHOFF@ecma_builtin_helper_object_to_s@ 0043e060     ecma-builtin-helpers.obj
 0002:00006248       ??_C@_0GB@DDHCNMAP@d?3?2hellox?2personal?2hellox_os?2je@ 0043e088     ecma-builtin-helpers.obj
 0002:000062ac       ??_C@_0CA@LNGDLEMD@ecma_is_value_object?5?$CIobj_this?$CJ@ 0043e0ec     ecma-builtin-helpers.obj
 0002:000062cc       ??_C@_0CH@FNDFAIHG@buffer_ptr?5?$DM?$DN?5str_buffer?5?$CL?5buff@ 0043e10c     ecma-builtin-helpers.obj
 0002:000062f4       ??_C@_0BH@OAHPDIMB@str_buffer___size?5?$DN?$DN?50@ 0043e134     ecma-builtin-helpers.obj
 0002:0000630c       ??_C@_0DC@BADIDAGD@ecma_builtin_helper_get_to_loca@ 0043e14c     ecma-builtin-helpers.obj
 0002:00006340       ??_C@_0CK@BMBFEKIN@ecma_builtin_helper_object_get_@ 0043e180     ecma-builtin-helpers.obj
 0002:0000636c       ??_C@_0CA@EHKHGBLO@ecma_is_value_true?5?$CIcompletion?$CJ@ 0043e1ac     ecma-builtin-helpers.obj
 0002:0000638c       ??_C@_0CH@NMNLGKOM@ecma_builtin_helper_array_conca@ 0043e1cc     ecma-builtin-helpers.obj
 0002:000063b4       ??_C@_0CE@CGPGLOCF@ecma_number_is_nan?5?$CIarg_len_num@ 0043e1f4     ecma-builtin-helpers.obj
 0002:000063d8       ??_C@_0DF@OOLEKJGD@ecma_builtin_helper_string_prot@ 0043e218     ecma-builtin-helpers.obj
 0002:00006410       ??_C@_0BN@CLMAALEA@ecma_number_is_nan?5?$CIpos_num?$CJ@ 0043e250     ecma-builtin-helpers.obj
 0002:00006430       ??_C@_0CG@NOMFAFCM@ecma_builtin_helper_string_find@ 0043e270     ecma-builtin-helpers.obj
 0002:00006458       ??_C@_0BK@PPDFGAHI@search_str_utf8_p?5?$CB?$DN?5NULL@ 0043e298     ecma-builtin-helpers.obj
 0002:00006474       ??_C@_0BM@IKINLIBK@original_str_utf8_p?5?$CB?$DN?5NULL@ 0043e2b4     ecma-builtin-helpers.obj
 0002:00006490       _ecma_builtin_json_property_descriptor_list 0043e2d0     ecma-builtin-json.obj
 0002:000064a4       ??_C@_0CD@GBFFGBGD@ecma_builtin_json_dispatch_rout@ 0043e2e4     ecma-builtin-json.obj
 0002:000064c8       ??_C@_0BL@NKJKLECJ@ecma_builtin_json_check_id@ 0043e308     ecma-builtin-json.obj
 0002:000064e8       ??_C@_0FO@FGHMGDEP@d?3?2hellox?2personal?2hellox_os?2je@ 0043e328     ecma-builtin-json.obj
 0002:00006548       ??_C@_0BK@DJAONOAK@?$CKstring_p?5?$DN?$DN?5?$CKstring_id_p@ 0043e388     ecma-builtin-json.obj
 0002:00006564       ??_C@_0BP@GDLBEFOC@ecma_builtin_json_parse_string@ 0043e3a4     ecma-builtin-json.obj
 0002:00006584       ??_C@_0CC@JBFBKMHJ@write_p?5?$DN?$DN?5buffer_p?5?$CL?5buffer_si@ 0043e3c4     ecma-builtin-json.obj
 0002:000065a8       ??_C@_0BF@LBPODOKH@buffer_p___size?5?$CB?$DN?50@ 0043e3e8     ecma-builtin-json.obj
 0002:000065c0       ??_C@_0BF@BEOOEECE@buffer_p___size?5?$DN?$DN?50@ 0043e400     ecma-builtin-json.obj
 0002:000065d8       ??_C@_0BP@KALFOFOO@ecma_builtin_json_parse_number@ 0043e418     ecma-builtin-json.obj
 0002:000065f8       ??_C@_0BC@CIAJABIE@current_p?5?$DM?5end_p@ 0043e438     ecma-builtin-json.obj
 0002:0000660c       ??_C@_04MLLLIHIP@null@     0043e44c     ecma-builtin-json.obj
 0002:00006614       ??_C@_04LOAJBDKD@true@     0043e454     ecma-builtin-json.obj
 0002:0000661c       ??_C@_05LAPONLG@false@     0043e45c     ecma-builtin-json.obj
 0002:00006624       ??_C@_0CI@ILHAIONG@ecma_builtin_json_define_value_@ 0043e464     ecma-builtin-json.obj
 0002:0000664c       ??_C@_0CJ@JNKGKOPM@ecma_is_value_boolean?5?$CIcompleti@ 0043e48c     ecma-builtin-json.obj
 0002:00006678       ??_C@_0BO@NKDMOFNE@ecma_builtin_json_parse_value@ 0043e4b8     ecma-builtin-json.obj
 0002:00006698       ??_C@_0CK@NKIDDOFF@?$CBECMA_IS_VALUE_ERROR?5?$CIarray_con@ 0043e4d8     ecma-builtin-json.obj
 0002:000066c4       ??_C@_0BH@BIBBBJAG@ecma_builtin_json_walk@ 0043e504     ecma-builtin-json.obj
 0002:000066dc       ??_C@_09IJGMPJGL@reviver_p@ 0043e51c     ecma-builtin-json.obj
 0002:000066e8       ??_C@_08PAMOJBHG@holder_p@ 0043e528     ecma-builtin-json.obj
 0002:000066f4       ??_C@_06FPDHGPHA@name_p@   0043e534     ecma-builtin-json.obj
 0002:000066fc       ??_C@_0CD@BEKFAALP@ecma_is_value_boolean?5?$CIdelete_v@ 0043e53c     ecma-builtin-json.obj
 0002:00006720       ??_C@_0BI@EOAHMJBC@ecma_builtin_json_parse@ 0043e560     ecma-builtin-json.obj
 0002:00006738       ??_C@_0BE@INBAKLFM@str_start_p?5?$CB?$DN?5NULL@ 0043e578     ecma-builtin-json.obj
 0002:0000674c       ??_C@_0BM@MBNJCBAM@ecma_builtin_json_stringify@ 0043e58c     ecma-builtin-json.obj
 0002:00006768       ??_C@_0CG@EAJIFAMK@ecma_number_is_nan?5?$CIarray_lengt@ 0043e5a8     ecma-builtin-json.obj
 0002:00006790       ??_C@_0BH@NHEBAFNB@space_buff___size?5?$CB?$DN?50@ 0043e5d0     ecma-builtin-json.obj
 0002:000067a8       ??_C@_0BH@HCFBHPFC@space_buff___size?5?$DN?$DN?50@ 0043e5e8     ecma-builtin-json.obj
 0002:000067c0       ??_C@_0CC@KKPLMEPF@ecma_is_value_true?5?$CIput_comp_va@ 0043e600     ecma-builtin-json.obj
 0002:000067e4       ??_C@_0BI@LHAHLCDC@ecma_builtin_json_quote@ 0043e624     ecma-builtin-json.obj
 0002:000067fc       ??_C@_0BG@DNPAAABE@ecma_builtin_json_str@ 0043e63c     ecma-builtin-json.obj
 0002:00006814       ??_C@_0CB@MDKKNACO@?$CBECMA_IS_VALUE_ERROR?5?$CIret_value@ 0043e654     ecma-builtin-json.obj
 0002:00006838       ??_C@_0BJ@IOMJPMEI@ecma_builtin_json_object@ 0043e678     ecma-builtin-json.obj
 0002:00006854       ??_C@_0CH@JKAGDPAP@ecma_is_property_enumerable?5?$CIpr@ 0043e694     ecma-builtin-json.obj
 0002:0000687c       ??_C@_0CE@JACPCABG@?$CBECMA_IS_VALUE_ERROR?5?$CIstr_comp_@ 0043e6bc     ecma-builtin-json.obj
 0002:000068a0       ??_C@_0BI@FIBINPDN@ecma_builtin_json_array@ 0043e6e0     ecma-builtin-json.obj
 0002:000068b8       _ecma_builtin_math_property_descriptor_list 0043e6f8     ecma-builtin-math.obj
 0002:0000695c       ??_C@_0CD@OEMEHHPM@ecma_builtin_math_dispatch_rout@ 0043e79c     ecma-builtin-math.obj
 0002:00006980       ??_C@_0FO@OPJOAHBO@d?3?2hellox?2personal?2hellox_os?2je@ 0043e7c0     ecma-builtin-math.obj
 0002:000069e0       ??_C@_0CO@KNCMDGPO@builtin_routine_id?5?$DN?$DN?5ECMA_MATH@ 0043e820     ecma-builtin-math.obj
 0002:00006a10       __real@41dfffffff800000    0043e850     ecma-builtin-math.obj
 0002:00006a18       __real@41dfffffffc00000    0043e858     ecma-builtin-math.obj
 0002:00006a20       __real@bfe0000000000000    0043e860     ecma-builtin-math.obj
 0002:00006a28       _ecma_builtin_number_prototype_property_descriptor_list 0043e868     ecma-builtin-number-prototype.obj
 0002:00006a7c       ??_C@_0CP@JHKGPMMN@ecma_builtin_number_prototype_d@ 0043e8bc     ecma-builtin-number-prototype.obj
 0002:00006aac       ??_C@_0CP@BPAGGJCF@ecma_builtin_number_prototype_h@ 0043e8ec     ecma-builtin-number-prototype.obj
 0002:00006ae0       ??_C@_0GK@FCFJFFJM@d?3?2hellox?2personal?2hellox_os?2je@ 0043e920     ecma-builtin-number-prototype.obj
 0002:00006b4c       ??_C@_0BA@KHHKBNBJ@num_digits?5?$DN?$DN?50@ 0043e98c     ecma-builtin-number-prototype.obj
 0002:00006b5c       ??_C@_0CP@ENFOBBNF@ecma_builtin_number_prototype_o@ 0043e99c     ecma-builtin-number-prototype.obj
 0002:00006b8c       ??_C@_0BI@IEPAMPFD@buff_index?5?$DM?$DN?5buff_size@ 0043e9cc     ecma-builtin-number-prototype.obj
 0002:00006ba4       ??_C@_0BB@LMJJEIEC@buff___size?5?$CB?$DN?50@ 0043e9e4     ecma-builtin-number-prototype.obj
 0002:00006bb8       ??_C@_0BB@BJIJDCMB@buff___size?5?$DN?$DN?50@ 0043e9f8     ecma-builtin-number-prototype.obj
 0002:00006bcc       ??_C@_0CO@IIIECAJG@ecma_builtin_number_prototype_o@ 0043ea0c     ecma-builtin-number-prototype.obj
 0002:00006bfc       ??_C@_0DK@PEJJDDCK@ecma_is_value_number?5?$CIext_objec@ 0043ea3c     ecma-builtin-number-prototype.obj
 0002:00006c38       ??_C@_0CO@GIIFEIAK@ecma_builtin_number_prototype_o@ 0043ea78     ecma-builtin-number-prototype.obj
 0002:00006c68       ??_C@_01JOAMLHOP@?9@       0043eaa8     ecma-builtin-number-prototype.obj
 0002:00006c6c       ??_C@_0BA@DMECBBBD@buffer_size?5?$DO?50@ 0043eaac     ecma-builtin-number-prototype.obj
 0002:00006c7c       ??_C@_0BH@PEDOJNL@p?5?9?5buff?5?$DM?5buffer_size@ 0043eabc     ecma-builtin-number-prototype.obj
 0002:00006c94       ??_C@_0DE@HLNFIFHE@ecma_builtin_number_prototype_o@ 0043ead4     ecma-builtin-number-prototype.obj
 0002:00006cc8       ??_C@_0CD@NDGFKMHG@actual_char_p?5?9?5buff?5?$DM?5buffer_s@ 0043eb08     ecma-builtin-number-prototype.obj
 0002:00006cec       ??_C@_0DC@GINFHOMH@ecma_builtin_number_prototype_o@ 0043eb2c     ecma-builtin-number-prototype.obj
 0002:00006d20       __real@4035000000000000    0043eb60     ecma-builtin-number-prototype.obj
 0002:00006d28       __real@4036000000000000    0043eb68     ecma-builtin-number-prototype.obj
 0002:00006d30       __real@43e0000000000000    0043eb70     ecma-builtin-number-prototype.obj
 0002:00006d38       _ecma_builtin_number_property_descriptor_list 0043eb78     ecma-builtin-number.obj
 0002:00006d68       ??_C@_0CF@DKMDDAAA@ecma_builtin_number_dispatch_ro@ 0043eba8     ecma-builtin-number.obj
 0002:00006d90       ??_C@_0CC@CKNOCJMF@ecma_builtin_number_dispatch_ca@ 0043ebd0     ecma-builtin-number.obj
 0002:00006db8       ??_C@_0GA@GDABLGKB@d?3?2hellox?2personal?2hellox_os?2je@ 0043ebf8     ecma-builtin-number.obj
 0002:00006e18       ??_C@_0CH@EBEAAGJI@ecma_builtin_number_dispatch_co@ 0043ec58     ecma-builtin-number.obj
 0002:00006e40       _ecma_builtin_object_prototype_property_descriptor_list 0043ec80     ecma-builtin-object-prototype.obj
 0002:00006e70       ??_C@_0CP@GCDDEOJL@ecma_builtin_object_prototype_d@ 0043ecb0     ecma-builtin-object-prototype.obj
 0002:00006ea0       ??_C@_0DG@GIBMHBHJ@ecma_builtin_object_prototype_o@ 0043ece0     ecma-builtin-object-prototype.obj
 0002:00006ed8       ??_C@_0GK@ENGFJIMC@d?3?2hellox?2personal?2hellox_os?2je@ 0043ed18     ecma-builtin-object-prototype.obj
 0002:00006f48       ??_C@_0EB@EJHANJMN@return_value?5?$DN?$DN?5ecma_make_simpl@ 0043ed88     ecma-builtin-object-prototype.obj
 0002:00006f8c       ??_C@_0DG@OAJBNNPF@ecma_builtin_object_prototype_o@ 0043edcc     ecma-builtin-object-prototype.obj
 0002:00006fc4       ??_C@_0DF@OLJAFIAO@ecma_builtin_object_prototype_o@ 0043ee04     ecma-builtin-object-prototype.obj
 0002:00006ffc       ??_C@_0DM@HLEJLOOI@ecma_builtin_object_prototype_o@ 0043ee3c     ecma-builtin-object-prototype.obj
 0002:00007038       _ecma_builtin_object_property_descriptor_list 0043ee78     ecma-builtin-object.obj
 0002:00007098       ??_C@_0CF@NJOMGFBL@ecma_builtin_object_dispatch_ro@ 0043eed8     ecma-builtin-object.obj
 0002:000070c0       ??_C@_0CC@OLDDPICO@ecma_builtin_object_dispatch_ca@ 0043ef00     ecma-builtin-object.obj
 0002:000070e8       ??_C@_0GA@HAINDOJK@d?3?2hellox?2personal?2hellox_os?2je@ 0043ef28     ecma-builtin-object.obj
 0002:00007148       ??_C@_0CH@PDHHILFG@ecma_builtin_object_dispatch_co@ 0043ef88     ecma-builtin-object.obj
 0002:00007170       ??_C@_0CA@DCMOGFPC@ecma_builtin_object_object_seal@ 0043efb0     ecma-builtin-object.obj
 0002:00007190       ??_C@_0CC@PJADDOEC@ecma_builtin_object_object_free@ 0043efd0     ecma-builtin-object.obj
 0002:000071b4       ??_C@_0DH@NGNOKKAK@ecma_builtin_object_object_get_@ 0043eff4     ecma-builtin-object.obj
 0002:000071ec       ??_C@_0CC@COMHKLLI@ecma_builtin_object_object_crea@ 0043f02c     ecma-builtin-object.obj
 0002:00007210       ??_C@_0CN@PCGOAOOL@ecma_builtin_object_object_defi@ 0043f050     ecma-builtin-object.obj
 0002:00007240       ??_C@_07EOGKKAJF@is_next@  0043f080     ecma-builtin-object.obj
 0002:00007248       ??_C@_0CB@GPMBLHLE@property_descriptors___size?5?$CB?$DN?5@ 0043f088     ecma-builtin-object.obj
 0002:0000726c       ??_C@_0CB@MKNBMNDH@property_descriptors___size?5?$DN?$DN?5@ 0043f0ac     ecma-builtin-object.obj
 0002:00007290       ??_C@_0CL@MPKEOMDO@ecma_builtin_object_object_defi@ 0043f0d0     ecma-builtin-object.obj
 0002:000072bc       _ecma_builtin_range_error_prototype_property_descriptor_list 0043f0fc     ecma-builtin-rangeerror-prototype.obj
 0002:000072d4       ??_C@_0DE@CFEKLEAL@ecma_builtin_range_error_protot@ 0043f114     ecma-builtin-rangeerror-prototype.obj
 0002:00007308       _ecma_builtin_range_error_property_descriptor_list 0043f148     ecma-builtin-rangeerror.obj
 0002:0000731c       ??_C@_0CK@OHELDDJA@ecma_builtin_range_error_dispat@ 0043f15c     ecma-builtin-rangeerror.obj
 0002:00007348       _ecma_builtin_reference_error_prototype_property_descriptor_list 0043f188     ecma-builtin-referenceerror-prototype.obj
 0002:00007360       ??_C@_0DI@EPAJILIL@ecma_builtin_reference_error_pr@ 0043f1a0     ecma-builtin-referenceerror-prototype.obj
 0002:00007398       _ecma_builtin_reference_error_property_descriptor_list 0043f1d8     ecma-builtin-referenceerror.obj
 0002:000073ac       ??_C@_0CO@KIKFHMDF@ecma_builtin_reference_error_di@ 0043f1ec     ecma-builtin-referenceerror.obj
 0002:000073e0       _ecma_builtin_regexp_prototype_property_descriptor_list 0043f220     ecma-builtin-regexp-prototype.obj
 0002:00007424       ??_C@_0CP@LGKBHBOA@ecma_builtin_regexp_prototype_d@ 0043f264     ecma-builtin-regexp-prototype.obj
 0002:00007454       ??_C@_0CG@HPBOGGPC@ecma_builtin_regexp_prototype_c@ 0043f294     ecma-builtin-regexp-prototype.obj
 0002:00007480       ??_C@_0GK@BJKGCMCL@d?3?2hellox?2personal?2hellox_os?2je@ 0043f2c0     ecma-builtin-regexp-prototype.obj
 0002:000074ec       ??_C@_0CF@CAKJJEFP@ecma_is_value_boolean?5?$CIglobal_v@ 0043f32c     ecma-builtin-regexp-prototype.obj
 0002:00007514       ??_C@_0CK@DBNMNOBO@ecma_is_value_boolean?5?$CIignore_c@ 0043f354     ecma-builtin-regexp-prototype.obj
 0002:00007540       ??_C@_0CI@MPGABAMF@ecma_is_value_boolean?5?$CImultilin@ 0043f380     ecma-builtin-regexp-prototype.obj
 0002:00007568       ??_C@_0BO@OICJAKEG@ecma_is_value_empty?5?$CIbc_comp?$CJ@ 0043f3a8     ecma-builtin-regexp-prototype.obj
 0002:00007588       ??_C@_0CD@OCHCGFFH@ecma_builtin_regexp_prototype_e@ 0043f3c8     ecma-builtin-regexp-prototype.obj
 0002:000075ac       ??_C@_0CD@KJAPHD@ecma_builtin_regexp_prototype_t@ 0043f3ec     ecma-builtin-regexp-prototype.obj
 0002:000075d0       ??_C@_0CI@PDJCHABE@ecma_builtin_regexp_prototype_t@ 0043f410     ecma-builtin-regexp-prototype.obj
 0002:000075f8       _ecma_builtin_regexp_property_descriptor_list 0043f438     ecma-builtin-regexp.obj
 0002:0000760c       ??_C@_0CF@CDAGKJDB@ecma_builtin_regexp_dispatch_ro@ 0043f44c     ecma-builtin-regexp.obj
 0002:00007634       ??_C@_0CH@OMODDAP@ecma_builtin_regexp_dispatch_co@ 0043f474     ecma-builtin-regexp.obj
 0002:00007660       ??_C@_0GA@NOECMCKB@d?3?2hellox?2personal?2hellox_os?2je@ 0043f4a0     ecma-builtin-regexp.obj
 0002:000076c0       _ecma_builtin_string_prototype_property_descriptor_list 0043f500     ecma-builtin-string-prototype.obj
 0002:0000774c       ??_C@_0CP@CBLDNFLI@ecma_builtin_string_prototype_d@ 0043f58c     ecma-builtin-string-prototype.obj
 0002:0000777c       ??_C@_0CP@PLELDIKA@ecma_builtin_string_prototype_o@ 0043f5bc     ecma-builtin-string-prototype.obj
 0002:000077b0       ??_C@_0GK@COIPDNKC@d?3?2hellox?2personal?2hellox_os?2je@ 0043f5f0     ecma-builtin-string-prototype.obj
 0002:0000781c       ??_C@_0DK@LNFFAMNL@ecma_is_value_string?5?$CIext_objec@ 0043f65c     ecma-builtin-string-prototype.obj
 0002:00007858       ??_C@_0CN@EHNNKGKF@ecma_builtin_string_prototype_o@ 0043f698     ecma-builtin-string-prototype.obj
 0002:00007888       ??_C@_0BP@OBHFMOMG@ecma_number_is_nan?5?$CIindex_num?$CJ@ 0043f6c8     ecma-builtin-string-prototype.obj
 0002:000078a8       ??_C@_0DC@JOMNFBLH@ecma_builtin_string_prototype_o@ 0043f6e8     ecma-builtin-string-prototype.obj
 0002:000078e0       ??_C@_0GF@CEFFONH@ecma_number_is_nan?5?$CIindex_num?$CJ?5@ 0043f720     ecma-builtin-string-prototype.obj
 0002:00007948       ??_C@_0CM@FGLBNGNG@ecma_builtin_string_prototype_o@ 0043f788     ecma-builtin-string-prototype.obj
 0002:00007974       ??_C@_0DE@JNGPHDPA@ecma_builtin_string_prototype_o@ 0043f7b4     ecma-builtin-string-prototype.obj
 0002:000079a8       ??_C@_0CL@DOCGJDLD@ecma_builtin_string_prototype_o@ 0043f7e8     ecma-builtin-string-prototype.obj
 0002:000079d4       ??_C@_0CE@GONIIFKO@?$CBecma_is_value_empty?5?$CIregexp_va@ 0043f814     ecma-builtin-string-prototype.obj
 0002:000079f8       ??_C@_0CC@KFCEGPIJ@ecma_is_value_object?5?$CIexec_valu@ 0043f838     ecma-builtin-string-prototype.obj
 0002:00007a1c       ??_C@_0DL@MCLBIJNK@ecma_builtin_string_prototype_o@ 0043f85c     ecma-builtin-string-prototype.obj
 0002:00007a58       ??_C@_0N@LOOAEEIH@start?5?$DM?$DN?5end@ 0043f898     ecma-builtin-string-prototype.obj
 0002:00007a68       ??_C@_0DC@MPHGJEMF@end?5?$DM?$DN?5ecma_string_get_length?5?$CI@ 0043f8a8     ecma-builtin-string-prototype.obj
 0002:00007a9c       ??_C@_0DD@OOGBDANC@ecma_builtin_string_prototype_o@ 0043f8dc     ecma-builtin-string-prototype.obj
 0002:00007ad0       ??_C@_0CD@ICKKCMDL@ecma_is_value_object?5?$CImatch_val@ 0043f910     ecma-builtin-string-prototype.obj
 0002:00007af4       ??_C@_0CD@POECPOMK@ecma_is_value_number?5?$CIindex_val@ 0043f934     ecma-builtin-string-prototype.obj
 0002:00007b18       ??_C@_0CL@OHGKAME@ecma_is_value_string?5?$CIresult_st@ 0043f958     ecma-builtin-string-prototype.obj
 0002:00007b48       ??_C@_0EP@CLENBMEN@?$CIecma_length_t?$CJ?5ecma_number_to_@ 0043f988     ecma-builtin-string-prototype.obj
 0002:00007b98       ??_C@_0BG@HNOGFKNE@?$CBcontext_p?9?$DOis_global@ 0043f9d8     ecma-builtin-string-prototype.obj
 0002:00007bb0       ??_C@_0DI@OLHDICKO@ecma_builtin_string_prototype_o@ 0043f9f0     ecma-builtin-string-prototype.obj
 0002:00007be8       ??_C@_0CK@MEMKGMCI@ecma_is_value_number?5?$CImatch_len@ 0043fa28     ecma-builtin-string-prototype.obj
 0002:00007c18       ??_C@_0EM@CFIANGLF@?$CIecma_length_t?$CJ?5ecma_number_to_@ 0043fa58     ecma-builtin-string-prototype.obj
 0002:00007c64       ??_C@_0BC@DPPFDEFB@match_length?5?$DO?$DN?51@ 0043faa4     ecma-builtin-string-prototype.obj
 0002:00007c78       ??_C@_0BL@IMDFIPIP@arguments_list___size?5?$CB?$DN?50@ 0043fab8     ecma-builtin-string-prototype.obj
 0002:00007c94       ??_C@_0BL@CJCFPFAM@arguments_list___size?5?$DN?$DN?50@ 0043fad4     ecma-builtin-string-prototype.obj
 0002:00007cb0       ??_C@_0EP@JDBFJJIO@action?5?$DN?$DN?5LIT_CHAR_AMPERSAND?5?$HM?$HM@ 0043faf0     ecma-builtin-string-prototype.obj
 0002:00007d00       ??_C@_0CC@KKDJMILI@index?5?$DO?50?5?$CG?$CG?5index?5?$DM?5match_leng@ 0043fb40     ecma-builtin-string-prototype.obj
 0002:00007d24       ??_C@_0CG@HAKAECOH@ecma_is_value_string?5?$CIsubmatch_@ 0043fb64     ecma-builtin-string-prototype.obj
 0002:00007d4c       ??_C@_0DC@IABLEEOI@ecma_builtin_string_prototype_o@ 0043fb8c     ecma-builtin-string-prototype.obj
 0002:00007d80       ??_C@_0BF@EBLCIMMH@context_p?9?$DOis_regexp@ 0043fbc0     ecma-builtin-string-prototype.obj
 0002:00007d98       ??_C@_0DC@INGIFJAG@ecma_builtin_string_prototype_o@ 0043fbd8     ecma-builtin-string-prototype.obj
 0002:00007dcc       ??_C@_0BI@MAKDLGNG@replace_start_p?5?$CB?$DN?5NULL@ 0043fc0c     ecma-builtin-string-prototype.obj
 0002:00007de4       ??_C@_0CN@MBOIHGOB@ecma_builtin_string_prototype_o@ 0043fc24     ecma-builtin-string-prototype.obj
 0002:00007e14       ??_C@_0CM@BPPCEHGG@ecma_builtin_string_prototype_o@ 0043fc54     ecma-builtin-string-prototype.obj
 0002:00007e40       ??_C@_0CE@GOCGLECN@ecma_is_value_object?5?$CImatch_res@ 0043fc80     ecma-builtin-string-prototype.obj
 0002:00007e64       ??_C@_0CL@OILHMFOG@ecma_builtin_string_prototype_o@ 0043fca4     ecma-builtin-string-prototype.obj
 0002:00007e90       ??_C@_0CA@LBFGHLN@ecma_builtin_helper_split_match@ 0043fcd0     ecma-builtin-string-prototype.obj
 0002:00007eb0       ??_C@_0EI@KAKPEHNE@ecma_is_value_string?5?$CIinput_str@ 0043fcf0     ecma-builtin-string-prototype.obj
 0002:00007ef8       ??_C@_0CL@CEDHOJJB@ecma_builtin_string_prototype_o@ 0043fd38     ecma-builtin-string-prototype.obj
 0002:00007f24       ??_C@_0BP@EOFCLAJN@ecma_number_is_nan?5?$CIlimit_num?$CJ@ 0043fd64     ecma-builtin-string-prototype.obj
 0002:00007f44       ??_C@_0CI@JIGHPHGJ@?$CBECMA_IS_VALUE_ERROR?5?$CImatch_com@ 0043fd84     ecma-builtin-string-prototype.obj
 0002:00007f6c       ??_C@_0P@EPOEAKMH@index_num?5?$DO?$DN?50@ 0043fdac     ecma-builtin-string-prototype.obj
 0002:00007f7c       ??_C@_0CP@DOLBKNJK@ecma_builtin_string_prototype_o@ 0043fdbc     ecma-builtin-string-prototype.obj
 0002:00007fac       ??_C@_0DH@HDJBCJHH@ecma_builtin_string_prototype_o@ 0043fdec     ecma-builtin-string-prototype.obj
 0002:00007fe8       ??_C@_0EL@NMFEBICJ@character_length?5?$DO?$DN?51?5?$CG?$CG?5charac@ 0043fe28     ecma-builtin-string-prototype.obj
 0002:00008034       ??_C@_0BG@IHGHHL@input_start_p?5?$CB?$DN?5NULL@ 0043fe74     ecma-builtin-string-prototype.obj
 0002:0000804c       ??_C@_0CK@KOKMJBKC@ecma_builtin_string_prototype_o@ 0043fe8c     ecma-builtin-string-prototype.obj
 0002:00008078       ??_C@_0CM@EKHMBHGG@ecma_builtin_string_prototype_o@ 0043feb8     ecma-builtin-string-prototype.obj
 0002:000080a4       ??_C@_0BJ@KEMJLLLM@ecma_number_is_nan?5?$CIlen?$CJ@ 0043fee4     ecma-builtin-string-prototype.obj
 0002:000080c0       _ecma_builtin_string_property_descriptor_list 0043ff00     ecma-builtin-string.obj
 0002:000080d8       ??_C@_0CF@NAMOJGHD@ecma_builtin_string_dispatch_ro@ 0043ff18     ecma-builtin-string.obj
 0002:00008100       ??_C@_0CK@NGBOFKHK@ecma_builtin_string_object_from@ 0043ff40     ecma-builtin-string.obj
 0002:00008130       ??_C@_0GA@BJGCJJEB@d?3?2hellox?2personal?2hellox_os?2je@ 0043ff70     ecma-builtin-string.obj
 0002:00008190       ??_C@_0EB@GBGJALCH@utf8_buf_used?5?$DM?$DN?5utf8_buf_size?5@ 0043ffd0     ecma-builtin-string.obj
 0002:000081d4       ??_C@_0BP@EOFLAANF@utf8_buf_used?5?$DM?$DN?5utf8_buf_size@ 00440014     ecma-builtin-string.obj
 0002:000081f4       ??_C@_0BH@PMJFCBCP@utf8_buf_p___size?5?$CB?$DN?50@ 00440034     ecma-builtin-string.obj
 0002:0000820c       ??_C@_0BH@FJIFFLKM@utf8_buf_p___size?5?$DN?$DN?50@ 0044004c     ecma-builtin-string.obj
 0002:00008224       ??_C@_0CC@CIHCKHAE@ecma_builtin_string_dispatch_ca@ 00440064     ecma-builtin-string.obj
 0002:00008248       ??_C@_0CH@HKOHMAHN@ecma_builtin_string_dispatch_co@ 00440088     ecma-builtin-string.obj
 0002:00008270       _ecma_builtin_syntax_error_prototype_property_descriptor_list 004400b0     ecma-builtin-syntaxerror-prototype.obj
 0002:00008288       ??_C@_0DF@CDANJGCK@ecma_builtin_syntax_error_proto@ 004400c8     ecma-builtin-syntaxerror-prototype.obj
 0002:000082c0       _ecma_builtin_syntax_error_property_descriptor_list 00440100     ecma-builtin-syntaxerror.obj
 0002:000082d4       ??_C@_0CL@JFCPCLHE@ecma_builtin_syntax_error_dispa@ 00440114     ecma-builtin-syntaxerror.obj
 0002:00008300       _ecma_builtin_type_error_thrower_property_descriptor_list 00440140     ecma-builtin-type-error-thrower.obj
 0002:0000830c       ??_C@_0DB@LMHAOAEE@ecma_builtin_type_error_thrower@ 0044014c     ecma-builtin-type-error-thrower.obj
 0002:00008340       ??_C@_0CO@IJNAJOHM@ecma_builtin_type_error_thrower@ 00440180     ecma-builtin-type-error-thrower.obj
 0002:00008370       ??_C@_0GM@PBDOAEK@d?3?2hellox?2personal?2hellox_os?2je@ 004401b0     ecma-builtin-type-error-thrower.obj
 0002:000083dc       ??_C@_0DD@FDIGNIPO@ecma_builtin_type_error_thrower@ 0044021c     ecma-builtin-type-error-thrower.obj
 0002:00008410       _ecma_builtin_type_error_prototype_property_descriptor_list 00440250     ecma-builtin-typeerror-prototype.obj
 0002:00008428       ??_C@_0DD@MAMELNPC@ecma_builtin_type_error_prototy@ 00440268     ecma-builtin-typeerror-prototype.obj
 0002:0000845c       _ecma_builtin_type_error_property_descriptor_list 0044029c     ecma-builtin-typeerror.obj
 0002:00008470       ??_C@_0CJ@NOLHAIHD@ecma_builtin_type_error_dispatc@ 004402b0     ecma-builtin-typeerror.obj
 0002:0000849c       _ecma_builtin_uri_error_prototype_property_descriptor_list 004402dc     ecma-builtin-urierror-prototype.obj
 0002:000084b4       ??_C@_0DC@HMMEJKCE@ecma_builtin_uri_error_prototyp@ 004402f4     ecma-builtin-urierror-prototype.obj
 0002:000084e8       _ecma_builtin_uri_error_property_descriptor_list 00440328     ecma-builtin-urierror.obj
 0002:000084fc       ??_C@_0CI@PANDCIPL@ecma_builtin_uri_error_dispatch@ 0044033c     ecma-builtin-urierror.obj
 0002:00008608       ??_C@_0BA@LEKLHLD@ecma_builtin_is@ 00440448     ecma-builtins.obj
 0002:00008618       ??_C@_0FK@HDDMFJJJ@d?3?2hellox?2personal?2hellox_os?2je@ 00440458     ecma-builtins.obj
 0002:00008674       ??_C@_0DG@BMICGILH@obj_p?5?$CB?$DN?5NULL?5?$CG?$CG?5?$CBecma_is_lexic@ 004404b4     ecma-builtins.obj
 0002:000086ac       ??_C@_0CE@GBDLNELK@builtin_id?5?$DM?5ECMA_BUILTIN_ID__C@ 004404ec     ecma-builtins.obj
 0002:000086d0       ??_C@_0BB@OBEELMIC@ecma_builtin_get@ 00440510     ecma-builtins.obj
 0002:000086e4       ??_C@_0CB@EBJBNHGM@ecma_builtin_function_is_routin@ 00440524     ecma-builtins.obj
 0002:00008708       ??_C@_0DP@GKONPPIA@ecma_get_object_type?5?$CIfunc_obj_@ 00440548     ecma-builtins.obj
 0002:00008748       ??_C@_0CI@GOPLMBCO@ecma_get_object_is_builtin?5?$CIfun@ 00440588     ecma-builtins.obj
 0002:00008770       ??_C@_0BJ@KIMFBPNM@ecma_builtin_init_object@ 004405b0     ecma-builtins.obj
 0002:0000878c       ??_C@_0BM@LNGBINMJ@property_count?5?$DM?$DN?5?$CI32?5?$CL?564?$CJ@ 004405cc     ecma-builtins.obj
 0002:000087a8       ??_C@_0CD@ICEAJGCL@obj_type?5?$DN?$DN?5ECMA_OBJECT_TYPE_AR@ 004405e8     ecma-builtins.obj
 0002:000087cc       ??_C@_0CD@LHLJHJCG@obj_type?5?$DN?$DN?5ECMA_OBJECT_TYPE_CL@ 0044060c     ecma-builtins.obj
 0002:000087f0       ??_C@_0CD@GCFGJJDM@obj_type?5?$CB?$DN?5ECMA_OBJECT_TYPE_CL@ 00440630     ecma-builtins.obj
 0002:00008814       ??_C@_0BJ@MHDAIKJI@ecma_instantiate_builtin@ 00440654     ecma-builtins.obj
 0002:00008830       ??_C@_0FO@CICHNKIK@d?3?2hellox?2personal?2hellox_os?2je@ 00440670     ecma-builtins.obj
 0002:00008890       ??_C@_0EP@HKDPHID@JERRY_CONTEXT?5?$CIecma_builtin_obj@ 004406d0     ecma-builtins.obj
 0002:000088e0       ??_C@_0BI@JGOFPABJ@prototype_obj_p?5?$CB?$DN?5NULL@ 00440720     ecma-builtins.obj
 0002:000088f8       ??_C@_0EF@GJNNOKJP@JERRY_CONTEXT?5?$CIecma_builtin_obj@ 00440738     ecma-builtins.obj
 0002:00008940       ??_C@_0EO@PKMGEPFN@JERRY_CONTEXT?5?$CIecma_builtin_obj@ 00440780     ecma-builtins.obj
 0002:00008990       ??_C@_0EE@JJDKCBAM@JERRY_CONTEXT?5?$CIecma_builtin_obj@ 004407d0     ecma-builtins.obj
 0002:000089d8       ??_C@_0EP@IODDLMKI@JERRY_CONTEXT?5?$CIecma_builtin_obj@ 00440818     ecma-builtins.obj
 0002:00008a28       ??_C@_0EF@CIKKHEPB@JERRY_CONTEXT?5?$CIecma_builtin_obj@ 00440868     ecma-builtins.obj
 0002:00008a70       ??_C@_0FA@BKJMBAFB@JERRY_CONTEXT?5?$CIecma_builtin_obj@ 004408b0     ecma-builtins.obj
 0002:00008ac0       ??_C@_0EG@OJJEJCOB@JERRY_CONTEXT?5?$CIecma_builtin_obj@ 00440900     ecma-builtins.obj
 0002:00008b08       ??_C@_0EP@LFJEHKEN@JERRY_CONTEXT?5?$CIecma_builtin_obj@ 00440948     ecma-builtins.obj
 0002:00008b58       ??_C@_0EF@HOACIGA@JERRY_CONTEXT?5?$CIecma_builtin_obj@ 00440998     ecma-builtins.obj
 0002:00008ba0       ??_C@_0FB@IOLJCAPP@JERRY_CONTEXT?5?$CIecma_builtin_obj@ 004409e0     ecma-builtins.obj
 0002:00008bf8       ??_C@_0EH@CPMODCF@JERRY_CONTEXT?5?$CIecma_builtin_obj@ 00440a38     ecma-builtins.obj
 0002:00008c40       ??_C@_0ED@BJEOELOO@JERRY_CONTEXT?5?$CIecma_builtin_obj@ 00440a80     ecma-builtins.obj
 0002:00008c88       ??_C@_0ED@DNOHHBAO@JERRY_CONTEXT?5?$CIecma_builtin_obj@ 00440ac8     ecma-builtins.obj
 0002:00008cd0       ??_C@_0EN@FLGJDLHJ@JERRY_CONTEXT?5?$CIecma_builtin_obj@ 00440b10     ecma-builtins.obj
 0002:00008d20       ??_C@_0ED@HMIMPJKJ@JERRY_CONTEXT?5?$CIecma_builtin_obj@ 00440b60     ecma-builtins.obj
 0002:00008d68       ??_C@_0EP@PKBKEPNK@JERRY_CONTEXT?5?$CIecma_builtin_obj@ 00440ba8     ecma-builtins.obj
 0002:00008db8       ??_C@_0EF@GHBINDGJ@JERRY_CONTEXT?5?$CIecma_builtin_obj@ 00440bf8     ecma-builtins.obj
 0002:00008e00       ??_C@_0EE@NJFGBADF@JERRY_CONTEXT?5?$CIecma_builtin_obj@ 00440c40     ecma-builtins.obj
 0002:00008e48       ??_C@_0EO@JECFPCLD@JERRY_CONTEXT?5?$CIecma_builtin_obj@ 00440c88     ecma-builtins.obj
 0002:00008e98       ??_C@_0FD@LAEKADLJ@JERRY_CONTEXT?5?$CIecma_builtin_obj@ 00440cd8     ecma-builtins.obj
 0002:00008ef0       ??_C@_0EJ@NEGAJIKJ@JERRY_CONTEXT?5?$CIecma_builtin_obj@ 00440d30     ecma-builtins.obj
 0002:00008f40       ??_C@_0FE@FLAANBIL@JERRY_CONTEXT?5?$CIecma_builtin_obj@ 00440d80     ecma-builtins.obj
 0002:00008f98       ??_C@_0EK@CENLANGA@JERRY_CONTEXT?5?$CIecma_builtin_obj@ 00440dd8     ecma-builtins.obj
 0002:00008fe8       ??_C@_0FI@CFOFHFAE@JERRY_CONTEXT?5?$CIecma_builtin_obj@ 00440e28     ecma-builtins.obj
 0002:00009040       ??_C@_0EO@MCIDLLDM@JERRY_CONTEXT?5?$CIecma_builtin_obj@ 00440e80     ecma-builtins.obj
 0002:00009090       ??_C@_0FF@BNEHLKOA@JERRY_CONTEXT?5?$CIecma_builtin_obj@ 00440ed0     ecma-builtins.obj
 0002:000090e8       ??_C@_0EL@JMDHJPND@JERRY_CONTEXT?5?$CIecma_builtin_obj@ 00440f28     ecma-builtins.obj
 0002:00009138       ??_C@_0FD@BGJIPBKK@JERRY_CONTEXT?5?$CIecma_builtin_obj@ 00440f78     ecma-builtins.obj
 0002:00009190       ??_C@_0EJ@LCBJPACA@JERRY_CONTEXT?5?$CIecma_builtin_obj@ 00440fd0     ecma-builtins.obj
 0002:000091e0       ??_C@_0FC@MNNHNLNM@JERRY_CONTEXT?5?$CIecma_builtin_obj@ 00441020     ecma-builtins.obj
 0002:00009238       ??_C@_0EI@FIOMLFPA@JERRY_CONTEXT?5?$CIecma_builtin_obj@ 00441078     ecma-builtins.obj
 0002:00009280       ??_C@_0FB@MPGFCNFC@JERRY_CONTEXT?5?$CIecma_builtin_obj@ 004410c0     ecma-builtins.obj
 0002:000092d8       ??_C@_0FE@PPNPAGIO@JERRY_CONTEXT?5?$CIecma_builtin_obj@ 00441118     ecma-builtins.obj
 0002:00009330       ??_C@_0EK@GOGIGJJG@JERRY_CONTEXT?5?$CIecma_builtin_obj@ 00441170     ecma-builtins.obj
 0002:00009380       ??_C@_0EF@PGGDLOIB@JERRY_CONTEXT?5?$CIecma_builtin_obj@ 004411c0     ecma-builtins.obj
 0002:000093c8       ??_C@_0BM@JNBOBBLF@id?5?$DM?5ECMA_BUILTIN_ID__COUNT@ 00441208     ecma-builtins.obj
 0002:000093e4       ??_C@_0CO@KNAEADPF@ecma_builtin_make_function_obje@ 00441224     ecma-builtins.obj
 0002:00009414       ??_C@_0DG@LAAABFLG@length_prop_value?5?$DM?5?$CI1?5?$DM?$DM?5ECMA_@ 00441254     ecma-builtins.obj
 0002:0000944c       ??_C@_0CF@BGNLIDLO@routine_id?5?$DO?$DN?5ECMA_BUILTIN_ID__@ 0044128c     ecma-builtins.obj
 0002:00009474       ??_C@_0CJ@LFJBLHAL@ecma_builtin_try_to_instantiate@ 004412b4     ecma-builtins.obj
 0002:000094a0       ??_C@_0CG@PFOCPBEH@ecma_get_object_is_builtin?5?$CIobj@ 004412e0     ecma-builtins.obj
 0002:000094c8       ??_C@_0CH@JLFDFANF@ecma_builtin_is?5?$CIobject_p?0?5buil@ 00441308     ecma-builtins.obj
 0002:000094f0       ??_C@_0CG@NDFDFGHK@ecma_builtin_list_lazy_property@ 00441330     ecma-builtins.obj
 0002:00009518       ??_C@_0BO@KKIOJP@ecma_builtin_dispatch_routine@ 00441358     ecma-builtins.obj
 0002:00009538       ??_C@_0BL@HFMDMFCG@ecma_builtin_dispatch_call@ 00441378     ecma-builtins.obj
 0002:00009554       ??_C@_0DK@FFKMCIJD@ecma_get_object_type?5?$CIobj_p?$CJ?5?$DN?$DN@ 00441394     ecma-builtins.obj
 0002:00009590       ??_C@_0CD@OOENDGPP@ecma_get_object_is_builtin?5?$CIobj@ 004413d0     ecma-builtins.obj
 0002:000095b4       ??_C@_0CB@KBKOLMFN@?$CBecma_is_value_empty?5?$CIret_value@ 004413f4     ecma-builtins.obj
 0002:000095d8       ??_C@_0CA@JLEADEKP@ecma_builtin_dispatch_construct@ 00441418     ecma-builtins.obj
 0002:000095f8       ??_C@_0BM@OFLIDKOM@ecma_op_create_array_object@ 00441438     ecma-array-object.obj
 0002:00009618       ??_C@_0FJ@LGDFDMKK@d?3?2hellox?2personal?2hellox_os?2je@ 00441458     ecma-array-object.obj
 0002:00009674       ??_C@_0CA@BIAGHDPC@ecma_op_array_object_set_length@ 004414b4     ecma-array-object.obj
 0002:00009698       ??_C@_0EH@OFCBJFJM@?$CBECMA_IS_VALUE_ERROR?5?$CIcompletio@ 004414d8     ecma-array-object.obj
 0002:000096e0       ??_C@_0CJ@MLBMIOFH@ecma_op_array_object_define_own@ 00441520     ecma-array-object.obj
 0002:00009710       ??_C@_0EO@NMBLONEL@property_desc_p?9?$DOis_configurabl@ 00441550     ecma-array-object.obj
 0002:00009760       ??_C@_0EK@HLKADBPF@property_desc_p?9?$DOis_enumerable_@ 004415a0     ecma-array-object.obj
 0002:000097b0       ??_C@_0EG@MIKDAOIF@property_desc_p?9?$DOis_writable_de@ 004415f0     ecma-array-object.obj
 0002:000097f8       ??_C@_0CF@FKLDHPJB@ecma_is_value_boolean?5?$CIcompleti@ 00441638     ecma-array-object.obj
 0002:00009820       ??_C@_0CH@DNPEMCII@ecma_op_array_list_lazy_propert@ 00441660     ecma-array-object.obj
 0002:00009848       ??_C@_0DH@KDCPNNGO@ecma_get_object_type?5?$CIobj_p?$CJ?5?$DN?$DN@ 00441688     ecma-array-object.obj
 0002:00009880       ??_C@_0CC@JPENEJHC@ecma_op_create_arraybuffer_obje@ 004416c0     ecma-arraybuffer-object.obj
 0002:000098a8       ??_C@_0FP@MEJGONIO@d?3?2hellox?2personal?2hellox_os?2je@ 004416e8     ecma-arraybuffer-object.obj
 0002:00009908       ??_C@_0DI@DDIFMNEE@ret?5?$DN?$DN?5ecma_make_simple_value?5?$CI@ 00441748     ecma-arraybuffer-object.obj
 0002:00009940       ??_C@_0BJ@IMFGABBK@ecma_number_is_nan?5?$CInum?$CJ@ 00441780     ecma-arraybuffer-object.obj
 0002:0000995c       ??_C@_0BM@NBPLEMAG@ecma_arraybuffer_get_length@ 0044179c     ecma-arraybuffer-object.obj
 0002:00009978       ??_C@_0EC@HJEDBBJI@ecma_object_class_is?5?$CIobject_p?0@ 004417b8     ecma-arraybuffer-object.obj
 0002:000099bc       ??_C@_0BM@KHBHCKPI@ecma_arraybuffer_get_buffer@ 004417fc     ecma-arraybuffer-object.obj
 0002:000099d8       ??_C@_0CC@JEMBIHAI@ecma_op_abstract_equality_compa@ 00441818     ecma-comparison.obj
 0002:00009a00       ??_C@_0FH@CLDPPGKP@d?3?2hellox?2personal?2hellox_os?2je@ 00441840     ecma-comparison.obj
 0002:00009a58       ??_C@_0CJ@PEHLAFOH@is_x_equal_to_y?5?$DN?$DN?5is_x_equal_t@ 00441898     ecma-comparison.obj
 0002:00009a84       ??_C@_0CA@ECBFKPIH@ecma_op_strict_equality_compare@ 004418c4     ecma-comparison.obj
 0002:00009aa8       ??_C@_0JE@MGOOMNK@?$CBecma_is_value_direct?5?$CIx?$CJ?5?$HM?$HM?5ec@ 004418e8     ecma-comparison.obj
 0002:00009b40       ??_C@_0JE@MCDDBCIN@?$CBecma_is_value_direct?5?$CIy?$CJ?5?$HM?$HM?5ec@ 00441980     ecma-comparison.obj
 0002:00009bd4       ??_C@_0DF@DFEFLNBC@ecma_is_value_number?5?$CIx?$CJ?5?$HM?$HM?5ecm@ 00441a14     ecma-comparison.obj
 0002:00009c0c       ??_C@_0DF@DKGADPPE@ecma_is_value_number?5?$CIy?$CJ?5?$HM?$HM?5ecm@ 00441a4c     ecma-comparison.obj
 0002:00009c44       ??_C@_0CE@PNJFECLH@ecma_op_abstract_relational_com@ 00441a84     ecma-comparison.obj
 0002:00009c68       ??_C@_0DK@PFMELHF@?$CBecma_number_is_nan?5?$CInx?$CJ?5?$CG?$CG?5?$CBec@ 00441aa8     ecma-comparison.obj
 0002:00009ca4       ??_C@_0DK@JLOOPFNH@?$CBecma_number_is_nan?5?$CIny?$CJ?5?$CG?$CG?5?$CBec@ 00441ae4     ecma-comparison.obj
 0002:00009ce0       ??_C@_0DI@NADHENJI@?$CB?$CIecma_number_is_zero?5?$CInx?$CJ?5?$CG?$CG?5e@ 00441b20     ecma-comparison.obj
 0002:00009d18       ??_C@_0CL@FFIMOKAA@is_x_less_than_y_check?5?$DN?$DN?5is_x_@ 00441b58     ecma-comparison.obj
 0002:00009d44       ??_C@_0BI@FKMAACFH@ecma_number_is_nan?5?$CIny?$CJ@ 00441b84     ecma-comparison.obj
 0002:00009d5c       ??_C@_0BI@FLACGIGA@ecma_number_is_nan?5?$CInx?$CJ@ 00441b9c     ecma-comparison.obj
 0002:00009d74       ??_C@_0BD@IELLLOKK@ecma_op_same_value@ 00441bb4     ecma-conversion.obj
 0002:00009d88       ??_C@_0FH@IDMMFDJI@d?3?2hellox?2personal?2hellox_os?2je@ 00441bc8     ecma-conversion.obj
 0002:00009de0       ??_C@_0M@DPAJDFJC@is_x_object@ 00441c20     ecma-conversion.obj
 0002:00009dec       ??_C@_0BD@EILCNFIK@ecma_op_to_boolean@ 00441c2c     ecma-conversion.obj
 0002:00009e00       ??_C@_0FP@NKEEJCFG@ecma_is_value_boolean?5?$CIvalue?$CJ?5?$HM@ 00441c40     ecma-conversion.obj
 0002:00009e60       ??_C@_0BN@NHDJMBNP@ecma_is_value_object?5?$CIvalue?$CJ@ 00441ca0     ecma-conversion.obj
 0002:00009e80       ??_C@_0BC@DEPEKDLA@ecma_op_to_number@ 00441cc0     ecma-conversion.obj
 0002:00009e94       ??_C@_0BC@PHPAADLM@ecma_op_to_string@ 00441cd4     ecma-conversion.obj
 0002:00009ea8       ??_C@_0BC@PBHAKFLK@ecma_op_to_object@ 00441ce8     ecma-conversion.obj
 0002:00009ebc       ??_C@_0CB@CFBALEGI@ecma_op_from_property_descripto@ 00441cfc     ecma-conversion.obj
 0002:00009ee0       ??_C@_0ED@NODLCPAF@src_prop_desc_p?9?$DOis_get_defined@ 00441d20     ecma-conversion.obj
 0002:00009f24       ??_C@_0BP@FCAFLDDI@ecma_op_to_property_descriptor@ 00441d64     ecma-conversion.obj
 0002:00009f44       ??_C@_0CA@JMMNECKL@ecma_is_value_empty?5?$CIret_value?$CJ@ 00441d84     ecma-conversion.obj
 0002:00009f64       ??_C@_0CG@IEIPBIFA@ecma_is_value_object?5?$CIget_prop_@ 00441da4     ecma-conversion.obj
 0002:00009f8c       ??_C@_0CG@LGJJGKEJ@ecma_is_value_object?5?$CIset_prop_@ 00441dcc     ecma-conversion.obj
 0002:00009fb4       ??_C@_0N@DDLFAOMB@ecma_op_eval@ 00441df4     ecma-eval.obj
 0002:00009fc8       ??_C@_0FB@IENAAFLK@d?3?2hellox?2personal?2hellox_os?2je@ 00441e08     ecma-eval.obj
 0002:0000a01c       ??_C@_0BL@MEONHFND@code_utf8_buffer_p?5?$CB?$DN?5NULL@ 00441e5c     ecma-eval.obj
 0002:0000a038       ??_C@_0BK@FCICHNME@ecma_op_eval_chars_buffer@ 00441e78     ecma-eval.obj
 0002:0000a054       ??_C@_0P@IFPLKDCN@code_p?5?$CB?$DN?5NULL@ 00441e94     ecma-eval.obj
 0002:0000a070       ??_C@_0BE@PEFMDMLL@ecma_op_is_callable@ 00441eb0     ecma-function-object.obj
 0002:0000a088       ??_C@_0FM@PGIGLJDF@d?3?2hellox?2personal?2hellox_os?2je@ 00441ec8     ecma-function-object.obj
 0002:0000a0e4       ??_C@_0CF@MLEEHFA@?$CBecma_is_lexical_environment?5?$CIo@ 00441f24     ecma-function-object.obj
 0002:0000a10c       ??_C@_0BE@OAPJDCOL@ecma_is_constructor@ 00441f4c     ecma-function-object.obj
 0002:0000a120       ??_C@_0CP@JGMKLOEK@ecma_op_function_try_lazy_insta@ 00441f60     ecma-function-object.obj
 0002:0000a150       ??_C@_0CH@MEANMLFB@?$CBecma_get_object_is_builtin?5?$CIob@ 00441f90     ecma-function-object.obj
 0002:0000a178       ??_C@_0BO@HPIIHIMJ@ecma_op_function_has_instance@ 00441fb8     ecma-function-object.obj
 0002:0000a198       ??_C@_0EA@DNADGEJB@func_obj_p?5?$CB?$DN?5NULL?5?$CG?$CG?5?$CBecma_is_@ 00441fd8     ecma-function-object.obj
 0002:0000a1d8       ??_C@_0EF@OMGGJBCK@ecma_get_object_type?5?$CIfunc_obj_@ 00442018     ecma-function-object.obj
 0002:0000a220       ??_C@_0BG@JPCHJEBL@ecma_op_function_call@ 00442060     ecma-function-object.obj
 0002:0000a238       ??_C@_0DK@FIAMBCKN@ecma_op_is_callable?5?$CIecma_make_@ 00442078     ecma-function-object.obj
 0002:0000a274       ??_C@_0CE@MCEDKFBH@?$CBECMA_IS_VALUE_ERROR?5?$CIthis_bind@ 004420b4     ecma-function-object.obj
 0002:0000a298       ??_C@_0BP@ENFNLNDB@merged_args_list_p___size?5?$CB?$DN?50@ 004420d8     ecma-function-object.obj
 0002:0000a2b8       ??_C@_0BP@OIENMHLC@merged_args_list_p___size?5?$DN?$DN?50@ 004420f8     ecma-function-object.obj
 0002:0000a2d8       ??_C@_0CO@GIJEEIGE@ecma_op_function_construct_simp@ 00442118     ecma-function-object.obj
 0002:0000a308       ??_C@_0IK@BHFBECIF@ecma_get_object_type?5?$CIfunc_obj_@ 00442148     ecma-function-object.obj
 0002:0000a394       ??_C@_0BL@LLDKEDEF@ecma_op_function_construct@ 004421d4     ecma-function-object.obj
 0002:0000a3b0       ??_C@_0DK@CKPOKHPP@ecma_is_constructor?5?$CIecma_make_@ 004421f0     ecma-function-object.obj
 0002:0000a3ec       ??_C@_0BP@FHDCLCAC@ecma_op_get_value_lex_env_base@ 0044222c     ecma-get-put-value.obj
 0002:0000a410       ??_C@_0FK@INOJDHHN@d?3?2hellox?2personal?2hellox_os?2je@ 00442250     ecma-get-put-value.obj
 0002:0000a470       ??_C@_0EP@DLFKGFEH@ref_base_lex_env_p?5?$CB?$DN?5NULL?5?$CG?$CG?5e@ 004422b0     ecma-get-put-value.obj
 0002:0000a4c0       ??_C@_0BO@MMGCOBKA@ecma_op_get_value_object_base@ 00442300     ecma-get-put-value.obj
 0002:0000a4e0       ??_C@_0GN@LCOEGOEN@ecma_is_value_boolean?5?$CIbase_val@ 00442320     ecma-get-put-value.obj
 0002:0000a550       ??_C@_0DM@CEFNFICC@object_p?5?$CB?$DN?5NULL?5?$CG?$CG?5?$CBecma_is_le@ 00442390     ecma-get-put-value.obj
 0002:0000a58c       ??_C@_0BP@IJAOOGKB@ecma_op_put_value_lex_env_base@ 004423cc     ecma-get-put-value.obj
 0002:0000a5ac       ??_C@_0BE@LLCLOKJE@ecma_op_has_binding@ 004423ec     ecma-lex-env.obj
 0002:0000a5c0       ??_C@_0FE@HEOFMOLA@d?3?2hellox?2personal?2hellox_os?2je@ 00442400     ecma-lex-env.obj
 0002:0000a614       ??_C@_0DN@MJFJJLPG@lex_env_p?5?$CB?$DN?5NULL?5?$CG?$CG?5ecma_is_le@ 00442454     ecma-lex-env.obj
 0002:0000a658       ??_C@_0JO@GFNDILJA@ecma_get_lex_env_type?5?$CIlex_env_@ 00442498     ecma-lex-env.obj
 0002:0000a6f8       ??_C@_0BP@GGLENOHP@ecma_op_create_mutable_binding@ 00442538     ecma-lex-env.obj
 0002:0000a718       ??_C@_0BM@IGNEENMN@ecma_op_set_mutable_binding@ 00442558     ecma-lex-env.obj
 0002:0000a734       ??_C@_0BK@LFNBJNKK@ecma_op_get_binding_value@ 00442574     ecma-lex-env.obj
 0002:0000a750       ??_C@_0BH@JCGJDMH@ecma_op_delete_binding@ 00442590     ecma-lex-env.obj
 0002:0000a768       ??_C@_0EB@KIKEHEMI@ECMA_PROPERTY_GET_TYPE?5?$CI?$CKprop_p@ 004425a8     ecma-lex-env.obj
 0002:0000a7ac       ??_C@_0BM@OMJFHCGE@ecma_op_implicit_this_value@ 004425ec     ecma-lex-env.obj
 0002:0000a7c8       ??_C@_0CB@IMDLHGCP@ecma_op_create_immutable_bindin@ 00442608     ecma-lex-env.obj
 0002:0000a7f0       ??_C@_0EK@NDGOMIGE@ecma_get_lex_env_type?5?$CIlex_env_@ 00442630     ecma-lex-env.obj
 0002:0000a83c       ??_C@_0CA@PILFJDEP@ecma_op_create_arguments_object@ 0044267c     ecma-objects-arguments.obj
 0002:0000a860       ??_C@_0FO@HLPIJAHP@d?3?2hellox?2personal?2hellox_os?2je@ 004426a0     ecma-objects-arguments.obj
 0002:0000a8c0       ??_C@_0CB@LPPGLOCK@ecma_is_value_empty?5?$CIcompletion@ 00442700     ecma-objects-arguments.obj
 0002:0000a8e4       ??_C@_0CN@LLKOGDLD@ecma_op_arguments_object_define@ 00442724     ecma-objects-arguments.obj
 0002:0000a914       ??_C@_0CA@CFBGMGBB@ecma_op_arguments_object_delete@ 00442754     ecma-objects-arguments.obj
 0002:0000a934       ??_C@_0CC@NBIFOEDP@ecma_is_value_boolean?5?$CIret_valu@ 00442774     ecma-objects-arguments.obj
 0002:0000a958       ??_C@_0CB@MIJGFOOJ@ecma_op_create_object_object_ar@ 00442798     ecma-objects-general.obj
 0002:0000a980       ??_C@_0FM@DFIODFGC@d?3?2hellox?2personal?2hellox_os?2je@ 004427c0     ecma-objects-general.obj
 0002:0000a9dc       ??_C@_0DO@CMJDNPAN@ecma_is_value_undefined?5?$CIvalue?$CJ@ 0044281c     ecma-objects-general.obj
 0002:0000aa1c       ??_C@_0BO@JGBEKBHK@ecma_op_general_object_delete@ 0044285c     ecma-objects-general.obj
 0002:0000aa3c       ??_C@_0BI@DCEAIOIL@property_name_p?5?$CB?$DN?5NULL@ 0044287c     ecma-objects-general.obj
 0002:0000aa54       ??_C@_0CF@DBHCEPGF@ecma_op_general_object_default_@ 00442894     ecma-objects-general.obj
 0002:0000aa7c       ??_C@_0CL@DDPDAKDC@ecma_op_general_object_define_o@ 004428bc     ecma-objects-general.obj
 0002:0000aaa8       ??_C@_0EF@OLJOJMEH@?$CBproperty_desc_p?9?$DOis_get_define@ 004428e8     ecma-objects-general.obj
 0002:0000aaf0       ??_C@_0GH@GGDEHLP@property_desc_type?5?$DN?$DN?5ECMA_PROP@ 00442930     ecma-objects-general.obj
 0002:0000ab58       ??_C@_0FG@BGFBAKIP@property_desc_p?9?$DOis_value_defin@ 00442998     ecma-objects-general.obj
 0002:0000abb0       ??_C@_0KK@HPBLPDOG@current_property_type?5?$DN?$DN?5ECMA_P@ 004429f0     ecma-objects-general.obj
 0002:0000ac60       ??_C@_0EG@ODJLIIEO@?$CBis_current_configurable?5?$CG?$CG?5?$CBec@ 00442aa0     ecma-objects-general.obj
 0002:0000aca8       ??_C@_0DG@EHAOECAK@current_property_type?5?$DN?$DN?5ECMA_P@ 00442ae8     ecma-objects-general.obj
 0002:0000ace0       ??_C@_0DK@OICACGP@current_property_type?5?$DN?$DN?5ECMA_P@ 00442b20     ecma-objects-general.obj
 0002:0000ad20       ??_C@_0FG@JDJKPHNG@ECMA_PROPERTY_GET_TYPE?5?$CI?$CKext_pr@ 00442b60     ecma-objects-general.obj
 0002:0000ad78       ??_C@_0FK@DFAGGBGG@ECMA_PROPERTY_GET_TYPE?5?$CI?$CKext_pr@ 00442bb8     ecma-objects-general.obj
 0002:0000add4       ??_C@_0CA@HOFANOPJ@ecma_op_object_get_own_property@ 00442c14     ecma-objects.obj
 0002:0000adf8       ??_C@_0FE@HJBOIJDO@d?3?2hellox?2personal?2hellox_os?2je@ 00442c38     ecma-objects.obj
 0002:0000ae50       ??_C@_0EC@FJGNNCKA@options?5?$DN?$DN?5ECMA_PROPERTY_GET_NO@ 00442c90     ecma-objects.obj
 0002:0000ae94       ??_C@_0BI@HIAJPPP@ecma_op_object_find_own@ 00442cd4     ecma-objects.obj
 0002:0000aeb0       ??_C@_0EJ@JHNGLNKH@ECMA_PROPERTY_GET_TYPE?5?$CI?$CKproper@ 00442cf0     ecma-objects.obj
 0002:0000aefc       ??_C@_0CB@FCLBHBAE@ecma_op_object_get_own_data_pro@ 00442d3c     ecma-objects.obj
 0002:0000af20       ??_C@_0IL@FBJGCGFO@property_p?5?$CB?$DN?5NULL?5?$CG?$CG?5ECMA_PROP@ 00442d60     ecma-objects.obj
 0002:0000afac       ??_C@_0BD@NKANJNJB@ecma_op_object_put@ 00442dec     ecma-objects.obj
 0002:0000afc0       ??_C@_0DC@LGLHMIBE@ecma_is_value_undefined?5?$CInew_pr@ 00442e00     ecma-objects.obj
 0002:0000aff4       ??_C@_0BG@MBNCGEKN@ecma_op_object_delete@ 00442e34     ecma-objects.obj
 0002:0000b00c       ??_C@_0BN@COLMNHMJ@ecma_op_object_default_value@ 00442e4c     ecma-objects.obj
 0002:0000b030       ??_C@_0BLB@PAHDACBG@ecma_get_object_type?5?$CIobj_p?$CJ?5?$DN?$DN@ 00442e70     ecma-objects.obj
 0002:0000b1e4       ??_C@_0CD@DNLDMKAO@ecma_op_object_define_own_prope@ 00443024     ecma-objects.obj
 0002:0000b208       ??_C@_0CL@GBLJEMIB@ecma_op_object_get_own_property@ 00443048     ecma-objects.obj
 0002:0000b234       ??_C@_0CD@HOEKADDP@type?5?$DN?$DN?5ECMA_PROPERTY_TYPE_VIRT@ 00443074     ecma-objects.obj
 0002:0000b258       ??_C@_0BM@GOAFPGOH@ecma_op_object_has_instance@ 00443098     ecma-objects.obj
 0002:0000b274       ??_C@_0CC@CMGGBIPC@ecma_op_object_get_property_nam@ 004430b4     ecma-objects.obj
 0002:0000b298       ??_C@_0EB@CLAKDDIL@is_enumerable_only?5?$CG?$CG?5?$CBecma_is_@ 004430d8     ecma-objects.obj
 0002:0000b2dc       ??_C@_0DK@JBJHIOJO@array_index_name_pos?5?$DM?5array_in@ 0044311c     ecma-objects.obj
 0002:0000b318       ??_C@_0CF@BKEAFOLN@insertion_pos?5?$DM?5array_index_nam@ 00443158     ecma-objects.obj
 0002:0000b340       ??_C@_0CM@FHIEPNJJ@index?5?$DO?$DN?5array_index_names_p?$FLin@ 00443180     ecma-objects.obj
 0002:0000b370       ??_C@_0FP@OBAJIGCC@name_pos?5?$DO?50?5?$CG?$CG?5name_pos?5?$DM?$DN?5arr@ 004431b0     ecma-objects.obj
 0002:0000b3d0       ??_C@_0O@PKLJEHAJ@name_pos?5?$DN?$DN?50@ 00443210     ecma-objects.obj
 0002:0000b3e0       ??_C@_0CA@ELPGAFBL@array_index_names_p___size?5?$CB?$DN?50@ 00443220     ecma-objects.obj
 0002:0000b400       ??_C@_0CA@OOOGHPJI@array_index_names_p___size?5?$DN?$DN?50@ 00443240     ecma-objects.obj
 0002:0000b420       ??_C@_0DP@JEGGNIPK@?$CInames_hashes_bitmap?$FLbitmap_row@ 00443260     ecma-objects.obj
 0002:0000b460       ??_C@_0BE@LDPHFABM@names_p___size?5?$CB?$DN?50@ 004432a0     ecma-objects.obj
 0002:0000b474       ??_C@_0BE@BGOHCKJP@names_p___size?5?$DN?$DN?50@ 004432b4     ecma-objects.obj
 0002:0000b488       ??_C@_0BL@CEIMPGEN@ecma_object_get_class_name@ 004432c8     ecma-objects.obj
 0002:0000b4a4       ??_C@_0CB@MMKIBCNE@type?5?$DN?$DN?5ECMA_OBJECT_TYPE_GENERA@ 004432e4     ecma-objects.obj
 0002:0000b4c8       ??_C@_0DA@PEIKMMMK@ecma_builtin_is?5?$CIobj_p?0?5ECMA_BU@ 00443308     ecma-objects.obj
 0002:0000b4f8       ??_C@_0BP@DDJHBOIH@ecma_op_resolve_reference_base@ 00443338     ecma-reference.obj
 0002:0000b518       ??_C@_0FG@EDOKGHNI@d?3?2hellox?2personal?2hellox_os?2je@ 00443358     ecma-reference.obj
 0002:0000b570       ??_C@_0BC@PPIDMCIN@lex_env_p?5?$CB?$DN?5NULL@ 004433b0     ecma-reference.obj
 0002:0000b584       ??_C@_0CA@OHHOLKEL@ecma_op_resolve_reference_value@ 004433c4     ecma-reference.obj
 0002:0000b5a4       ??_C@_0BG@LNONAMLJ@re_parse_regexp_flags@ 004433e4     ecma-regexp-object.obj
 0002:0000b5c0       ??_C@_0FK@PEAILLAA@d?3?2hellox?2personal?2hellox_os?2je@ 00443400     ecma-regexp-object.obj
 0002:0000b61c       ??_C@_0BG@DLKANJLK@flags_start_p?5?$CB?$DN?5NULL@ 0044345c     ecma-regexp-object.obj
 0002:0000b634       ??_C@_0BF@PDLMNBAI@re_set_data_property@ 00443474     ecma-regexp-object.obj
 0002:0000b650       ??_C@_0GP@PMGHECHG@ECMA_PROPERTY_GET_TYPE?5?$CIpropert@ 00443490     ecma-regexp-object.obj
 0002:0000b6c0       ??_C@_0CL@BCDAHFIF@ecma_op_create_regexp_object_fr@ 00443500     ecma-regexp-object.obj
 0002:0000b6ec       ??_C@_0BD@PCNHMAOA@bytecode_p?5?$CB?$DN?5NULL@ 0044352c     ecma-regexp-object.obj
 0002:0000b700       ??_C@_0BN@BBFOBBKE@ecma_op_create_regexp_object@ 00443540     ecma-regexp-object.obj
 0002:0000b720       ??_C@_0BC@GLGLAPNL@pattern_p?5?$CB?$DN?5NULL@ 00443560     ecma-regexp-object.obj
 0002:0000b734       ??_C@_0BM@OGJCBNLJ@Execute?5RE_OP_MATCH?3?5match?6@ 00443574     ecma-regexp-object.obj
 0002:0000b750       ??_C@_0BO@JDGOCLDH@Character?5matching?5?$CFd?5to?5?$CFd?3?5@ 00443590     ecma-regexp-object.obj
 0002:0000b770       ??_C@_05MJMOIOKB@fail?6@   004435b0     ecma-regexp-object.obj
 0002:0000b778       ??_C@_06NCLALNKL@match?6@  004435b8     ecma-regexp-object.obj
 0002:0000b780       ??_C@_0BM@GPBAIJJM@Period?5matching?5?8?4?8?5to?5?$CFu?3?5@ 004435c0     ecma-regexp-object.obj
 0002:0000b79c       ??_C@_0BN@OHKJIFJJ@Execute?5RE_OP_ASSERT_START?3?5@ 004435dc     ecma-regexp-object.obj
 0002:0000b7bc       ??_C@_0BL@KKAPDDLE@Execute?5RE_OP_ASSERT_END?3?5@ 004435fc     ecma-regexp-object.obj
 0002:0000b7d8       ??_C@_0CF@CDDDKIIH@Execute?5RE_OP_ASSERT_WORD_BOUND@ 00443618     ecma-regexp-object.obj
 0002:0000b800       ??_C@_0BA@NPODNDNJ@re_match_regexp@ 00443640     ecma-regexp-object.obj
 0002:0000b810       ??_C@_0CF@EPAENJO@op?5?$DN?$DN?5RE_OP_ASSERT_NOT_WORD_BOU@ 00443650     ecma-regexp-object.obj
 0002:0000b838       ??_C@_0CJ@DGHPNOHG@Execute?5RE_OP_ASSERT_NOT_WORD_B@ 00443678     ecma-regexp-object.obj
 0002:0000b864       ??_C@_0CC@KFOLOENF@Execute?5RE_OP_LOOKAHEAD_POS?1NEG@ 004436a4     ecma-regexp-object.obj
 0002:0000b888       ??_C@_0CE@DEDKOIBE@ecma_is_value_boolean?5?$CImatch_va@ 004436c8     ecma-regexp-object.obj
 0002:0000b8ac       ??_C@_0BI@DJMMCLNJ@saved_bck_p___size?5?$CB?$DN?50@ 004436ec     ecma-regexp-object.obj
 0002:0000b8c4       ??_C@_0BI@JMNMFBFK@saved_bck_p___size?5?$DN?$DN?50@ 00443704     ecma-regexp-object.obj
 0002:0000b8dc       ??_C@_0DA@FFLNGLBO@Execute?5RE_OP_CHAR_CLASS?1RE_OP_@ 0044371c     ecma-regexp-object.obj
 0002:0000b90c       ??_C@_0CP@MENGJIFJ@num_of_ranges?$DN?$CFu?0?5ch1?$DN?$CFu?0?5ch2?$DN?$CF@ 0044374c     ecma-regexp-object.obj
 0002:0000b93c       ??_C@_0BL@NJEGHBGB@op?5?$DN?$DN?5RE_OP_INV_CHAR_CLASS@ 0044377c     ecma-regexp-object.obj
 0002:0000b958       ??_C@_0CI@KMBLFIIO@Execute?5RE_OP_BACKREFERENCE?5?$CIid@ 00443798     ecma-regexp-object.obj
 0002:0000b980       ??_C@_0EA@KJPHOGPF@backref_idx?5?$DO?$DN?52?5?$CG?$CG?5backref_idx@ 004437c0     ecma-regexp-object.obj
 0002:0000b9c0       ??_C@_0BN@PHOCFJIG@Execute?5RE_OP_SAVE_AT_START?6@ 00443800     ecma-regexp-object.obj
 0002:0000b9e0       ??_C@_0CC@NICONCNH@End?5of?5pattern?5is?5reached?3?5matc@ 00443820     ecma-regexp-object.obj
 0002:0000ba04       ??_C@_0BK@GMODNEBF@Execute?5RE_OP_ALTERNATIVE@ 00443844     ecma-regexp-object.obj
 0002:0000ba20       ??_C@_0L@LMHAOCFI@?0?5jump?3?5?$CFu@ 00443860     ecma-regexp-object.obj
 0002:0000ba2c       ??_C@_0CL@OBJIKOAC@start_idx?5?$DM?$DN?5re_ctx_p?9?$DOnum_of_c@ 0044386c     ecma-regexp-object.obj
 0002:0000ba58       ??_C@_0CK@OOOJBGAO@start_idx?5?$DM?5re_ctx_p?9?$DOnum_of_no@ 00443898     ecma-regexp-object.obj
 0002:0000ba84       ??_C@_08MKPMCDFM@end_bc_p@ 004438c4     ecma-regexp-object.obj
 0002:0000ba90       ??_C@_0CJ@LFONNDCL@end_idx?5?$DM?$DN?5re_ctx_p?9?$DOnum_of_cap@ 004438d0     ecma-regexp-object.obj
 0002:0000babc       ??_C@_0CJ@DGHFPOI@end_idx?5?$DM?$DN?5re_ctx_p?9?$DOnum_of_non@ 004438fc     ecma-regexp-object.obj
 0002:0000bae8       ??_C@_0DD@NPOHLGLH@Non?9greedy?5iterator?0?5min?$DN?$CFlu?0?5m@ 00443928     ecma-regexp-object.obj
 0002:0000bb1c       ??_C@_0CP@PCBGHAIE@Greedy?5iterator?0?5min?$DN?$CFlu?0?5max?$DN?$CF@ 0044395c     ecma-regexp-object.obj
 0002:0000bb4c       ??_C@_0BG@GJPBALAP@UNKNOWN?5opcode?5?$CI?$CFu?$CJ?$CB?6@ 0044398c     ecma-regexp-object.obj
 0002:0000bb64       ??_C@_0BI@EEEOKLIH@ecma_regexp_exec_helper@ 004439a4     ecma-regexp-object.obj
 0002:0000bb7c       ??_C@_0CE@FADCBJBB@ecma_is_value_object?5?$CIregexp_va@ 004439bc     ecma-regexp-object.obj
 0002:0000bba0       ??_C@_0CE@CEHDNJHL@ecma_is_value_string?5?$CIinput_str@ 004439e0     ecma-regexp-object.obj
 0002:0000bbc8       ??_C@_0ED@LFOHBNDA@ecma_object_class_is?5?$CIregexp_ob@ 00443a08     ecma-regexp-object.obj
 0002:0000bc0c       ??_C@_0DN@CFLIKGGA@Exec?5with?5flags?5?$FLglobal?3?5?$CFd?0?5ig@ 00443a4c     ecma-regexp-object.obj
 0002:0000bc4c       ??_C@_0CA@PKJKHNLN@re_ctx?4num_of_captures?5?$CF?52?5?$DN?$DN?50@ 00443a8c     ecma-regexp-object.obj
 0002:0000bc6c       ??_C@_0CD@OBGDBELG@ecma_number_is_nan?5?$CIlastindex_n@ 00443aac     ecma-regexp-object.obj
 0002:0000bc90       ??_C@_0CG@NNCHHHFO@?$CBecma_is_value_object?5?$CIcapture_@ 00443ad0     ecma-regexp-object.obj
 0002:0000bcb8       ??_C@_0BK@EKODDBFN@num_of_iter_p___size?5?$CB?$DN?50@ 00443af8     ecma-regexp-object.obj
 0002:0000bcd4       ??_C@_0BK@OPPDELNO@num_of_iter_p___size?5?$DN?$DN?50@ 00443b14     ecma-regexp-object.obj
 0002:0000bcf0       ??_C@_0BE@CNMKBEAJ@saved_p___size?5?$CB?$DN?50@ 00443b30     ecma-regexp-object.obj
 0002:0000bd04       ??_C@_0BE@IINKGOIK@saved_p___size?5?$DN?$DN?50@ 00443b44     ecma-regexp-object.obj
 0002:0000bd18       ??_C@_0BH@DAFNBFIN@input_buffer_p?5?$CB?$DN?5NULL@ 00443b58     ecma-regexp-object.obj
 0002:0000bd30       ??_C@_0BN@JJHAFJLB@ecma_op_create_string_object@ 00443b70     ecma-string-object.obj
 0002:0000bd50       ??_C@_0FK@LLLKBMJI@d?3?2hellox?2personal?2hellox_os?2je@ 00443b90     ecma-string-object.obj
 0002:0000bdac       ??_C@_0CI@HIEAGJHA@ecma_is_value_string?5?$CIto_str_ar@ 00443bec     ecma-string-object.obj
 0002:0000bdd4       ??_C@_0CI@HJILLCHG@ecma_op_string_list_lazy_proper@ 00443c14     ecma-string-object.obj
 0002:0000bdfc       ??_C@_0DH@JGNGDCGD@ecma_get_object_type?5?$CIobj_p?$CJ?5?$DN?$DN@ 00443c3c     ecma-string-object.obj
 0002:0000be38       ??_C@_0EC@CJOJMJMK@ext_object_p?9?$DOu?4class_prop?4clas@ 00443c78     ecma-string-object.obj
 0002:0000be7c       ??_C@_09MLGAJAED@undefined@ 00443cbc     entry.obj
 0002:0000be88       ??_C@_06EBGNBFIA@number@   00443cc8     entry.obj
 0002:0000be90       ??_C@_0BG@HJGPFOJH@Mem?5allocate?5error?4?$AN?6@ 00443cd0     entry.obj
 0002:0000bea8       ??_C@_02DKCKIIND@?$CFs@    00443ce8     entry.obj
 0002:0000beac       ??_C@_0M@LFNHLJLD@?$FLJS?5object?$FN@ 00443cec     entry.obj
 0002:0000beb8       ??_C@_02PCIJFNDE@?$AN?6@   00443cf8     entry.obj
 0002:0000bebc       ??_C@_02LLMPMKNF@?$DO?5@   00443cfc     entry.obj
 0002:0000bec0       ??_C@_0CE@HFLIBACC@Failed?5to?5allocate?5script?5buffe@ 00443d00     entry.obj
 0002:0000bee4       ??_C@_0CP@MAKOGAEG@Get?5user?5script?5OK?$FLlen?5?$DN?5?$CFd?$FN?0be@ 00443d24     entry.obj
 0002:0000bf14       ??_C@_0CB@LHPEGPAA@Unhandled?5JS?5exception?5occured?3@ 00443d54     entry.obj
 0002:0000bf38       ??_C@_0BO@JIDMIFDA@Fatal?5error?5with?5code?5?$DN?5?$CFd?4?$AN?6@ 00443d78     hellox-port.obj
 0002:0000bf58       ??_C@_0BL@DGHCKBMM@JERRY_LOG?$FLlevel?5?$DN?5?$CFd?$FN?3?$CFs?$AN?6@ 00443d98     hellox-port.obj
 0002:0000bf78       __real@3c91a62633145c07    00443db8     acos.obj
 0002:0000bf80       __real@3f023de10dfdf709    00443dc0     acos.obj
 0002:0000bf88       __real@3f49efe07501b288    00443dc8     acos.obj
 0002:0000bf90       __real@3fa48228b5688f3b    00443dd0     acos.obj
 0002:0000bf98       __real@3fb3b8c5b12e9282    00443dd8     acos.obj
 0002:0000bfa0       __real@3fc5555555555555    00443de0     acos.obj
 0002:0000bfa8       __real@3fc9c1550e884455    00443de8     acos.obj
 0002:0000bfb0       __real@3fd4d61203eb6f7d    00443df0     acos.obj
 0002:0000bfb8       __real@3fe6066c1b8d0159    00443df8     acos.obj
 0002:0000bfc0       __real@3ff921fb54442d18    00443e00     acos.obj
 0002:0000bfc8       __real@40002ae59c598ac8    00443e08     acos.obj
 0002:0000bfd0       __real@40033a271c8a2d4b    00443e10     acos.obj
 0002:0000bfd8       __real@400921fb54442d18    00443e18     acos.obj
 0002:0000bfe0       __real@3fe921fb54442d18    00443e20     asin.obj
 0002:0000bfe8       __real@7e37e43c8800759c    00443e28     asin.obj
 0002:0000c030       __real@3f90ad3ae322da11    00443e70     atan.obj
 0002:0000c038       __real@3fa2b4442c6a6c2f    00443e78     atan.obj
 0002:0000c040       __real@3fa97b4b24760deb    00443e80     atan.obj
 0002:0000c048       __real@3fb10d66a0d03d51    00443e88     atan.obj
 0002:0000c050       __real@3fb3b0f2af749a6d    00443e90     atan.obj
 0002:0000c058       __real@3fb745cdc54c206e    00443e98     atan.obj
 0002:0000c060       __real@3fbc71c6fe231671    00443ea0     atan.obj
 0002:0000c068       __real@3fc24924920083ff    00443ea8     atan.obj
 0002:0000c070       __real@3fc999999998ebc4    00443eb0     atan.obj
 0002:0000c078       __real@3fd555555555550d    00443eb8     atan.obj
 0002:0000c080       __real@3ff8000000000000    00443ec0     atan.obj
 0002:0000c088       __real@bfadde2d52defd9a    00443ec8     atan.obj
 0002:0000c090       __real@bff921fb54442d18    00443ed0     atan.obj
 0002:0000c098       __real@3ca1a62633145c07    00443ed8     atan2.obj
 0002:0000c0a0       __real@4002d97c7f3321d2    00443ee0     atan2.obj
 0002:0000c0a8       __real@bfe921fb54442d18    00443ee8     atan2.obj
 0002:0000c0b0       __real@c002d97c7f3321d2    00443ef0     atan2.obj
 0002:0000c0b8       __real@c00921fb54442d18    00443ef8     atan2.obj
 0002:0000c0f0       __real@0170000000000000    00443f30     exp.obj
 0002:0000c0f8       __real@3dea39ef35793c76    00443f38     exp.obj
 0002:0000c100       __real@3e66376972bea4d0    00443f40     exp.obj
 0002:0000c108       __real@3ebbbd41c5d26bf1    00443f48     exp.obj
 0002:0000c110       __real@3f11566aaf25de2c    00443f50     exp.obj
 0002:0000c118       __real@3f66c16c16bebd93    00443f58     exp.obj
 0002:0000c120       __real@3fc555555555553e    00443f60     exp.obj
 0002:0000c128       __real@3fe62e42fee00000    00443f68     exp.obj
 0002:0000c130       __real@3ff71547652b82fe    00443f70     exp.obj
 0002:0000c138       __real@40862e42fefa39ef    00443f78     exp.obj
 0002:0000c140       __real@c0874910d52d3051    00443f80     exp.obj
 0002:0000c148       ??_C@_0DC@FADMLJML@?$AN?6BUG?5oencountered?4?$AN?6File?5name?3@ 00443f88     kapi.obj
 0002:0000c190       __real@01a56e1fc2f8f359    00443fd0     pow.obj
 0002:0000c198       __real@3c971547652b82fe    00443fd8     pow.obj
 0002:0000c1a0       __real@3e205c610ca86c39    00443fe0     pow.obj
 0002:0000c1a8       __real@3e3e2fe0145b01f5    00443fe8     pow.obj
 0002:0000c1b0       __real@3e4cfdeb43cfd006    00443ff0     pow.obj
 0002:0000c1b8       __real@3e54ae0bf85ddf44    00443ff8     pow.obj
 0002:0000c1c0       __real@3fca7e284a454eef    00444000     pow.obj
 0002:0000c1c8       __real@3fcd864a93c9db65    00444008     pow.obj
 0002:0000c1d0       __real@3fd17460a91d4101    00444010     pow.obj
 0002:0000c1d8       __real@3fd55555518f264d    00444018     pow.obj
 0002:0000c1e0       __real@3fd5555555555555    00444020     pow.obj
 0002:0000c1e8       __real@3fdb6db6db6fabff    00444028     pow.obj
 0002:0000c1f0       __real@3fe2b80340000000    00444030     pow.obj
 0002:0000c1f8       __real@3fe3333333333303    00444038     pow.obj
 0002:0000c200       __real@3fe62e42fefa39ef    00444040     pow.obj
 0002:0000c208       __real@3fe62e4300000000    00444048     pow.obj
 0002:0000c210       __real@3feec709dc3a03fd    00444050     pow.obj
 0002:0000c218       __real@3feec709e0000000    00444058     pow.obj
 0002:0000c220       __real@3ff7154760000000    00444060     pow.obj
 0002:0000c228       __real@4340000000000000    00444068     pow.obj
 0002:0000c230       __real@3c90000000000000    00444070     scalbn.obj
 0002:0000c238       __real@4350000000000000    00444078     scalbn.obj
 0002:0000c240       ??_C@_0CF@DLEKIKA@0123456789abcdefghijklmnopqrstu@ 00444080     stdio.obj
 0002:0000c268       ??_C@_0CF@GDODPGFN@0123456789ABCDEFGHIJKLMNOPQRSTU@ 004440a8     stdio.obj
 0002:0000c290       ??_C@_06CBHGEMFM@?$DMNULL?$DO@ 004440d0     stdio.obj
 0002:0000c298       ??_C@_0EE@DLIJJDFG@d?3?2hellox?2personal?2hellox_os?2je@ 004440d8     sysmem.obj
 0002:0000c2dc       ___dnames                  0044411c     time.obj
 0002:0000c2f4       ___mnames                  00444134     time.obj
 0002:0000c4f8       __real@397b839a252049c1    00444338     trig.obj
 0002:0000c500       __real@3ba3198a2e000000    00444340     trig.obj
 0002:0000c508       __real@3ba3198a2e037073    00444348     trig.obj
 0002:0000c510       __real@3c81a62633145c07    00444350     trig.obj
 0002:0000c518       __real@3da8fae9be8838d4    00444358     trig.obj
 0002:0000c520       __real@3dd0b4611a600000    00444360     trig.obj
 0002:0000c528       __real@3dd0b4611a626331    00444368     trig.obj
 0002:0000c530       __real@3de5d93a5acfd57c    00444370     trig.obj
 0002:0000c538       __real@3e21ee9ebdb4b1c4    00444378     trig.obj
 0002:0000c540       __real@3e5ae5e68a2b9ceb    00444380     trig.obj
 0002:0000c548       __real@3e70000000000000    00444388     trig.obj
 0002:0000c550       __real@3e927e4f809c52ad    00444390     trig.obj
 0002:0000c558       __real@3ec71de357b1fe7d    00444398     trig.obj
 0002:0000c560       __real@3ef375cbdb605373    004443a0     trig.obj
 0002:0000c568       __real@3efa01a019cb1590    004443a8     trig.obj
 0002:0000c570       __real@3efb2a7074bf7ad4    004443b0     trig.obj
 0002:0000c578       __real@3f12b80f32f0a7e9    004443b8     trig.obj
 0002:0000c580       __real@3f147e88a03792a6    004443c0     trig.obj
 0002:0000c588       __real@3f2a01a019c161d5    004443c8     trig.obj
 0002:0000c590       __real@3f3026f71a8d1068    004443d0     trig.obj
 0002:0000c598       __real@3f4344d8f2f26501    004443d8     trig.obj
 0002:0000c5a0       __real@3f56c16c16c15177    004443e0     trig.obj
 0002:0000c5a8       __real@3f57dbc8fee08315    004443e8     trig.obj
 0002:0000c5b0       __real@3f6d6d22c9560328    004443f0     trig.obj
 0002:0000c5b8       __real@3f8111111110f8a6    004443f8     trig.obj
 0002:0000c5c0       __real@3f8226e3e96e8493    00444400     trig.obj
 0002:0000c5c8       __real@3f9664f48406d637    00444408     trig.obj
 0002:0000c5d0       __real@3fa555555555554c    00444410     trig.obj
 0002:0000c5d8       __real@3faba1ba1bb341fe    00444418     trig.obj
 0002:0000c5e0       __real@3fc0000000000000    00444420     trig.obj
 0002:0000c5e8       __real@3fc111111110fe7a    00444428     trig.obj
 0002:0000c5f0       __real@3fc5555555555549    00444430     trig.obj
 0002:0000c5f8       __real@3fd2000000000000    00444438     trig.obj
 0002:0000c600       __real@3fd5555555555563    00444440     trig.obj
 0002:0000c608       __real@3fe45f306dc9c883    00444448     trig.obj
 0002:0000c610       __real@3ff921fb54400000    00444450     trig.obj
 0002:0000c618       __real@4170000000000000    00444458     trig.obj
 0002:0000c620       __real@bfc5555555555549    00444460     trig.obj
 0002:0000c628       ??_C@_0BL@IBNEJIKD@jerry_assert_api_available@ 00444468     jerry.obj
 0002:0000c644       ??_C@_0DN@GKCCHAJC@d?3?2hellox?2personal?2hellox_os?2je@ 00444484     jerry.obj
 0002:0000c684       ??_C@_0L@OGELMEKO@jerry_init@ 004444c4     jerry.obj
 0002:0000c690       ??_C@_0BG@GCAMHPCC@jmem_compress_pointer@ 004444d0     jmem-allocator.obj
 0002:0000c6a8       ??_C@_0EL@GBECPBGG@d?3?2hellox?2personal?2hellox_os?2je@ 004444e8     jmem-allocator.obj
 0002:0000c6f4       ??_C@_0BC@NNJELEDG@pointer_p?5?$CB?$DN?5NULL@ 00444534     jmem-allocator.obj
 0002:0000c708       ??_C@_0CB@OFANENIG@jmem_is_heap_pointer?5?$CIpointer_p@ 00444548     jmem-allocator.obj
 0002:0000c72c       ??_C@_0BP@OOCCKALH@uint_ptr?5?$CF?5JMEM_ALIGNMENT?5?$DN?$DN?50@ 0044456c     jmem-allocator.obj
 0002:0000c74c       ??_C@_0BH@KHFBOJEK@uint_ptr?5?$DM?$DN?5UINT16_MAX@ 0044458c     jmem-allocator.obj
 0002:0000c764       ??_C@_0BJ@MJPHGOCJ@uint_ptr?5?$CB?$DN?5JMEM_CP_NULL@ 004445a4     jmem-allocator.obj
 0002:0000c780       ??_C@_0BI@OIPHBCHP@jmem_decompress_pointer@ 004445c0     jmem-allocator.obj
 0002:0000c798       ??_C@_0CD@DJLLEJNL@compressed_pointer?5?$CB?$DN?5JMEM_CP_N@ 004445d8     jmem-allocator.obj
 0002:0000c7bc       ??_C@_0CJ@GJHIDJCH@?$CI?$CIjmem_cpointer_t?$CJ?5uint_ptr?$CJ?5?$DN?$DN@ 004445fc     jmem-allocator.obj
 0002:0000c7e8       ??_C@_0CJ@CLFGEADO@jmem_is_heap_pointer?5?$CI?$CIvoid?5?$CK?$CJ?5@ 00444628     jmem-allocator.obj
 0002:0000c814       ??_C@_0CK@PPODMNME@jmem_register_free_unused_memor@ 00444654     jmem-allocator.obj
 0002:0000c840       ??_C@_0DJ@HGLBEAPP@JERRY_CONTEXT?5?$CIjmem_free_unused@ 00444680     jmem-allocator.obj
 0002:0000c87c       ??_C@_0CM@FFOJIBAB@jmem_unregister_free_unused_mem@ 004446bc     jmem-allocator.obj
 0002:0000c8a8       ??_C@_0DN@PMPPLHEG@JERRY_CONTEXT?5?$CIjmem_free_unused@ 004446e8     jmem-allocator.obj
 0002:0000c8e8       ??_C@_0P@OCOGIFME@jmem_heap_init@ 00444728     jmem-heap.obj
 0002:0000c8f8       ??_C@_0EG@EBPFMIIK@d?3?2hellox?2personal?2hellox_os?2je@ 00444738     jmem-heap.obj
 0002:0000c940       ??_C@_0DM@GMLNIOCJ@?$CIuintptr_t?$CJ?5JERRY_HEAP_CONTEXT?5@ 00444780     jmem-heap.obj
 0002:0000c97c       ??_C@_0BD@EADBEMML@jmem_heap_finalize@ 004447bc     jmem-heap.obj
 0002:0000c990       ??_C@_0CO@GPBCIGJA@JERRY_CONTEXT?5?$CIjmem_heap_alloca@ 004447d0     jmem-heap.obj
 0002:0000c9c0       ??_C@_0BP@CKCJMIPM@jmem_heap_alloc_block_internal@ 00444800     jmem-heap.obj
 0002:0000c9e0       ??_C@_0CE@BDOPLKKN@jmem_is_heap_pointer?5?$CIdata_spac@ 00444820     jmem-heap.obj
 0002:0000ca04       ??_C@_0CE@KBDGICIB@data_space_p?9?$DOsize?5?$DO?5JMEM_ALIGN@ 00444844     jmem-heap.obj
 0002:0000ca28       ??_C@_0CB@MDDKJELM@jmem_is_heap_pointer?5?$CIcurrent_p@ 00444868     jmem-heap.obj
 0002:0000ca50       ??_C@_0GM@INEIHFCH@next_offset?5?$DN?$DN?5JMEM_HEAP_END_OF@ 00444890     jmem-heap.obj
 0002:0000cabc       ??_C@_0CP@HGFHECJF@?$CIuintptr_t?$CJ?5data_space_p?5?$CF?5JMEM@ 004448fc     jmem-heap.obj
 0002:0000caec       ??_C@_0BF@DBPMKDGI@jmem_heap_free_block@ 0044492c     jmem-heap.obj
 0002:0000cb04       ??_C@_0BL@CNNLMOMP@jmem_is_heap_pointer?5?$CIptr?$CJ@ 00444944     jmem-heap.obj
 0002:0000cb20       ??_C@_08DJGDGONI@size?5?$DO?50@ 00444960     jmem-heap.obj
 0002:0000cb30       ??_C@_0EM@FFMDAOBI@JERRY_CONTEXT?5?$CIjmem_heap_limit?$CJ@ 00444970     jmem-heap.obj
 0002:0000cb7c       ??_C@_0BO@JENCFEPM@jmem_is_heap_pointer?5?$CInext_p?$CJ@ 004449bc     jmem-heap.obj
 0002:0000cb9c       ??_C@_0CN@MIKBMMOG@JERRY_CONTEXT?5?$CIjmem_heap_alloca@ 004449dc     jmem-heap.obj
 0002:0000cbcc       ??_C@_0BE@KEKIBCFJ@jmem_pools_finalize@ 00444a0c     jmem-poolman.obj
 0002:0000cbe0       ??_C@_0EJ@GCADJCNE@d?3?2hellox?2personal?2hellox_os?2je@ 00444a20     jmem-poolman.obj
 0002:0000cc2c       ??_C@_0DB@JKHJMBEI@JERRY_CONTEXT?5?$CIjmem_free_8_byte@ 00444a6c     jmem-poolman.obj
 0002:0000cc60       ??_C@_0BB@EKOINEIO@jmem_pools_alloc@ 00444aa0     jmem-poolman.obj
 0002:0000cc74       ??_C@_0BA@BEBCNADP@jmem_pools_free@ 00444ab4     jmem-poolman.obj
 0002:0000cc84       ??_C@_0BA@BHAFCHNL@chunk_p?5?$CB?$DN?5NULL@ 00444ac4     jmem-poolman.obj
 0002:0000cc94       ??_C@_0BK@JJIHPDFD@Error?3?5ERR_OUT_OF_MEMORY?6@ 00444ad4     jrt-fatals.obj
 0002:0000ccb0       ??_C@_0BM@OEMCFOKC@Error?3?5ERR_REF_COUNT_LIMIT?6@ 00444af0     jrt-fatals.obj
 0002:0000cccc       ??_C@_0CG@DJACBGBI@Error?3?5ERR_FAILED_INTERNAL_ASSE@ 00444b0c     jrt-fatals.obj
 0002:0000ccf4       ??_C@_0CL@DNPDEKPG@ICE?3?5Assertion?5?8?$CFs?8?5failed?5at?5?$CF@ 00444b34     jrt-fatals.obj
 0002:0000cd20       ??_C@_0DL@HMNNJHEB@ICE?3?5Unreachable?5control?5path?5a@ 00444b60     jrt-fatals.obj
 0002:0000d1bc       ??_C@_0BE@OBHPDLJJ@lit_char_hex_to_int@ 00444ffc     lit-char-helpers.obj
 0002:0000d1d0       ??_C@_0EM@CABGCKGO@d?3?2hellox?2personal?2hellox_os?2je@ 00445010     lit-char-helpers.obj
 0002:0000d21c       ??_C@_0BK@MOJMCILD@lit_char_is_hex_digit?5?$CIc?$CJ@ 0044505c     lit-char-helpers.obj
 0002:0000d238       ??_C@_0BM@LEPGEHMF@lit_read_code_unit_from_hex@ 00445078     lit-char-helpers.obj
 0002:0000d254       ??_C@_0DH@ONBFOHBL@number_of_characters?5?$DO?$DN?52?5?$CG?$CG?5nu@ 00445094     lit-char-helpers.obj
 0002:0000d28c       ??_C@_0BH@MMDAIPOG@lit_char_to_lower_case@ 004450cc     lit-char-helpers.obj
 0002:0000d2a4       ??_C@_0CN@PEAKPILJ@buffer_size?5?$DO?$DN?5LIT_MAXIMUM_OTHE@ 004450e4     lit-char-helpers.obj
 0002:0000d2d4       ??_C@_0BH@KLEPMCAE@lit_char_to_upper_case@ 00445114     lit-char-helpers.obj
 0002:0000d800       ??_C@_00CNPNBAHC@@         00445640     lit-magic-strings.obj
 0002:0000d804       ??_C@_01BJJEKLCA@?$CC@     00445644     lit-magic-strings.obj
 0002:0000d808       ??_C@_01ODHLEDKK@?$CI@     00445648     lit-magic-strings.obj
 0002:0000d80c       ??_C@_01PKGAHCOL@?$CJ@     0044564c     lit-magic-strings.obj
 0002:0000d810       ??_C@_01IHBHIGKO@?0@       00445650     lit-magic-strings.obj
 0002:0000d814       ??_C@_01LFCBOECM@?4@       00445654     lit-magic-strings.obj
 0002:0000d818       ??_C@_01KMDKNFGN@?1@       00445658     lit-magic-strings.obj
 0002:0000d81c       ??_C@_01JLIPDDHJ@?3@       0044565c     lit-magic-strings.obj
 0002:0000d820       ??_C@_01DDCIFGEA@E@        00445660     lit-magic-strings.obj
 0002:0000d824       ??_C@_01GAPBHFFA@T@        00445664     lit-magic-strings.obj
 0002:0000d828       ??_C@_01POHCFINO@Z@        00445668     lit-magic-strings.obj
 0002:0000d82c       ??_C@_01OHGJGJJP@?$FL@     0044566c     lit-magic-strings.obj
 0002:0000d830       ??_C@_01KICIPPFI@?2@       00445670     lit-magic-strings.obj
 0002:0000d834       ??_C@_01LBDDMOBJ@?$FN@     00445674     lit-magic-strings.obj
 0002:0000d838       ??_C@_01JEJKBAGA@g@        00445678     lit-magic-strings.obj
 0002:0000d83c       ??_C@_01KBJDNOO@i@         0044567c     lit-magic-strings.obj
 0002:0000d840       ??_C@_01GOHFPIOK@m@        00445680     lit-magic-strings.obj
 0002:0000d844       ??_C@_01HCONENDN@?$HL@     00445684     lit-magic-strings.obj
 0002:0000d848       ??_C@_01CELHOKLL@?$HN@     00445688     lit-magic-strings.obj
 0002:0000d84c       ??_C@_02ENLJPMBB@PI@       0044568c     lit-magic-strings.obj
 0002:0000d850       ??_C@_03JIANDDNN@LN2@      00445690     lit-magic-strings.obj
 0002:0000d854       ??_C@_03ICJPMMHB@NaN@      00445694     lit-magic-strings.obj
 0002:0000d858       ??_C@_03JCIJEFNJ@UTC@      00445698     lit-magic-strings.obj
 0002:0000d85c       ??_C@_03BCGAIFPO@abs@      0044569c     lit-magic-strings.obj
 0002:0000d860       ??_C@_03LALBNOCG@cos@      004456a0     lit-magic-strings.obj
 0002:0000d864       ??_C@_03KHJOGHMM@exp@      004456a4     lit-magic-strings.obj
 0002:0000d868       ??_C@_03HNAFFKGA@get@      004456a8     lit-magic-strings.obj
 0002:0000d86c       ??_C@_03MGHMBJCF@log@      004456ac     lit-magic-strings.obj
 0002:0000d870       ??_C@_03HBNNNHNM@map@      004456b0     lit-magic-strings.obj
 0002:0000d874       ??_C@_03LJAEFNNE@max@      004456b4     lit-magic-strings.obj
 0002:0000d878       ??_C@_03KLIPLJLL@min@      004456b8     lit-magic-strings.obj
 0002:0000d87c       ??_C@_03CGLHMDPP@now@      004456bc     lit-magic-strings.obj
 0002:0000d880       ??_C@_03NJDAHFJE@pop@      004456c0     lit-magic-strings.obj
 0002:0000d884       ??_C@_03JGHBODFD@pow@      004456c4     lit-magic-strings.obj
 0002:0000d888       ??_C@_03KCHOJKKI@set@      004456c8     lit-magic-strings.obj
 0002:0000d88c       ??_C@_03BLEJJJBH@sin@      004456cc     lit-magic-strings.obj
 0002:0000d890       ??_C@_03IIINPABG@tan@      004456d0     lit-magic-strings.obj
 0002:0000d894       ??_C@_04NJOHLHN@?$CI?$DP?3?$CJ@ 004456d4     lit-magic-strings.obj
 0002:0000d89c       ??_C@_04FMEGDJGD@Date@     004456dc     lit-magic-strings.obj
 0002:0000d8a4       ??_C@_04OHBKEADA@JSON@     004456e4     lit-magic-strings.obj
 0002:0000d8ac       ??_C@_04CFPKCLPA@LN10@     004456ec     lit-magic-strings.obj
 0002:0000d8b4       ??_C@_04OEPICFFP@Math@     004456f4     lit-magic-strings.obj
 0002:0000d8bc       ??_C@_04KHKKIIL@Null@      004456fc     lit-magic-strings.obj
 0002:0000d8c4       ??_C@_04PDIFKINK@acos@     00445704     lit-magic-strings.obj
 0002:0000d8cc       ??_C@_04FIHNOPOL@asin@     0044570c     lit-magic-strings.obj
 0002:0000d8d4       ??_C@_04MLLJIGOK@atan@     00445714     lit-magic-strings.obj
 0002:0000d8dc       ??_C@_04NPNJNMMP@bind@     0044571c     lit-magic-strings.obj
 0002:0000d8e4       ??_C@_04OMFAIDPG@call@     00445724     lit-magic-strings.obj
 0002:0000d8ec       ??_C@_04GFPJNGEK@ceil@     0044572c     lit-magic-strings.obj
 0002:0000d8f4       ??_C@_04KGAGIKCD@eval@     00445734     lit-magic-strings.obj
 0002:0000d8fc       ??_C@_04MGEIEJAD@exec@     0044573c     lit-magic-strings.obj
 0002:0000d904       ??_C@_04DFGCDGNN@join@     00445744     lit-magic-strings.obj
 0002:0000d90c       ??_C@_04IEPFDAGF@keys@     0044574c     lit-magic-strings.obj
 0002:0000d914       ??_C@_04MEMAJGDJ@name@     00445754     lit-magic-strings.obj
 0002:0000d91c       ??_C@_04GHHNIPCF@push@     0044575c     lit-magic-strings.obj
 0002:0000d924       ??_C@_04LAKBAHA@seal@      00445764     lit-magic-strings.obj
 0002:0000d92c       ??_C@_04LMGPLCDJ@some@     0044576c     lit-magic-strings.obj
 0002:0000d934       ??_C@_04PIMMHFGE@sort@     00445774     lit-magic-strings.obj
 0002:0000d93c       ??_C@_04EIAKFFMI@sqrt@     0044577c     lit-magic-strings.obj
 0002:0000d944       ??_C@_04CEJDCDCH@test@     00445784     lit-magic-strings.obj
 0002:0000d94c       ??_C@_04GDOMMDLP@trim@     0044578c     lit-magic-strings.obj
 0002:0000d954       ??_C@_05HPPFDPIF@Array@    00445794     lit-magic-strings.obj
 0002:0000d95c       ??_C@_05NAOIJFC@Error@     0044579c     lit-magic-strings.obj
 0002:0000d964       ??_C@_05NJJCJJPN@Jerry@    004457a4     lit-magic-strings.obj
 0002:0000d96c       ??_C@_05EACGLBOJ@LOG2E@    004457ac     lit-magic-strings.obj
 0002:0000d974       ??_C@_05CGJFNHEK@SQRT2@    004457b4     lit-magic-strings.obj
 0002:0000d97c       ??_C@_05KAEIDCAL@apply@    004457bc     lit-magic-strings.obj
 0002:0000d984       ??_C@_05KNGEOGJB@atan2@    004457c4     lit-magic-strings.obj
 0002:0000d98c       ??_C@_05MFOGKMGK@every@    004457cc     lit-magic-strings.obj
 0002:0000d994       ??_C@_05PBJFFIGL@floor@    004457d4     lit-magic-strings.obj
 0002:0000d99c       ??_C@_05FKHKFDID@index@    004457dc     lit-magic-strings.obj
 0002:0000d9a4       ??_C@_05DFJCHPDH@input@    004457e4     lit-magic-strings.obj
 0002:0000d9ac       ??_C@_05IDJAHGED@isNaN@    004457ec     lit-magic-strings.obj
 0002:0000d9b4       ??_C@_05FNONLPDI@match@    004457f4     lit-magic-strings.obj
 0002:0000d9bc       ??_C@_05GOEGCMJM@parse@    004457fc     lit-magic-strings.obj
 0002:0000d9c4       ??_C@_05IJDJACGD@print@    00445804     lit-magic-strings.obj
 0002:0000d9cc       ??_C@_05MIMAKCN@round@     0044580c     lit-magic-strings.obj
 0002:0000d9d4       ??_C@_05CLOOKOFG@shift@    00445814     lit-magic-strings.obj
 0002:0000d9dc       ??_C@_05ILHMOJGN@slice@    0044581c     lit-magic-strings.obj
 0002:0000d9e4       ??_C@_05EHPMMFBK@split@    00445824     lit-magic-strings.obj
 0002:0000d9ec       ??_C@_05MFEJDJP@value@     0044582c     lit-magic-strings.obj
 0002:0000d9f4       ??_C@_06BEBHMCHI@LOG10E@   00445834     lit-magic-strings.obj
 0002:0000d9fc       ??_C@_06IONACMBM@Number@   0044583c     lit-magic-strings.obj
 0002:0000da04       ??_C@_06ELFECKBG@Object@   00445844     lit-magic-strings.obj
 0002:0000da0c       ??_C@_06HMOFAFLK@RegExp@   0044584c     lit-magic-strings.obj
 0002:0000da14       ??_C@_06CLBDIDBH@Source@   00445854     lit-magic-strings.obj
 0002:0000da1c       ??_C@_06ENNEIMBA@String@   0044585c     lit-magic-strings.obj
 0002:0000da24       ??_C@_06GAMBOONI@callee@   00445864     lit-magic-strings.obj
 0002:0000da2c       ??_C@_06GFECGKEO@caller@   0044586c     lit-magic-strings.obj
 0002:0000da34       ??_C@_06GDAFJGCB@charAt@   00445874     lit-magic-strings.obj
 0002:0000da3c       ??_C@_06CMLIEHFC@concat@   0044587c     lit-magic-strings.obj
 0002:0000da44       ??_C@_06HBNONAG@create@    00445884     lit-magic-strings.obj
 0002:0000da4c       ??_C@_06CHNIFGOF@escape@   0044588c     lit-magic-strings.obj
 0002:0000da54       ??_C@_06EOIELIPE@filter@   00445894     lit-magic-strings.obj
 0002:0000da5c       ??_C@_06NANJHIPM@freeze@   0044589c     lit-magic-strings.obj
 0002:0000da64       ??_C@_06NLHHCGMO@getDay@   004458a4     lit-magic-strings.obj
 0002:0000da6c       ??_C@_06FJKEMHGD@global@   004458ac     lit-magic-strings.obj
 0002:0000da74       ??_C@_06COBEDCMA@isView@   004458b4     lit-magic-strings.obj
 0002:0000da7c       ??_C@_06IJDLPEM@length@    004458bc     lit-magic-strings.obj
 0002:0000da84       ??_C@_06IEOJBDIK@object@   004458c4     lit-magic-strings.obj
 0002:0000da8c       ??_C@_06NLFCANPD@random@   004458cc     lit-magic-strings.obj
 0002:0000da94       ??_C@_06CDBFBENC@reduce@   004458d4     lit-magic-strings.obj
 0002:0000da9c       ??_C@_06GFPLNGOC@search@   004458dc     lit-magic-strings.obj
 0002:0000daa4       ??_C@_06OEKOLKIL@source@   004458e4     lit-magic-strings.obj
 0002:0000daac       ??_C@_06PMMGCPKI@splice@   004458ec     lit-magic-strings.obj
 0002:0000dab4       ??_C@_06ICGJLFIM@string@   004458f4     lit-magic-strings.obj
 0002:0000dabc       ??_C@_06DAHFIGOC@substr@   004458fc     lit-magic-strings.obj
 0002:0000dac4       ??_C@_06FNNBCBOE@toJSON@   00445904     lit-magic-strings.obj
 0002:0000dacc       ??_C@_07JHGIBOMG@Boolean@  0044590c     lit-magic-strings.obj
 0002:0000dad4       ??_C@_07IKAEFEHP@SQRT1_2@  00445914     lit-magic-strings.obj
 0002:0000dadc       ??_C@_07GOBOHMJA@boolean@  0044591c     lit-magic-strings.obj
 0002:0000dae4       ??_C@_07OLJGFCKG@compile@  00445924     lit-magic-strings.obj
 0002:0000daec       ??_C@_07EDHBMKOF@forEach@  0044592c     lit-magic-strings.obj
 0002:0000daf4       ??_C@_07GMFFJECA@getDate@  00445934     lit-magic-strings.obj
 0002:0000dafc       ??_C@_07NKPGLDLC@getTime@  0044593c     lit-magic-strings.obj
 0002:0000db04       ??_C@_07GECJLFEJ@getYear@  00445944     lit-magic-strings.obj
 0002:0000db0c       ??_C@_07KKKNJHGA@indexOf@  0044594c     lit-magic-strings.obj
 0002:0000db14       ??_C@_07LJDBDAGJ@isArray@  00445954     lit-magic-strings.obj
 0002:0000db1c       ??_C@_07ONPBMBOP@message@  0044595c     lit-magic-strings.obj
 0002:0000db24       ??_C@_07CLEHDIEJ@replace@  00445964     lit-magic-strings.obj
 0002:0000db2c       ??_C@_07KOIEOCCE@reverse@  0044596c     lit-magic-strings.obj
 0002:0000db34       ??_C@_07JEKEKLPB@setDate@  00445974     lit-magic-strings.obj
 0002:0000db3c       ??_C@_07CCAHIMGD@setTime@  0044597c     lit-magic-strings.obj
 0002:0000db44       ??_C@_07JMNIIKJI@setYear@  00445984     lit-magic-strings.obj
 0002:0000db4c       ??_C@_07GDBMFAKG@toFixed@  0044598c     lit-magic-strings.obj
 0002:0000db54       ??_C@_07MADHHINA@unshift@  00445994     lit-magic-strings.obj
 0002:0000db5c       ??_C@_07NHLOFOKD@valueOf@  0044599c     lit-magic-strings.obj
 0002:0000db64       ??_C@_08PHKOHANG@Function@ 004459a4     lit-magic-strings.obj
 0002:0000db70       ??_C@_08KEBCLIFP@Infinity@ 004459b0     lit-magic-strings.obj
 0002:0000db7c       ??_C@_08KEJAPMHH@URIError@ 004459bc     lit-magic-strings.obj
 0002:0000db88       ??_C@_08HFFPPCHF@function@ 004459c8     lit-magic-strings.obj
 0002:0000db94       ??_C@_08FGDHPDOD@getHours@ 004459d4     lit-magic-strings.obj
 0002:0000dba0       ??_C@_08CMFJAFOG@getMonth@ 004459e0     lit-magic-strings.obj
 0002:0000dbac       ??_C@_08OIJHHKMH@isFinite@ 004459ec     lit-magic-strings.obj
 0002:0000dbb8       ??_C@_08FKEJNC@isFrozen@   004459f8     lit-magic-strings.obj
 0002:0000dbc4       ??_C@_08BLMCJGDA@isSealed@ 00445a04     lit-magic-strings.obj
 0002:0000dbd0       ??_C@_08LNIBIDJO@parseInt@ 00445a10     lit-magic-strings.obj
 0002:0000dbdc       ??_C@_08KHBLOAJO@setHours@ 00445a1c     lit-magic-strings.obj
 0002:0000dbe8       ??_C@_08NNHFBGJL@setMonth@ 00445a28     lit-magic-strings.obj
 0002:0000dbf4       ??_C@_08JCDFGHAO@toString@ 00445a34     lit-magic-strings.obj
 0002:0000dc00       ??_C@_08CDOIKJCG@unescape@ 00445a40     lit-magic-strings.obj
 0002:0000dc0c       ??_C@_08IBOGFJJC@writable@ 00445a4c     lit-magic-strings.obj
 0002:0000dc18       ??_C@_09BLDCEMOH@?9Infinity@ 00445a58     lit-magic-strings.obj
 0002:0000dc24       ??_C@_09LOINMIFK@Arguments@ 00445a64     lit-magic-strings.obj
 0002:0000dc30       ??_C@_09PEDLLAII@EvalError@ 00445a70     lit-magic-strings.obj
 0002:0000dc3c       ??_C@_09GEHJFHHN@MAX_VALUE@ 00445a7c     lit-magic-strings.obj
 0002:0000dc48       ??_C@_09GFHFMNMJ@MIN_VALUE@ 00445a88     lit-magic-strings.obj
 0002:0000dc54       ??_C@_09MGGHOBOJ@TypeError@ 00445a94     lit-magic-strings.obj
 0002:0000dc60       ??_C@_09IEDNJDJD@Undefined@ 00445aa0     lit-magic-strings.obj
 0002:0000dc6c       ??_C@_09PBNAMLIK@arguments@ 00445aac     lit-magic-strings.obj
 0002:0000dc78       ??_C@_09IBPACIEP@decodeURI@ 00445ab8     lit-magic-strings.obj
 0002:0000dc84       ??_C@_09OMGHNNKM@encodeURI@ 00445ac4     lit-magic-strings.obj
 0002:0000dc90       ??_C@_09ELJPNBKL@getUTCDay@ 00445ad0     lit-magic-strings.obj
 0002:0000dc9c       ??_C@_09LFKFIMDC@lastIndex@ 00445adc     lit-magic-strings.obj
 0002:0000dca8       ??_C@_09HCOPNKIA@multiline@ 00445ae8     lit-magic-strings.obj
 0002:0000dcb4       ??_C@_09IKDJFMEJ@prototype@ 00445af4     lit-magic-strings.obj
 0002:0000dcc0       ??_C@_09LBHKKMMD@stringify@ 00445b00     lit-magic-strings.obj
 0002:0000dccc       ??_C@_09MJALBNED@substring@ 00445b0c     lit-magic-strings.obj
 0002:0000dcd8       ??_C@_0L@FOLNACGA@RangeError@ 00445b18     lit-magic-strings.obj
 0002:0000dce4       ??_C@_0L@GGFFFOP@byteLength@ 00445b24     lit-magic-strings.obj
 0002:0000dcf0       ??_C@_0L@OMBDKGHG@charCodeAt@ 00445b30     lit-magic-strings.obj
 0002:0000dcfc       ??_C@_0L@HIFBHAAB@enumerable@ 00445b3c     lit-magic-strings.obj
 0002:0000dd08       ??_C@_0L@HGDPFLOP@getMinutes@ 00445b48     lit-magic-strings.obj
 0002:0000dd14       ??_C@_0L@HAAGFDLD@getSeconds@ 00445b54     lit-magic-strings.obj
 0002:0000dd20       ??_C@_0L@FBBNOJAA@getUTCDate@ 00445b60     lit-magic-strings.obj
 0002:0000dd2c       ??_C@_0L@OAIKLFHJ@ignoreCase@ 00445b6c     lit-magic-strings.obj
 0002:0000dd38       ??_C@_0L@JFLLOEEB@parseFloat@ 00445b78     lit-magic-strings.obj
 0002:0000dd44       ??_C@_0L@GIBAOMKG@setMinutes@ 00445b84     lit-magic-strings.obj
 0002:0000dd50       ??_C@_0L@GOCJOEPK@setSeconds@ 00445b90     lit-magic-strings.obj
 0002:0000dd5c       ??_C@_0L@EPDCFOEJ@setUTCDate@ 00445b9c     lit-magic-strings.obj
 0002:0000dd68       ??_C@_0M@FAEIKDGL@ArrayBuffer@ 00445ba8     lit-magic-strings.obj
 0002:0000dd74       ??_C@_0M@KIDEJCGH@SyntaxError@ 00445bb4     lit-magic-strings.obj
 0002:0000dd80       ??_C@_0M@HCIFEBGA@constructor@ 00445bc0     lit-magic-strings.obj
 0002:0000dd8c       ??_C@_0M@BBDOLPKO@getFullYear@ 00445bcc     lit-magic-strings.obj
 0002:0000dd98       ??_C@_0M@GNGEJLFG@getUTCHours@ 00445bd8     lit-magic-strings.obj
 0002:0000dda4       ??_C@_0M@BHAKGNFD@getUTCMonth@ 00445be4     lit-magic-strings.obj
 0002:0000ddb0       ??_C@_0M@EBBPCIAD@lastIndexOf@ 00445bf0     lit-magic-strings.obj
 0002:0000ddbc       ??_C@_0M@PGAIKPBL@reduceRight@ 00445bfc     lit-magic-strings.obj
 0002:0000ddc8       ??_C@_0M@BOCAGJCN@setFullYear@ 00445c08     lit-magic-strings.obj
 0002:0000ddd4       ??_C@_0M@GCHKENNF@setUTCHours@ 00445c14     lit-magic-strings.obj
 0002:0000dde0       ??_C@_0M@BIBELLNA@setUTCMonth@ 00445c20     lit-magic-strings.obj
 0002:0000ddec       ??_C@_0M@MNNKEIMB@toGMTString@ 00445c2c     lit-magic-strings.obj
 0002:0000ddf8       ??_C@_0M@JGMAMMOM@toISOString@ 00445c38     lit-magic-strings.obj
 0002:0000de04       ??_C@_0M@IMBDOEKL@toLowerCase@ 00445c44     lit-magic-strings.obj
 0002:0000de10       ??_C@_0M@EKAMMCGJ@toPrecision@ 00445c50     lit-magic-strings.obj
 0002:0000de1c       ??_C@_0M@JIJMNFAM@toUTCString@ 00445c5c     lit-magic-strings.obj
 0002:0000de28       ??_C@_0M@COBEMKDA@toUpperCase@ 00445c68     lit-magic-strings.obj
 0002:0000de34       ??_C@_0N@ELHPPPLH@Invalid?5Date@ 00445c74     lit-magic-strings.obj
 0002:0000de44       ??_C@_0N@HJEBDEFF@configurable@ 00445c84     lit-magic-strings.obj
 0002:0000de54       ??_C@_0N@NFKBBICO@fromCharCode@ 00445c94     lit-magic-strings.obj
 0002:0000de64       ??_C@_0N@FHIJLJMN@isExtensible@ 00445ca4     lit-magic-strings.obj
 0002:0000de74       ??_C@_0N@JCLHMJKC@toDateString@ 00445cb4     lit-magic-strings.obj
 0002:0000de84       ??_C@_0N@CPPFLJLH@toTimeString@ 00445cc4     lit-magic-strings.obj
 0002:0000de94       ??_C@_0O@KMOENDCL@getUTCMinutes@ 00445cd4     lit-magic-strings.obj
 0002:0000dea4       ??_C@_0O@KKNNNLHH@getUTCSeconds@ 00445ce4     lit-magic-strings.obj
 0002:0000deb4       ??_C@_0O@JMONGBAF@isPrototypeOf@ 00445cf4     lit-magic-strings.obj
 0002:0000dec4       ??_C@_0O@OJGHPGLB@localeCompare@ 00445d04     lit-magic-strings.obj
 0002:0000ded4       ??_C@_0O@NDPKGAFM@setUTCMinutes@ 00445d14     lit-magic-strings.obj
 0002:0000dee4       ??_C@_0O@NFMDGIAA@setUTCSeconds@ 00445d24     lit-magic-strings.obj
 0002:0000def4       ??_C@_0O@IJIGMJGN@toExponential@ 00445d34     lit-magic-strings.obj
 0002:0000df04       ??_C@_0P@NJFCDLEA@ReferenceError@ 00445d44     lit-magic-strings.obj
 0002:0000df14       ??_C@_0P@BBILGIID@defineProperty@ 00445d54     lit-magic-strings.obj
 0002:0000df24       ??_C@_0P@BEDMMGKJ@getPrototypeOf@ 00445d64     lit-magic-strings.obj
 0002:0000df34       ??_C@_0P@INONGCIP@getUTCFullYear@ 00445d74     lit-magic-strings.obj
 0002:0000df44       ??_C@_0P@DOKNCEBE@hasOwnProperty@ 00445d84     lit-magic-strings.obj
 0002:0000df54       ??_C@_0P@EDPDJIKD@setUTCFullYear@ 00445d94     lit-magic-strings.obj
 0002:0000df64       ??_C@_0P@PJLMEMKI@toLocaleString@ 00445da4     lit-magic-strings.obj
 0002:0000df74       ??_C@_0BA@IFGPNHHM@getMilliseconds@ 00445db4     lit-magic-strings.obj
 0002:0000df84       ??_C@_0BA@LHHJKFGF@setMilliseconds@ 00445dc4     lit-magic-strings.obj
 0002:0000df94       ??_C@_0BB@EJNAEHAI@defineProperties@ 00445dd4     lit-magic-strings.obj
 0002:0000dfa8       ??_C@_0BC@EKGLNCPC@NEGATIVE_INFINITY@ 00445de8     lit-magic-strings.obj
 0002:0000dfbc       ??_C@_0BC@LCFGPNKE@POSITIVE_INFINITY@ 00445dfc     lit-magic-strings.obj
 0002:0000dfd0       ??_C@_0BC@PLMPJGII@getTimezoneOffset@ 00445e10     lit-magic-strings.obj
 0002:0000dfe4       ??_C@_0BC@MNFLBDMG@preventExtensions@ 00445e24     lit-magic-strings.obj
 0002:0000dff8       ??_C@_0BC@LDPCADPP@toLocaleLowerCase@ 00445e38     lit-magic-strings.obj
 0002:0000e00c       ??_C@_0BC@BBPFCNGE@toLocaleUpperCase@ 00445e4c     lit-magic-strings.obj
 0002:0000e020       ??_C@_0BD@BBLJPGEM@decodeURIComponent@ 00445e60     lit-magic-strings.obj
 0002:0000e034       ??_C@_0BD@DLIMAFHK@encodeURIComponent@ 00445e74     lit-magic-strings.obj
 0002:0000e048       ??_C@_0BD@ELBMPAPH@getUTCMilliseconds@ 00445e88     lit-magic-strings.obj
 0002:0000e05c       ??_C@_0BD@LBDGMGBP@setUTCMilliseconds@ 00445e9c     lit-magic-strings.obj
 0002:0000e070       ??_C@_0BD@POIOLNKI@toLocaleDateString@ 00445eb0     lit-magic-strings.obj
 0002:0000e084       ??_C@_0BD@EDMMMNLN@toLocaleTimeString@ 00445ec4     lit-magic-strings.obj
 0002:0000e098       ??_C@_0BE@EMMOJCAD@getOwnPropertyNames@ 00445ed8     lit-magic-strings.obj
 0002:0000e0ac       ??_C@_0BF@GGKMFCAP@propertyIsEnumerable@ 00445eec     lit-magic-strings.obj
 0002:0000e0c4       ??_C@_0BJ@BELMJFGN@getOwnPropertyDescriptor@ 00445f04     lit-magic-strings.obj
 0002:0000e0e0       ??_C@_0BN@EOHLJGMJ@function?$CI?$CJ?$HL?1?$CK?5ecmascript?5?$CK?1?$HN@ 00445f20     lit-magic-strings.obj
 0002:0000e100       ??_C@_0BK@CGMFAGPB@lit_get_magic_string_utf8@ 00445f40     lit-magic-strings.obj
 0002:0000e120       ??_C@_0EN@HPDHEGNI@d?3?2hellox?2personal?2hellox_os?2je@ 00445f60     lit-magic-strings.obj
 0002:0000e170       ??_C@_0BK@BBNPAFBO@lit_get_magic_string_size@ 00445fb0     lit-magic-strings.obj
 0002:0000e18c       ??_C@_0CG@DCMEGKJP@lit_get_magic_string_size_block@ 00445fcc     lit-magic-strings.obj
 0002:0000e1b8       ??_C@_0FH@BOIIAHI@size?5?$DM?$DN?5?$CIsizeof?5?$CIlit_magic_stri@ 00445ff8     lit-magic-strings.obj
 0002:0000e210       ??_C@_0BN@IOMHCFBI@lit_get_magic_string_ex_utf8@ 00446050     lit-magic-strings.obj
 0002:0000e230       ??_C@_0CA@OJLDIDEH@lit_copy_magic_string_to_buffer@ 00446070     lit-magic-strings.obj
 0002:0000e250       ??_C@_0BM@NLFMPJKL@bytes_copied?5?$DM?$DN?5buffer_size@ 00446090     lit-magic-strings.obj
 0002:0000e270       ??_C@_0EH@EHEDNPBJ@d?3?2hellox?2personal?2hellox_os?2je@ 004460b0     lit-strings.obj
 0002:0000e2b8       ??_C@_0CF@BDKEHPIC@code_point?5?$DO?5LIT_UTF16_CODE_UNI@ 004460f8     lit-strings.obj
 0002:0000e2e0       ??_C@_0CF@PBAPIEJH@convert_code_point_to_high_surr@ 00446120     lit-strings.obj
 0002:0000e308       ??_C@_0CJ@JANMABCN@code_point?5?$DM?$DN?5LIT_UNICODE_CODE_@ 00446148     lit-strings.obj
 0002:0000e334       ??_C@_0BH@ODHEDJJK@lit_utf8_string_length@ 00446174     lit-strings.obj
 0002:0000e34c       ??_C@_0BG@KELGEPEN@size?5?$DN?$DN?5utf8_buf_size@ 0044618c     lit-strings.obj
 0002:0000e364       ??_C@_0BO@EPNEKMFH@lit_read_code_point_from_utf8@ 004461a4     lit-strings.obj
 0002:0000e384       ??_C@_0BC@OPGCBHGH@buf_p?5?$CG?$CG?5buf_size@ 004461c4     lit-strings.obj
 0002:0000e398       ??_C@_0BI@IMBNLPEF@buf_size?5?$DO?$DN?5bytes_count@ 004461d8     lit-strings.obj
 0002:0000e3b0       ??_C@_0BN@JKEIJBDA@lit_read_code_unit_from_utf8@ 004461f0     lit-strings.obj
 0002:0000e3d0       ??_C@_05GMKBCHBG@buf_p@    00446210     lit-strings.obj
 0002:0000e3d8       ??_C@_0DF@HJBHHAGH@?$CIc?5?$CG?5LIT_UTF8_3_BYTE_MASK?$CJ?5?$DN?$DN?5L@ 00446218     lit-strings.obj
 0002:0000e410       ??_C@_0BP@EPFLAMOK@ret?5?$DM?$DN?5LIT_UTF16_CODE_UNIT_MAX@ 00446250     lit-strings.obj
 0002:0000e430       ??_C@_0CC@CILNKIGD@lit_read_prev_code_unit_from_ut@ 00446270     lit-strings.obj
 0002:0000e454       ??_C@_0BD@DAHLLGMO@lit_utf8_read_next@ 00446294     lit-strings.obj
 0002:0000e468       ??_C@_06CLMCDPBJ@?$CKbuf_p@ 004462a8     lit-strings.obj
 0002:0000e470       ??_C@_0BD@EKNKCKK@lit_utf8_read_prev@ 004462b0     lit-strings.obj
 0002:0000e484       ??_C@_0BD@EGIMBIOA@lit_utf8_peek_next@ 004462c4     lit-strings.obj
 0002:0000e498       ??_C@_0BD@HCFKAMIE@lit_utf8_peek_prev@ 004462d8     lit-strings.obj
 0002:0000e4ac       ??_C@_0O@BILMAEMM@lit_utf8_incr@ 004462ec     lit-strings.obj
 0002:0000e4bc       ??_C@_0O@DHCNEHHM@lit_utf8_decr@ 004462fc     lit-strings.obj
 0002:0000e4cc       ??_C@_0BN@GDKGPAIE@lit_utf8_string_hash_combine@ 0044630c     lit-strings.obj
 0002:0000e4ec       ??_C@_0CJ@BIBKGLNL@utf8_buf_p?5?$CB?$DN?5NULL?5?$HM?$HM?5utf8_buf_@ 0044632c     lit-strings.obj
 0002:0000e518       ??_C@_0BK@KGIHHOIA@lit_utf8_string_calc_hash@ 00446358     lit-strings.obj
 0002:0000e534       ??_C@_0BN@PKDKBGLN@lit_utf8_string_code_unit_at@ 00446374     lit-strings.obj
 0002:0000e554       ??_C@_0CH@GKJMMIP@current_p?5?$DM?5utf8_buf_p?5?$CL?5utf8_b@ 00446394     lit-strings.obj
 0002:0000e57c       ??_C@_0CN@DEFHEPGI@lit_get_unicode_char_size_by_ut@ 004463bc     lit-strings.obj
 0002:0000e5ac       ??_C@_0DO@EIGINKCK@?$CIfirst_byte?5?$CG?5LIT_UTF8_3_BYTE_M@ 004463ec     lit-strings.obj
 0002:0000e5ec       ??_C@_0BG@NJJMFEJN@lit_code_unit_to_utf8@ 0044642c     lit-strings.obj
 0002:0000e604       ??_C@_0CC@GEOIKGE@first_byte_bits?5?$DN?$DN?5code_unit_bi@ 00446444     lit-strings.obj
 0002:0000e628       ??_C@_0BH@LFFKBLMJ@lit_code_point_to_utf8@ 00446468     lit-strings.obj
 0002:0000e640       ??_C@_0CD@JIJHPKKC@first_byte_bits?5?$DN?$DN?5code_point_b@ 00446480     lit-strings.obj
 0002:0000e664       ??_C@_0CN@HJOGNBOG@code_point?5?$DM?$DN?5LIT_UTF8_4_BYTE_C@ 004464a4     lit-strings.obj
 0002:0000e694       ??_C@_0CJ@CFAGMODG@lit_convert_surrogate_pair_to_c@ 004464d4     lit-strings.obj
 0002:0000e6c0       ??_C@_0DI@IDKPLJDI@lit_is_code_point_utf16_high_su@ 00446500     lit-strings.obj
 0002:0000e6f8       ??_C@_0DG@OBLCCGAP@lit_is_code_point_utf16_low_sur@ 00446538     lit-strings.obj
 0002:0000e730       _cbc_flags                 00446570     byte-code.obj
 0002:0000e820       _cbc_ext_flags             00446660     byte-code.obj
 0002:0000ea4c       ??_C@_02KNAFDCHJ@do@       0044688c     js-lexer.obj
 0002:0000ea50       ??_C@_02HEBPBKGD@if@       00446890     js-lexer.obj
 0002:0000ea54       ??_C@_02LMMGJAGL@in@       00446894     js-lexer.obj
 0002:0000ea58       ??_C@_03JOHEBPFF@for@      00446898     js-lexer.obj
 0002:0000ea5c       ??_C@_03KKAENNGB@let@      0044689c     js-lexer.obj
 0002:0000ea60       ??_C@_03CLCAEGCJ@new@      004468a0     js-lexer.obj
 0002:0000ea64       ??_C@_03JDGOGJKJ@try@      004468a4     js-lexer.obj
 0002:0000ea68       ??_C@_03MEPDGFMA@var@      004468a8     js-lexer.obj
 0002:0000ea6c       ??_C@_04CKOINMPC@case@     004468ac     js-lexer.obj
 0002:0000ea74       ??_C@_04FHMCPBIP@else@     004468b4     js-lexer.obj
 0002:0000ea7c       ??_C@_04DBJPMPLO@enum@     004468bc     js-lexer.obj
 0002:0000ea84       ??_C@_04IIAJELJL@this@     004468c4     js-lexer.obj
 0002:0000ea8c       ??_C@_04GKJNKENE@void@     004468cc     js-lexer.obj
 0002:0000ea94       ??_C@_04MKNNKNJH@with@     004468d4     js-lexer.obj
 0002:0000ea9c       ??_C@_05ELPHFHOI@break@    004468dc     js-lexer.obj
 0002:0000eaa4       ??_C@_05GHOHNOEI@catch@    004468e4     js-lexer.obj
 0002:0000eaac       ??_C@_05ENKANFLO@class@    004468ec     js-lexer.obj
 0002:0000eab4       ??_C@_05BNCCCJPP@const@    004468f4     js-lexer.obj
 0002:0000eabc       ??_C@_05MKJDPMKP@super@    004468fc     js-lexer.obj
 0002:0000eac4       ??_C@_05JFAPCGDM@throw@    00446904     js-lexer.obj
 0002:0000eacc       ??_C@_05OODBEKIG@while@    0044690c     js-lexer.obj
 0002:0000ead4       ??_C@_05LKJGIMLP@yield@    00446914     js-lexer.obj
 0002:0000eadc       ??_C@_06FOBLBEIN@delete@   0044691c     js-lexer.obj
 0002:0000eae4       ??_C@_06NKNNMLDJ@export@   00446924     js-lexer.obj
 0002:0000eaec       ??_C@_06EOGGDCGF@import@   0044692c     js-lexer.obj
 0002:0000eaf4       ??_C@_06EOMAMIIF@public@   00446934     js-lexer.obj
 0002:0000eafc       ??_C@_06LNOFJDNM@return@   0044693c     js-lexer.obj
 0002:0000eb04       ??_C@_06GGHJAEBN@static@   00446944     js-lexer.obj
 0002:0000eb0c       ??_C@_06DOPOGBGP@switch@   0044694c     js-lexer.obj
 0002:0000eb14       ??_C@_06NDJPCPHC@typeof@   00446954     js-lexer.obj
 0002:0000eb1c       ??_C@_07DLHCIBDH@default@  0044695c     js-lexer.obj
 0002:0000eb24       ??_C@_07IMAFGOBG@extends@  00446964     js-lexer.obj
 0002:0000eb2c       ??_C@_07MKBLAIAL@finally@  0044696c     js-lexer.obj
 0002:0000eb34       ??_C@_07KNEGBPNO@package@  00446974     js-lexer.obj
 0002:0000eb3c       ??_C@_07NMPLPEPB@private@  0044697c     js-lexer.obj
 0002:0000eb44       ??_C@_08DLICDMBN@continue@ 00446984     js-lexer.obj
 0002:0000eb50       ??_C@_08BJECCCMA@debugger@ 00446990     js-lexer.obj
 0002:0000eb5c       ??_C@_09NFKLEKPH@interface@ 0044699c     js-lexer.obj
 0002:0000eb68       ??_C@_09IPOLMLK@protected@ 004469a8     js-lexer.obj
 0002:0000eb74       ??_C@_0L@FMDKPCDN@implements@ 004469b4     js-lexer.obj
 0002:0000eb80       ??_C@_0L@CMICNBPM@instanceof@ 004469c0     js-lexer.obj
 0002:0000eb8c       ??_C@_0M@OEDBJEHE@skip_spaces@ 004469cc     js-lexer.obj
 0002:0000eb98       ??_C@_0EK@PPHMIHFG@d?3?2hellox?2personal?2hellox_os?2je@ 004469d8     js-lexer.obj
 0002:0000ebe4       ??_C@_0CH@FKIECFCM@context_p?9?$DOsource_p?5?$CL?52?5?$DM?5sourc@ 00446a24     js-lexer.obj
 0002:0000ec0c       ??_C@_0BH@GGLIGNFG@lexer_parse_identifier@ 00446a4c     js-lexer.obj
 0002:0000ec24       ??_C@_0CF@CFBNHFFB@source_p?$FL0?$FN?5?$DM?5LEXER_UTF8_4BYTE_@ 00446a64     js-lexer.obj
 0002:0000ec4c       ??_C@_0BL@JAJKEABO@lexer_process_char_literal@ 00446a8c     js-lexer.obj
 0002:0000ec68       ??_C@_0EM@IMOAOPKL@literal_type?5?$DN?$DN?5LEXER_IDENT_LIT@ 00446aa8     js-lexer.obj
 0002:0000ecb8       ??_C@_0EN@ENJCLNFN@literal_type?5?$CB?$DN?5LEXER_IDENT_LIT@ 00446af8     js-lexer.obj
 0002:0000ed08       ??_C@_0EP@CNILOKOH@literal_type?5?$CB?$DN?5LEXER_STRING_LI@ 00446b48     js-lexer.obj
 0002:0000ed58       ??_C@_0CK@IFLDPLDK@literal_index?5?$DN?$DN?5context_p?9?$DOlit@ 00446b98     js-lexer.obj
 0002:0000ed84       ??_C@_0BP@PDOKHJIA@lexer_construct_literal_object@ 00446bc4     js-lexer.obj
 0002:0000eda8       ??_C@_0FC@CCMAPAHG@literal_p?9?$DOtype?5?$DN?$DN?5LEXER_IDENT_@ 00446be8     js-lexer.obj
 0002:0000edfc       ??_C@_0CG@IODHECDH@context_p?9?$DOallocated_buffer_p?5?$DN@ 00446c3c     js-lexer.obj
 0002:0000ee24       ??_C@_0DB@OMIALFBD@literal_p?9?$DOlength?5?$DM?$DN?5PARSER_MAX@ 00446c64     js-lexer.obj
 0002:0000ee58       ??_C@_0DJ@MKBJBN@destination_p?5?$DN?$DN?5destination_st@ 00446c98     js-lexer.obj
 0002:0000ee94       ??_C@_0CD@NOLNMDCJ@source_p?5?$DM?5context_p?9?$DOsource_en@ 00446cd4     js-lexer.obj
 0002:0000eeb8       ??_C@_0DK@DJIBMDNI@source_p?5?$CL?51?5?$CL?5hex_part_length?5@ 00446cf8     js-lexer.obj
 0002:0000eef4       ??_C@_07FBGLGHH@rgument@   00446d34     js-lexer.obj
 0002:0000eefc       ??_C@_0DF@MEOANBEG@context_p?9?$DOallocated_buffer_p?5?$DN@ 00446d3c     js-lexer.obj
 0002:0000ef34       ??_C@_0BO@FFKEMBNB@lexer_construct_number_object@ 00446d74     js-lexer.obj
 0002:0000ef54       ??_C@_0BO@JCEOBFHG@lexer_construct_regexp_object@ 00446d94     js-lexer.obj
 0002:0000ef78       ??_C@_0FG@OOHCGBFH@context_p?9?$DOtoken?4type?5?$DN?$DN?5LEXER_@ 00446db8     js-lexer.obj
 0002:0000efd0       ??_C@_0BI@PIEIHCBN@lexer_expect_identifier@ 00446e10     js-lexer.obj
 0002:0000efe8       ??_C@_0EM@HJLFJIKD@literal_type?5?$DN?$DN?5LEXER_STRING_LI@ 00446e28     js-lexer.obj
 0002:0000f034       ??_C@_0DN@KJNBJHNG@context_p?9?$DOlit_object?4type?5?$DN?$DN?5L@ 00446e74     js-lexer.obj
 0002:0000f074       ??_C@_0CE@KGHAFNCC@lexer_compare_identifier_to_cur@ 00446eb4     js-lexer.obj
 0002:0000f098       ??_C@_0CG@KHFBGMOH@left?9?$DOlength?5?$DO?50?5?$CG?$CG?5right?9?$DOleng@ 00446ed8     js-lexer.obj
 0002:0000f0c0       ??_C@_0N@EELILEGI@utf8_len?5?$DO?50@ 00446f00     js-lexer.obj
 0002:0000f0f4       ??_C@_0BD@FBPLEGGI@parser_push_result@ 00446f34     js-parser-expr.obj
 0002:0000f108       ??_C@_0FA@HBPBECAL@d?3?2hellox?2personal?2hellox_os?2je@ 00446f48     js-parser-expr.obj
 0002:0000f158       ??_C@_0EL@MMAJCLHB@CBC_SAME_ARGS?5?$CIcontext_p?9?$DOlast_@ 00446f98     js-parser-expr.obj
 0002:0000f1a4       ??_C@_0DB@JGPEHJAK@context_p?9?$DOstack_depth?5?$DN?$DN?5conte@ 00446fe4     js-parser-expr.obj
 0002:0000f1d8       ??_C@_0CA@LFEBJJKD@parser_emit_unary_lvalue_opcode@ 00447018     js-parser-expr.obj
 0002:0000f1f8       ??_C@_0EK@MLJOHJGK@context_p?9?$DOlast_cbc?4literal_obj@ 00447038     js-parser-expr.obj
 0002:0000f244       ??_C@_0DG@EBIOOOIB@context_p?9?$DOlast_cbc_opcode?5?$DN?$DN?5C@ 00447084     js-parser-expr.obj
 0002:0000f280       ??_C@_0EH@KGIPHBJL@CBC_SAME_ARGS?5?$CICBC_PUSH_LITERAL@ 004470c0     js-parser-expr.obj
 0002:0000f2c8       ??_C@_0CG@KBDIPMNF@CBC_SAME_ARGS?5?$CICBC_PUSH_PROP?0?5o@ 00447108     js-parser-expr.obj
 0002:0000f2f0       ??_C@_0DI@NLKALILK@CBC_SAME_ARGS?5?$CICBC_PUSH_PROP_LI@ 00447130     js-parser-expr.obj
 0002:0000f328       ??_C@_0EF@PGLGODD@CBC_SAME_ARGS?5?$CICBC_PUSH_PROP_LI@ 00447168     js-parser-expr.obj
 0002:0000f370       ??_C@_0EC@IKOMLPD@CBC_SAME_ARGS?5?$CICBC_PUSH_PROP_TH@ 004471b0     js-parser-expr.obj
 0002:0000f3b4       ??_C@_0BL@KCHDFLFN@parser_parse_array_literal@ 004471f4     js-parser-expr.obj
 0002:0000f3d0       ??_C@_0CL@OMLPDGBO@context_p?9?$DOtoken?4type?5?$DN?$DN?5LEXER_@ 00447210     js-parser-expr.obj
 0002:0000f3fc       ??_C@_0BM@EIHMIKPD@parser_parse_object_literal@ 0044723c     js-parser-expr.obj
 0002:0000f418       ??_C@_0CK@IMCELGAA@context_p?9?$DOtoken?4type?5?$DN?$DN?5LEXER_@ 00447258     js-parser-expr.obj
 0002:0000f444       ??_C@_0CP@KMMGGEJG@context_p?9?$DOlast_cbc_opcode?5?$DN?$DN?5C@ 00447284     js-parser-expr.obj
 0002:0000f474       ??_C@_0BO@PGAIGIGO@parser_parse_unary_expression@ 004472b4     js-parser-expr.obj
 0002:0000f494       ??_C@_0DO@MCHBJLJH@context_p?9?$DOlit_object?4index?5?$DM?$DN?5@ 004472d4     js-parser-expr.obj
 0002:0000f4d4       ??_C@_0DF@LKKBEPJA@context_p?9?$DOlast_cbc_opcode?5?$DN?$DN?5P@ 00447314     js-parser-expr.obj
 0002:0000f50c       ??_C@_0CA@DGOCKFBG@parser_process_unary_expression@ 0044734c     js-parser-expr.obj
 0002:0000f530       ??_C@_0GF@NILFGCDP@context_p?9?$DOtoken?4type?5?$DN?$DN?5LEXER_@ 00447370     js-parser-expr.obj
 0002:0000f598       ??_C@_0FI@CDJAGNBN@CBC_ARGS_EQ?5?$CICBC_PUSH_PROP_LITE@ 004473d8     js-parser-expr.obj
 0002:0000f5f0       ??_C@_0DI@EGOOPCFE@context_p?9?$DOlast_cbc?4literal_typ@ 00447430     js-parser-expr.obj
 0002:0000f628       ??_C@_0BL@DNPKOJGP@context_p?9?$DOstack_depth?5?$DO?50@ 00447468     js-parser-expr.obj
 0002:0000f644       ??_C@_0DG@PEPNDDHC@CBC_SAME_ARGS?5?$CIcontext_p?9?$DOlast_@ 00447484     js-parser-expr.obj
 0002:0000f67c       ??_C@_0BL@MOMCNCPH@parser_append_binary_token@ 004474bc     js-parser-expr.obj
 0002:0000f698       ??_C@_0DB@KBOJFHLJ@LEXER_IS_BINARY_OP_TOKEN?5?$CIconte@ 004474d8     js-parser-expr.obj
 0002:0000f6cc       ??_C@_0DH@LJCAIBOG@CBC_SAME_ARGS?5?$CICBC_PUSH_LITERAL@ 0044750c     js-parser-expr.obj
 0002:0000f704       ??_C@_0CK@KKLFPMFM@CBC_SAME_ARGS?5?$CICBC_PUSH_PROP?0?5C@ 00447544     js-parser-expr.obj
 0002:0000f730       ??_C@_0DP@EJMCMDAC@CBC_SAME_ARGS?5?$CICBC_PUSH_PROP_LI@ 00447570     js-parser-expr.obj
 0002:0000f770       ??_C@_0EJ@OELHIFIB@CBC_SAME_ARGS?5?$CICBC_PUSH_PROP_TH@ 004475b0     js-parser-expr.obj
 0002:0000f7bc       ??_C@_0DH@GBEELAHA@CBC_SAME_ARGS?5?$CICBC_PUSH_PROP?0?5C@ 004475fc     js-parser-expr.obj
 0002:0000f7f8       ??_C@_0EH@GLGOLANB@CBC_SAME_ARGS?5?$CICBC_PUSH_PROP_LI@ 00447638     js-parser-expr.obj
 0002:0000f840       ??_C@_0FH@OIPMDCAB@CBC_SAME_ARGS?5?$CICBC_PUSH_PROP_LI@ 00447680     js-parser-expr.obj
 0002:0000f898       ??_C@_0FB@BAGCOAKC@CBC_SAME_ARGS?5?$CICBC_PUSH_PROP_TH@ 004476d8     js-parser-expr.obj
 0002:0000f8ec       ??_C@_0BO@JBFMBLEN@parser_process_binary_opcodes@ 0044772c     js-parser-expr.obj
 0002:0000f910       ??_C@_0FH@IMKJOKGP@CBC_ARGS_EQ?5?$CICBC_ASSIGN_LITERAL@ 00447750     js-parser-expr.obj
 0002:0000f968       ??_C@_0EL@IMIABGJL@CBC_ARGS_EQ?5?$CIopcode?5?$CL?5CBC_BINAR@ 004477a8     js-parser-expr.obj
 0002:0000f9b8       ??_C@_0EN@KMAOJAIN@CBC_SAME_ARGS?5?$CIcontext_p?9?$DOlast_@ 004477f8     js-parser-expr.obj
 0002:0000fa08       ??_C@_0GA@MIGIIEAI@CBC_ARGS_EQ?5?$CIopcode?5?$CL?5CBC_BINAR@ 00447848     js-parser-expr.obj
 0002:0000fa68       ??_C@_0BI@MDCDKJDA@parser_parse_expression@ 004478a8     js-parser-expr.obj
 0002:0000fa80       ??_C@_0BD@JIHJMGFC@grouping_level?5?$DO?50@ 004478c0     js-parser-expr.obj
 0002:0000fa94       ??_C@_0P@KGLFGPFF@page_p?5?$CB?$DN?5NULL@ 004478d4     js-parser-expr.obj
 0002:0000faa4       ??_C@_0DF@EIOMIMGK@context_p?9?$DOstack_top_uint8?5?$DN?$DN?5L@ 004478e4     js-parser-expr.obj
 0002:0000fae0       ??_C@_0EL@MOEPJFCI@CBC_SAME_ARGS?5?$CIcontext_p?9?$DOlast_@ 00447920     js-parser-expr.obj
 0002:0000fb2c       ??_C@_0O@NEMCEPGG@parser_malloc@ 0044796c     js-parser-mem.obj
 0002:0000fb40       ??_C@_0EP@GCFNAKCG@d?3?2hellox?2personal?2hellox_os?2je@ 00447980     js-parser-mem.obj
 0002:0000fb90       ??_C@_0BE@EKMNPDAM@parser_malloc_local@ 004479d0     js-parser-mem.obj
 0002:0000fba4       ??_C@_0BA@EEEFLNCN@parser_list_get@ 004479e4     js-parser-mem.obj
 0002:0000fbb8       ??_C@_0FK@CJCACJAK@page_p?5?$CB?$DN?5list_p?9?$DOdata?4last_p?5?$HM@ 004479f8     js-parser-mem.obj
 0002:0000fc14       ??_C@_0BI@KKHKDOBB@parser_stack_push_uint8@ 00447a54     js-parser-mem.obj
 0002:0000fc30       ??_C@_0GC@OIMHFAPE@page_p?5?$DN?$DN?5NULL?5?$HM?$HM?5context_p?9?$DOst@ 00447a70     js-parser-mem.obj
 0002:0000fc94       ??_C@_0BH@FBFIOAOF@parser_stack_pop_uint8@ 00447ad4     js-parser-mem.obj
 0002:0000fcb0       ??_C@_0GC@FANCAHJM@page_p?5?$CB?$DN?5NULL?5?$CG?$CG?5context_p?9?$DOst@ 00447af0     js-parser-mem.obj
 0002:0000fd14       ??_C@_0BJ@OMNHPADG@parser_stack_push_uint16@ 00447b54     js-parser-mem.obj
 0002:0000fd30       ??_C@_0BI@FGPMOEON@parser_stack_pop_uint16@ 00447b70     js-parser-mem.obj
 0002:0000fd48       ??_C@_0BC@NBMGPFLL@parser_stack_push@ 00447b88     js-parser-mem.obj
 0002:0000fd5c       ??_C@_0CO@GKCKKKEF@length?5?$DM?5PARSER_STACK_PAGE_SIZE@ 00447b9c     js-parser-mem.obj
 0002:0000fd8c       ??_C@_0BB@EGHNGKL@parser_stack_pop@ 00447bcc     js-parser-mem.obj
 0002:0000fda0       ??_C@_0BH@NDGPONPM@page_p?9?$DOnext_p?5?$CB?$DN?5NULL@ 00447be0     js-parser-mem.obj
 0002:0000fdb8       ??_C@_0CD@EPDBHJOP@context_p?9?$DOstack?4last_position?5@ 00447bf8     js-parser-mem.obj
 0002:0000fddc       ??_C@_0BL@JHPJLIEL@parser_stack_iterator_skip@ 00447c1c     js-parser-mem.obj
 0002:0000fdf8       ??_C@_0BL@GKPLGACF@parser_stack_iterator_read@ 00447c38     js-parser-mem.obj
 0002:0000fe14       ??_C@_0CE@MNIADGIG@iterator?9?$DOcurrent_p?9?$DOnext_p?5?$CB?$DN?5@ 00447c54     js-parser-mem.obj
 0002:0000fe38       ??_C@_0BM@IHLOBHL@parser_stack_iterator_write@ 00447c78     js-parser-mem.obj
 0002:0000fe54       ??_C@_0BC@GHBLHAMO@parser_scan_until@ 00447c94     js-parser-scanner.obj
 0002:0000fe68       ??_C@_0FD@CNMHCOME@d?3?2hellox?2personal?2hellox_os?2je@ 00447ca8     js-parser-scanner.obj
 0002:0000fec0       ??_C@_0HO@PLMMEKLE@stack_top?5?$DN?$DN?5SCAN_STACK_BLOCK_S@ 00447d00     js-parser-scanner.obj
 0002:0000ff40       ??_C@_0CH@IEFHADIL@stack_top?5?$DN?$DN?5SCAN_STACK_OBJECT_@ 00447d80     js-parser-scanner.obj
 0002:0000ff74       ??_C@_0BI@KPLJFKDH@parser_statement_length@ 00447db4     js-parser-statm.obj
 0002:0000ff90       ??_C@_0FB@BCCOIPKI@d?3?2hellox?2personal?2hellox_os?2je@ 00447dd0     js-parser-statm.obj
 0002:0000ffe4       ??_C@_0DP@FFHJDIAC@type?5?$DO?$DN?5PARSER_STATEMENT_BLOCK?5@ 00447e24     js-parser-statm.obj
 0002:00010024       ??_C@_0CB@FPLKNAMP@parser_stack_iterator_read_uint@ 00447e64     js-parser-statm.obj
 0002:00010048       ??_C@_0FH@KDMDIAGM@iterator?9?$DOcurrent_position?5?$DO?50?5@ 00447e88     js-parser-statm.obj
 0002:000100a0       ??_C@_0BP@FDLOPGIE@parser_stack_change_last_uint8@ 00447ee0     js-parser-statm.obj
 0002:000100c0       ??_C@_0BL@OECECJCK@parser_parse_var_statement@ 00447f00     js-parser-statm.obj
 0002:000100dc       ??_C@_0CI@JEOGHMMI@context_p?9?$DOtoken?4type?5?$DN?$DN?5LEXER_@ 00447f1c     js-parser-statm.obj
 0002:00010108       ??_C@_0GE@JFEKPCNM@context_p?9?$DOtoken?4type?5?$DN?$DN?5LEXER_@ 00447f48     js-parser-statm.obj
 0002:00010170       ??_C@_0GK@GBPGDIOH@context_p?9?$DOlast_cbc_opcode?5?$DN?$DN?5C@ 00447fb0     js-parser-statm.obj
 0002:000101dc       ??_C@_0CA@EKOHAEHH@parser_parse_function_statement@ 0044801c     js-parser-statm.obj
 0002:000101fc       ??_C@_0CN@DPOHKCA@context_p?9?$DOtoken?4type?5?$DN?$DN?5LEXER_@ 0044803c     js-parser-statm.obj
 0002:00010230       ??_C@_0HI@CLAGPJPL@context_p?9?$DOlit_object?4type?5?$DN?$DN?5L@ 00448070     js-parser-statm.obj
 0002:000102a8       ??_C@_0EK@BLCOFANA@literal_p?9?$DOtype?5?$DN?$DN?5LEXER_FUNCTI@ 004480e8     js-parser-statm.obj
 0002:000102f4       ??_C@_0BO@DNKMMMLO@parser_parse_if_statement_end@ 00448134     js-parser-statm.obj
 0002:00010314       ??_C@_0DC@HLECALCO@context_p?9?$DOstack_top_uint8?5?$DN?$DN?5P@ 00448154     js-parser-statm.obj
 0002:00010348       ??_C@_0CA@JBHGOHNE@parser_parse_with_statement_end@ 00448188     js-parser-statm.obj
 0002:00010368       ??_C@_0CN@GELIGKOE@context_p?9?$DOstatus_flags?5?$CG?5PARSE@ 004481a8     js-parser-statm.obj
 0002:00010398       ??_C@_0CE@EHNBDDFE@parser_parse_do_while_statement@ 004481d8     js-parser-statm.obj
 0002:000103bc       ??_C@_0DI@HDMINEOG@context_p?9?$DOstack_top_uint8?5?$DN?$DN?5P@ 004481fc     js-parser-statm.obj
 0002:000103f4       ??_C@_0CD@EMGBLGJK@parser_parse_while_statement_st@ 00448234     js-parser-statm.obj
 0002:00010418       ??_C@_0CK@OPEKFKBJ@context_p?9?$DOtoken?4type?5?$DN?$DN?5LEXER_@ 00448258     js-parser-statm.obj
 0002:00010444       ??_C@_0CB@GMEGMGIJ@parser_parse_while_statement_en@ 00448284     js-parser-statm.obj
 0002:00010468       ??_C@_0DF@NNILJHDP@context_p?9?$DOstack_top_uint8?5?$DN?$DN?5P@ 004482a8     js-parser-statm.obj
 0002:000104a0       ??_C@_0CB@FECDKGBH@parser_parse_for_statement_star@ 004482e0     js-parser-statm.obj
 0002:000104c4       ??_C@_0CI@MOGBAGFN@context_p?9?$DOtoken?4type?5?$DN?$DN?5LEXER_@ 00448304     js-parser-statm.obj
 0002:000104f0       ??_C@_0EF@OHOCIEJ@opcode?5?$CB?$DN?5CBC_PUSH_TWO_LITERALS@ 00448330     js-parser-statm.obj
 0002:00010538       ??_C@_0BP@DEHIEGNO@parser_parse_for_statement_end@ 00448378     js-parser-statm.obj
 0002:00010558       ??_C@_0DD@DJCFLML@context_p?9?$DOstack_top_uint8?5?$DN?$DN?5P@ 00448398     js-parser-statm.obj
 0002:0001058c       ??_C@_0CE@MEDNEHMC@parser_parse_switch_statement_s@ 004483cc     js-parser-statm.obj
 0002:000105b0       ??_C@_0CL@MLMLLAAI@context_p?9?$DOtoken?4type?5?$DN?$DN?5LEXER_@ 004483f0     js-parser-statm.obj
 0002:000105dc       ??_C@_0DA@ONMIOIFC@switch_case_was_found?5?$HM?$HM?5defaul@ 0044841c     js-parser-statm.obj
 0002:0001060c       ??_C@_0BP@EADLGAJH@parser_parse_try_statement_end@ 0044844c     js-parser-statm.obj
 0002:0001062c       ??_C@_0DD@OIICNDH@context_p?9?$DOstack_top_uint8?5?$DN?$DN?5P@ 0044846c     js-parser-statm.obj
 0002:00010660       ??_C@_0CM@IMLMONID@context_p?9?$DOtoken?4type?5?$DN?$DN?5LEXER_@ 004484a0     js-parser-statm.obj
 0002:0001068c       ??_C@_0BP@DBMHFLB@parser_parse_default_statement@ 004484cc     js-parser-statm.obj
 0002:000106ac       ??_C@_0CF@GFHKEOJK@context_p?9?$DOtoken?4type?5?$DN?$DN?5LEXER_@ 004484ec     js-parser-statm.obj
 0002:000106d4       ??_C@_0BM@KDANLGEA@parser_parse_case_statement@ 00448514     js-parser-statm.obj
 0002:000106f0       ??_C@_0BB@LCINFHJF@branch_p?5?$CB?$DN?5NULL@ 00448530     js-parser-statm.obj
 0002:00010704       ??_C@_0BI@EGDMABHO@parser_parse_statements@ 00448544     js-parser-statm.obj
 0002:0001071c       ??_C@_0CM@JDFAAOMG@context_p?9?$DOlast_statement?4curre@ 0044855c     js-parser-statm.obj
 0002:00010748       ??_C@_0BM@PLIDOGDB@context_p?9?$DOstack_depth?5?$DN?$DN?50@ 00448588     js-parser-statm.obj
 0002:00010764       ??_C@_0L@GADMGPEI@use?5strict@ 004485a4     js-parser-statm.obj
 0002:00010770       ??_C@_0DJ@EKOBMMML@context_p?9?$DOstack_depth?5?$DN?$DN?5conte@ 004485b0     js-parser-statm.obj
 0002:000107ac       ??_C@_0CH@LJPHGNBK@switch_statement?4branch_list_p?5@ 004485ec     js-parser-statm.obj
 0002:000107d4       ??_C@_0CE@FEOOJBPF@context_p?9?$DOcontext_stack_depth?5@ 00448614     js-parser-statm.obj
 0002:000107f8       ??_C@_0BB@OANIIHGP@parser_flush_cbc@ 00448638     js-parser-util.obj
 0002:00010810       ??_C@_0FA@LMNLMLOB@d?3?2hellox?2personal?2hellox_os?2je@ 00448650     js-parser-util.obj
 0002:00010860       ??_C@_0JE@IKPNPBKO@?$CIflags?5?$DO?$DO?5CBC_STACK_ADJUST_SHIF@ 004486a0     js-parser-util.obj
 0002:000108f4       ??_C@_0DE@HLBMNOFO@context_p?9?$DOlast_cbc?4value?5?$DM?$DN?5CB@ 00448734     js-parser-util.obj
 0002:00010928       ??_C@_0CI@GLAAIACA@context_p?9?$DOstack_depth?5?$DO?$DN?5byte_@ 00448768     js-parser-util.obj
 0002:00010950       ??_C@_0BA@CAKMMDEI@parser_emit_cbc@ 00448790     js-parser-util.obj
 0002:00010960       ??_C@_0BL@ECBFMAOF@PARSER_ARGS_EQ?5?$CIopcode?0?50?$CJ@ 004487a0     js-parser-util.obj
 0002:0001097c       ??_C@_0BI@BMBJMKPL@parser_emit_cbc_literal@ 004487bc     js-parser-util.obj
 0002:00010994       ??_C@_0CN@GLOPHOBM@PARSER_ARGS_EQ?5?$CIopcode?0?5CBC_HAS@ 004487d4     js-parser-util.obj
 0002:000109c4       ??_C@_0CD@CFAHJAEH@parser_emit_cbc_literal_from_to@ 00448804     js-parser-util.obj
 0002:000109e8       ??_C@_0BF@GBMIODPA@parser_emit_cbc_call@ 00448828     js-parser-util.obj
 0002:00010a00       ??_C@_0CK@EJMHMPAG@PARSER_ARGS_EQ?5?$CIopcode?0?5CBC_HAS@ 00448840     js-parser-util.obj
 0002:00010a2c       ??_C@_0CJ@FBNIGFMH@call_arguments?5?$DM?$DN?5CBC_MAXIMUM_B@ 0044886c     js-parser-util.obj
 0002:00010a58       ??_C@_0BM@OPEJLHMO@parser_emit_cbc_push_number@ 00448898     js-parser-util.obj
 0002:00010a74       ??_C@_0DF@INFGBFGJ@value?5?$DO?50?5?$CG?$CG?5value?5?$DM?$DN?5CBC_PUSH_@ 004488b4     js-parser-util.obj
 0002:00010aac       ??_C@_0DA@PKPNCKBA@CBC_STACK_ADJUST_VALUE?5?$CIcbc_fla@ 004488ec     js-parser-util.obj
 0002:00010adc       ??_C@_0BP@HALALEHF@parser_emit_cbc_forward_branch@ 0044891c     js-parser-util.obj
 0002:00010afc       ??_C@_0BL@JEKLBCNA@flags?5?$CG?5CBC_HAS_BRANCH_ARG@ 0044893c     js-parser-util.obj
 0002:00010b18       ??_C@_0BO@PFFPAFCK@CBC_BRANCH_IS_FORWARD?5?$CIflags?$CJ@ 00448958     js-parser-util.obj
 0002:00010b38       ??_C@_0CH@PGCIOFNE@CBC_BRANCH_OFFSET_LENGTH?5?$CIopcod@ 00448978     js-parser-util.obj
 0002:00010b60       ??_C@_0CA@LDKHANKN@parser_emit_cbc_backward_branch@ 004489a0     js-parser-util.obj
 0002:00010b80       ??_C@_0BP@CCEGHNGK@CBC_BRANCH_IS_BACKWARD?5?$CIflags?$CJ@ 004489c0     js-parser-util.obj
 0002:00010ba0       ??_C@_0CE@HHLBGHGF@offset?5?$DM?$DN?5context_p?9?$DObyte_code_@ 004489e0     js-parser-util.obj
 0002:00010bc4       ??_C@_0CG@ENDEFPKF@parser_set_branch_to_current_po@ 00448a04     js-parser-util.obj
 0002:00010bec       ??_C@_0DE@LNDFBGI@context_p?9?$DObyte_code_size?5?$DO?5?$CIbr@ 00448a2c     js-parser-util.obj
 0002:00010c20       ??_C@_0CC@MIKKOBLO@delta?5?$DM?$DN?5PARSER_MAXIMUM_CODE_SI@ 00448a60     js-parser-util.obj
 0002:00010c44       ??_C@_0BI@GJCKBKB@parser_compute_indicies@ 00448a84     js-parser.obj
 0002:00010c60       ??_C@_0EL@FIDPFEGO@d?3?2hellox?2personal?2hellox_os?2je@ 00448aa0     js-parser.obj
 0002:00010cac       ??_C@_0CE@DLEOJIPI@literal_p?5?$DN?$DN?5PARSER_GET_LITERAL@ 00448aec     js-parser.obj
 0002:00010cd0       ??_C@_0FB@OHMGKGPC@?$CIliteral_p?9?$DOstatus_flags?5?$CG?5?$HO?$CILE@ 00448b10     js-parser.obj
 0002:00010d24       ??_C@_0BN@NGBJLMNB@literal_p?9?$DOstatus_flags?5?$DN?$DN?50@ 00448b64     js-parser.obj
 0002:00010d48       ??_C@_0FF@NKBJFFD@literal_p?9?$DOtype?5?$DN?$DN?5LEXER_FUNCTI@ 00448b88     js-parser.obj
 0002:00010da0       ??_C@_0FJ@GEKKLMGH@?$CIliteral_p?9?$DOstatus_flags?5?$CG?5?$HO?$CILE@ 00448be0     js-parser.obj
 0002:00010dfc       ??_C@_0DE@MNHDGKKH@register_count?5?$DM?5PARSER_MAXIMUM@ 00448c3c     js-parser.obj
 0002:00010e30       ??_C@_0EJ@BBFIALHI@func_literal_p?5?$CB?$DN?5NULL?5?$CG?$CG?5func_@ 00448c70     js-parser.obj
 0002:00010e7c       ??_C@_0CM@LJEONLCD@argument_count?5?$DN?$DN?5context_p?9?$DOar@ 00448cbc     js-parser.obj
 0002:00010ea8       ??_C@_0CB@PHPLJGMH@register_index?5?$DN?$DN?5register_coun@ 00448ce8     js-parser.obj
 0002:00010ed0       ??_C@_0EE@BOLKDCMM@uninitialized_var_index?5?$DN?$DN?5regi@ 00448d10     js-parser.obj
 0002:00010f18       ??_C@_0EJ@PEEIOLGJ@initialized_var_index?5?$DN?$DN?5uninit@ 00448d58     js-parser.obj
 0002:00010f64       ??_C@_0DD@MMDHAHLE@ident_index?5?$DN?$DN?5initialized_var_@ 00448da4     js-parser.obj
 0002:00010f98       ??_C@_0DJ@CPGCFOJP@const_literal_index?5?$DN?$DN?5ident_in@ 00448dd8     js-parser.obj
 0002:00010fd4       ??_C@_0BN@DJGFMBMD@parser_generate_initializers@ 00448e14     js-parser.obj
 0002:00010ff4       ??_C@_0CH@HLMEBNMP@literal_p?9?$DOtype?5?$DN?$DN?5LEXER_IDENT_@ 00448e34     js-parser.obj
 0002:0001101c       ??_C@_0CE@HOFAGCEI@literal_p?9?$DOprop?4index?5?$DN?$DN?5next_i@ 00448e5c     js-parser.obj
 0002:00011040       ??_C@_0DP@OIBAAHPN@literal_p?5?$CB?$DN?5NULL?5?$CG?$CG?5literal_p?9@ 00448e80     js-parser.obj
 0002:00011080       ??_C@_0CI@HJMFLLDC@literal_p?9?$DOtype?5?$DN?$DN?5LEXER_NUMBER@ 00448ec0     js-parser.obj
 0002:000110a8       ??_C@_0BO@IJHHMIBL@parser_update_backward_branch@ 00448ee8     js-parser.obj
 0002:000110c8       ??_C@_0BG@FDEFDPGI@parse_update_branches@ 00448f08     js-parser.obj
 0002:000110e0       ??_C@_0BE@FFPEECPH@target_distance?5?$DO?50@ 00448f20     js-parser.obj
 0002:000110f4       ??_C@_0CL@CKDHOCMC@last_page_p?5?$DN?$DN?5context_p?9?$DObyte_@ 00448f34     js-parser.obj
 0002:00011120       ??_C@_0BH@BJHLGMNM@parser_post_processing@ 00448f60     js-parser.obj
 0002:00011138       ??_C@_0DO@GNFOEOHA@context_p?9?$DOliteral_count?5?$DM?$DN?5PAR@ 00448f78     js-parser.obj
 0002:00011178       ??_C@_0DN@PONCGBGC@literal_p?5?$CB?$DN?5NULL?5?$CG?$CG?5literal_p?9@ 00448fb8     js-parser.obj
 0002:000111b8       ??_C@_0CJ@CNIJKJIL@literal_index?5?$DM?$DN?5CBC_MAXIMUM_SM@ 00448ff8     js-parser.obj
 0002:000111e4       ??_C@_0CI@JPMBDDFI@literal_index?5?$DM?$DN?5CBC_MAXIMUM_FU@ 00449024     js-parser.obj
 0002:0001120c       ??_C@_0DG@CNEKDGCK@branch_offset_length?5?$DO?50?5?$CG?$CG?5bra@ 0044904c     js-parser.obj
 0002:00011244       ??_C@_0CL@HFBDGKDM@dst_p?5?$DN?$DN?5byte_code_p?5?$CL?5initiali@ 00449084     js-parser.obj
 0002:00011270       ??_C@_0FF@OIBIOMJB@?$CB?$CIflags?5?$CG?5CBC_HAS_BRANCH_ARG?$CJ?5?$HM@ 004490b0     js-parser.obj
 0002:000112c8       ??_C@_0BO@GGAHHEHD@dst_p?5?$DN?$DN?5byte_code_p?5?$CL?5length@ 00449108     js-parser.obj
 0002:000112e8       ??_C@_0BC@KEDBODNH@literal_p?5?$CB?$DN?5NULL@ 00449128     js-parser.obj
 0002:00011300       ??_C@_0FF@HFKNNNKG@literal_p?9?$DOtype?5?$DN?$DN?5LEXER_IDENT_@ 00449140     js-parser.obj
 0002:00011358       ??_C@_0CH@PIOAKCCB@argument_count?5?$DM?5literal_p?9?$DOpro@ 00449198     js-parser.obj
 0002:00011380       ??_C@_0BE@EKLFDNBE@parser_parse_source@ 004491c0     js-parser.obj
 0002:00011398       ??_C@_0MA@IDLFKCIF@context?4stack_top_uint8?5?$DN?$DN?5CBC_@ 004491d8     js-parser.obj
 0002:00011458       ??_C@_0CJ@IJDJGBGK@context?4last_statement?4current_@ 00449298     js-parser.obj
 0002:00011484       ??_C@_0DC@NJJKELE@context?4last_cbc_opcode?5?$DN?$DN?5PARS@ 004492c4     js-parser.obj
 0002:000114b8       ??_C@_0CD@LNDDKCKE@context?4allocated_buffer_p?5?$DN?$DN?5N@ 004492f8     js-parser.obj
 0002:000114dc       ??_C@_0BG@PAFKNMDI@parser_parse_function@ 0044931c     js-parser.obj
 0002:000114f4       ??_C@_0CC@GLAOIFAK@status_flags?5?$CG?5PARSER_IS_FUNCTI@ 00449334     js-parser.obj
 0002:00011518       ??_C@_0BD@PDDKLNAM@parser_raise_error@ 00449358     js-parser.obj
 0002:0001152c       ??_C@_01GBGANLPD@0@        0044936c     js-parser.obj
 0002:00011530       ??_C@_0CB@GPICFBNF@re_realloc_regexp_bytecode_bloc@ 00449370     re-bytecode.obj
 0002:00011558       ??_C@_0FB@EGAOLEEK@d?3?2hellox?2personal?2hellox_os?2je@ 00449398     re-bytecode.obj
 0002:000115ac       ??_C@_0DB@BNHEJCNJ@bc_ctx_p?9?$DOblock_end_p?5?$DO?$DN?5bc_ctx@ 004493ec     re-bytecode.obj
 0002:000115e0       ??_C@_0JK@JOOKCEBD@?$CI?$CBbc_ctx_p?9?$DOcurrent_p?5?$CG?$CG?5?$CBbc_ct@ 00449420     re-bytecode.obj
 0002:0001167c       ??_C@_0CP@IKPAFAGL@bc_ctx_p?9?$DOcurrent_p?5?$DO?$DN?5bc_ctx_p@ 004494bc     re-bytecode.obj
 0002:000116ac       ??_C@_0BI@PALGJDLM@re_bytecode_list_append@ 004494ec     re-bytecode.obj
 0002:000116c4       ??_C@_0CF@JBOJMCBJ@length?5?$DM?$DN?5REGEXP_BYTECODE_BLOCK@ 00449504     re-bytecode.obj
 0002:000116ec       ??_C@_0BI@OCNLIMKF@re_bytecode_list_insert@ 0044952c     re-bytecode.obj
 0002:00011704       ??_C@_0BK@BFKBAMBD@re_insert_simple_iterator@ 00449544     re-compiler.obj
 0002:00011720       ??_C@_0FB@ELECDKDG@d?3?2hellox?2personal?2hellox_os?2je@ 00449560     re-compiler.obj
 0002:00011774       ??_C@_0N@PICFFMJJ@qmin?5?$DM?$DN?5qmax@ 004495b4     re-compiler.obj
 0002:00011784       ??_C@_0BF@ODBJJKLI@re_insert_into_group@ 004495c4     re-compiler.obj
 0002:0001179c       ??_C@_0BF@MLFAMADF@re_parse_alternative@ 004495dc     re-compiler.obj
 0002:000117b4       ??_C@_0CJ@HJDNGILC@Compile?5a?5capture?5group?5start?5?$CI@ 004495f4     re-compiler.obj
 0002:000117e0       ??_C@_0CN@CNOABILC@Compile?5a?5non?9capture?5group?5sta@ 00449620     re-compiler.obj
 0002:00011810       ??_C@_0DB@NDHOOPL@Compile?5character?5token?3?5?$CFc?0?5qm@ 00449650     re-compiler.obj
 0002:00011844       ??_C@_0BC@GMGKBPA@Compile?5a?5period?6@ 00449684     re-compiler.obj
 0002:00011858       ??_C@_0BI@KBBBLC@Compile?5an?5alternative?6@ 00449698     re-compiler.obj
 0002:00011870       ??_C@_0BL@BFEFPCNK@Compile?5a?5start?5assertion?6@ 004496b0     re-compiler.obj
 0002:0001188c       ??_C@_0BK@EFEKFFOC@Compile?5an?5end?5assertion?6@ 004496cc     re-compiler.obj
 0002:000118a8       ??_C@_0CD@GFJIAIKE@Compile?5a?5word?5boundary?5asserti@ 004496e8     re-compiler.obj
 0002:000118cc       ??_C@_0CH@NFBCIDAI@Compile?5a?5not?5word?5boundary?5ass@ 0044970c     re-compiler.obj
 0002:000118f4       ??_C@_0CI@IDCNMMAD@Compile?5a?5positive?5lookahead?5as@ 00449734     re-compiler.obj
 0002:0001191c       ??_C@_0CI@PFCMCAPE@Compile?5a?5negative?5lookahead?5as@ 0044975c     re-compiler.obj
 0002:00011944       ??_C@_0BN@GBOLDADG@Compile?5a?5backreference?3?5?$CFu?6@ 00449784     re-compiler.obj
 0002:00011964       ??_C@_0BL@DOLODDJN@Compile?5a?5character?5class?6@ 004497a4     re-compiler.obj
 0002:00011980       ??_C@_0BF@DEAOBMOH@Compile?5a?5group?5end?6@ 004497c0     re-compiler.obj
 0002:00011998       ??_C@_0BK@DHJCMMEK@RegExp?5is?5found?5in?5cache?6@ 004497d8     re-compiler.obj
 0002:000119b4       ??_C@_0BO@DMKILNDP@RegExp?5is?5NOT?5found?5in?5cache?6@ 004497f4     re-compiler.obj
 0002:000119d4       ??_C@_0BE@KHEPPNND@re_compile_bytecode@ 00449814     re-compiler.obj
 0002:000119e8       ??_C@_0BI@ENIBGBKK@Invalid?5backreference?4?6@ 00449828     re-compiler.obj
 0002:00011a00       ??_C@_0BI@FMOJHALF@pattern_start_p?5?$CB?$DN?5NULL@ 00449840     re-compiler.obj
 0002:00011a18       ??_C@_0BM@CGOGEGKJ@RegExp?5compilation?5failed?$CB?6@ 00449858     re-compiler.obj
 0002:00011a34       ??_C@_0BN@FFNFJBOA@bc_ctx?4block_start_p?5?$CB?$DN?5NULL@ 00449874     re-compiler.obj
 0002:00011a54       ??_C@_0DF@KHCLNKDM@RegExp?5cache?5is?5full?$CB?5Remove?5th@ 00449894     re-compiler.obj
 0002:00011a8c       ??_C@_0CO@GOFLIEEG@Insert?5bytecode?5into?5RegExp?5cac@ 004498cc     re-compiler.obj
 0002:00011abc       ??_C@_0BC@DLPNILGA@re_parse_iterator@ 004498fc     re-parser.obj
 0002:00011ad0       ??_C@_0EP@JGPMCPJA@d?3?2hellox?2personal?2hellox_os?2je@ 00449910     re-parser.obj
 0002:00011b20       ??_C@_0BF@KCEFBELJ@do_number_arithmetic@ 00449960     opcodes-ecma-arithmetics.obj
 0002:00011b38       ??_C@_0FD@FMFMJKGB@d?3?2hellox?2personal?2hellox_os?2je@ 00449978     opcodes-ecma-arithmetics.obj
 0002:00011b8c       ??_C@_0BP@GFGJJGIG@ecma_number_is_nan?5?$CInum_right?$CJ@ 004499cc     opcodes-ecma-arithmetics.obj
 0002:00011bac       ??_C@_0BO@MFEEEILG@ecma_number_is_nan?5?$CInum_left?$CJ@ 004499ec     opcodes-ecma-arithmetics.obj
 0002:00011bcc       ??_C@_0BA@IMAPCECJ@opfunc_addition@ 00449a0c     opcodes-ecma-arithmetics.obj
 0002:00011bdc       ??_C@_0BC@LHGLHFKB@opfunc_unary_plus@ 00449a1c     opcodes-ecma-arithmetics.obj
 0002:00011bf0       ??_C@_0CD@MPHMDFK@ecma_number_is_nan?5?$CInum_var_val@ 00449a30     opcodes-ecma-arithmetics.obj
 0002:00011c14       ??_C@_0BD@FBEJOACH@opfunc_unary_minus@ 00449a54     opcodes-ecma-arithmetics.obj
 0002:00011c28       ??_C@_0BI@LKANPFLO@do_number_bitwise_logic@ 00449a68     opcodes-ecma-bitwise.obj
 0002:00011c40       ??_C@_0EP@NBFDDBOH@d?3?2hellox?2personal?2hellox_os?2je@ 00449a80     opcodes-ecma-bitwise.obj
 0002:00011c90       ??_C@_0EI@PNDEFAPO@?$CBECMA_IS_VALUE_ERROR?5?$CIleft_valu@ 00449ad0     opcodes-ecma-bitwise.obj
 0002:00011cd8       ??_C@_0BD@PMJJHK@opfunc_equal_value@ 00449b18     opcodes-ecma-equality.obj
 0002:00011cf0       ??_C@_0FA@EDOPHNBO@d?3?2hellox?2personal?2hellox_os?2je@ 00449b30     opcodes-ecma-equality.obj
 0002:00011d40       ??_C@_0EP@LFALGNMI@ecma_is_value_boolean?5?$CIcompare_@ 00449b80     opcodes-ecma-equality.obj
 0002:00011d90       ??_C@_0BH@OPKNBOD@opfunc_not_equal_value@ 00449bd0     opcodes-ecma-equality.obj
 0002:00011da8       ??_C@_0BB@INIFGMGC@opfunc_less_than@ 00449be8     opcodes-ecma-relational.obj
 0002:00011dc0       ??_C@_0FC@HLPFGLMA@d?3?2hellox?2personal?2hellox_os?2je@ 00449c00     opcodes-ecma-relational.obj
 0002:00011e14       ??_C@_0BE@MOFKJHCN@opfunc_greater_than@ 00449c54     opcodes-ecma-relational.obj
 0002:00011e28       ??_C@_0BK@LKKBFBNB@opfunc_less_or_equal_than@ 00449c68     opcodes-ecma-relational.obj
 0002:00011e44       ??_C@_0BN@MNMMJOHF@opfunc_greater_or_equal_than@ 00449c84     opcodes-ecma-relational.obj
 0002:00011e64       ??_C@_0BC@LAIFCEBG@opfunc_instanceof@ 00449ca4     opcodes-ecma-relational.obj
 0002:00011e78       ??_C@_09KHJEJHNE@opfunc_in@ 00449cb8     opcodes-ecma-relational.obj
 0002:00011e84       ??_C@_0M@GGEGPNEK@vm_var_decl@ 00449cc4     opcodes.obj
 0002:00011e90       ??_C@_0EC@FEIMOAIH@d?3?2hellox?2personal?2hellox_os?2je@ 00449cd0     opcodes.obj
 0002:00011ed4       ??_C@_0CH@EIJJJNEI@ecma_is_value_empty?5?$CIcompletion@ 00449d14     opcodes.obj
 0002:00011f00       ??_C@_0GD@GEBKOPMF@ecma_is_value_undefined?5?$CIecma_o@ 00449d40     opcodes.obj
 0002:00011f64       ??_C@_0O@JBCJJBAB@opfunc_typeof@ 00449da4     opcodes.obj
 0002:00011f74       ??_C@_0CC@HOHJEIGP@ecma_is_value_object?5?$CIleft_valu@ 00449db4     opcodes.obj
 0002:00011f98       ??_C@_0BE@EGIHDHED@opfunc_set_accessor@ 00449dd8     opcodes.obj
 0002:00011fb0       ??_C@_0EN@POOPBNPL@ecma_is_value_string?5?$CIaccessor_@ 00449df0     opcodes.obj
 0002:00012000       ??_C@_0BC@CFNPOCGD@vm_op_delete_prop@ 00449e40     opcodes.obj
 0002:00012018       ??_C@_0EF@COIHJIN@completion_value?5?$DN?$DN?5ecma_make_s@ 00449e58     opcodes.obj
 0002:00012060       ??_C@_0CG@IKHPNNBL@ecma_is_value_string?5?$CIstr_name_@ 00449ea0     opcodes.obj
 0002:00012088       ??_C@_0CB@GCANILLM@ecma_is_value_object?5?$CIobj_value@ 00449ec8     opcodes.obj
 0002:000120ac       ??_C@_0BB@CEFCJMGH@vm_op_delete_var@ 00449eec     opcodes.obj
 0002:000120c0       ??_C@_0DB@DGLLPHGF@ecma_is_lexical_environment?5?$CIre@ 00449f00     opcodes.obj
 0002:000120f4       ??_C@_0O@JNOFEAHP@opfunc_for_in@ 00449f34     opcodes.obj
 0002:00012104       ??_C@_0DO@LOKMIPKL@compl_val?5?$DN?$DN?5ecma_make_simple_v@ 00449f44     opcodes.obj
 0002:00012144       ??_C@_0CA@MDIGJMIA@ecma_is_value_empty?5?$CIcompl_val?$CJ@ 00449f84     opcodes.obj
 0002:00012164       ??_C@_0BH@MNMPEPCC@vm_stack_context_abort@ 00449fa4     vm-stack.obj
 0002:00012180       ??_C@_0ED@EPNAFBCG@d?3?2hellox?2personal?2hellox_os?2je@ 00449fc0     vm-stack.obj
 0002:000121c4       ??_C@_0BI@MDOLMBOK@vm_decode_branch_offset@ 0044a004     vm-stack.obj
 0002:000121dc       ??_C@_0BL@OOFLMCHO@length?5?$DO?$DN?51?5?$CG?$CG?5length?5?$DM?$DN?53@ 0044a01c     vm-stack.obj
 0002:000121f8       ??_C@_0BG@IAPBMDDJ@vm_stack_find_finally@ 0044a038     vm-stack.obj
 0002:00012210       ??_C@_0CK@HCHAFNDC@finally_type?5?$DM?$DN?5VM_CONTEXT_FINA@ 0044a050     vm-stack.obj
 0002:0001223c       ??_C@_0CB@EOIAAAFD@byte_code_p?$FL0?$FN?5?$DN?$DN?5CBC_EXT_OPCOD@ 0044a07c     vm-stack.obj
 0002:00012260       ??_C@_0EJ@HIEOLAHL@byte_code_p?$FL1?$FN?5?$DO?$DN?5CBC_EXT_FINAL@ 0044a0a0     vm-stack.obj
 0002:00012514       ??_C@_0BL@DGFDEJHD@vm_get_implicit_this_value@ 0044a354     vm.obj
 0002:00012530       ??_C@_0DN@GFIEBINP@d?3?2hellox?2personal?2hellox_os?2je@ 0044a370     vm.obj
 0002:00012570       ??_C@_0CI@HKGFFLPM@?$CBECMA_IS_VALUE_ERROR?5?$CIcompletio@ 0044a3b0     vm.obj
 0002:00012598       ??_C@_07LEGIKHHE@vm_loop@  0044a3d8     vm.obj
 0002:000125a0       ??_C@_0DG@NAIDPDLH@stack_top_p?5?$DO?5frame_ctx_p?9?$DOregi@ 0044a3e0     vm.obj
 0002:000125d8       ??_C@_0CD@OOKIBLOD@operands?5?$DN?$DN?5VM_OC_GET_THIS_LITE@ 0044a418     vm.obj
 0002:00012600       ??_C@_0EB@IEDCCJOB@operands?5?$DN?$DN?5VM_OC_GET_STACK?5?$HM?$HM?5@ 0044a440     vm.obj
 0002:00012644       ??_C@_0CH@NNAFLGBH@CBC_BRANCH_OFFSET_LENGTH?5?$CIopcod@ 0044a484     vm.obj
 0002:0001266c       ??_C@_0BL@ONLJGGMJ@opcode?5?$DN?$DN?5CBC_EXT_DEBUGGER@ 0044a4ac     vm.obj
 0002:00012688       ??_C@_0CO@JAMLLEGF@ecma_is_value_undefined?5?$CIprop_v@ 0044a4c8     vm.obj
 0002:000126b8       ??_C@_0BK@CKDPHMBC@literal_index?5?$DM?5ident_end@ 0044a4f8     vm.obj
 0002:000126d8       ??_C@_0GE@CDKMKADK@opcode?5?$DN?$DN?5CBC_PUSH_PROP_LITERAL@ 0044a518     vm.obj
 0002:00012740       ??_C@_0FH@CDHLMAFB@opcode?5?$DN?$DN?5CBC_POST_INCR_IDENT_P@ 0044a580     vm.obj
 0002:00012798       ??_C@_0EL@GIDPIEKK@opcode?5?$DN?$DN?5CBC_POST_INCR_PUSH_RE@ 0044a5d8     vm.obj
 0002:000127e8       ??_C@_0FN@NIKLLENL@opcode?5?$DN?$DN?5CBC_RETURN?5?$HM?$HM?5opcode?5@ 0044a628     vm.obj
 0002:00012848       ??_C@_0EB@BFFPLDFE@?$CKbyte_code_p?5?$DO?$DN?5CBC_CALL?5?$CG?$CG?5?$CKby@ 0044a688     vm.obj
 0002:0001288c       ??_C@_0BP@BPKAABGL@ecma_is_value_boolean?5?$CIresult?$CJ@ 0044a6cc     vm.obj
 0002:000128b0       ??_C@_0FE@NACEOKF@frame_ctx_p?9?$DOregisters_p?5?$CL?5regi@ 0044a6f0     vm.obj
 0002:00012904       ??_C@_0DN@IEJKBKAB@VM_GET_CONTEXT_TYPE?5?$CIcontext_to@ 0044a744     vm.obj
 0002:00012944       ??_C@_0DI@BICLLPA@VM_GET_CONTEXT_TYPE?5?$CIstack_top_@ 0044a784     vm.obj
 0002:00012980       ??_C@_0HF@BLFDFMPH@VM_GET_CONTEXT_TYPE?5?$CIstack_top_@ 0044a7c0     vm.obj
 0002:000129f8       ??_C@_0EB@LHLDALOI@VM_GET_CONTEXT_TYPE?5?$CIstack_top_@ 0044a838     vm.obj
 0002:00012a3c       ??_C@_0CD@JAHLFKML@VM_OC_HAS_PUT_RESULT?5?$CIopcode_da@ 0044a87c     vm.obj
 0002:00012a60       ??_C@_0BJ@JBAOOKBJ@vm_stack_p?5?$DM?5stack_top_p@ 0044a8a0     vm.obj
 0002:00012a80       ??_C@_0ED@NHOFKHJ@VM_GET_CONTEXT_TYPE?5?$CIstack_top_@ 0044a8c0     vm.obj
 0002:00012ac4       ??_C@_0CH@OIHLELOP@byte_code_p?$FL0?$FN?5?$DN?$DN?5CBC_ASSIGN_SE@ 0044a904     vm.obj
 0002:00012af0       ??_C@_0EC@OFDAIBIO@VM_GET_CONTEXT_TYPE?5?$CIstack_top_@ 0044a930     vm.obj
 0002:00012b34       ??_C@_0L@NNKJHLOD@vm_execute@ 0044a974     vm.obj
 0002:00012b40       ??_C@_0DB@IEGLBGAM@frame_ctx_p?9?$DOcall_operation?5?$DN?$DN?5@ 0044a980     vm.obj
 0002:00012b74       ??_C@_06ILHAAFIL@vm_run@   0044a9b4     vm.obj
 0002:00012b7c       ??_C@_0BC@FNLDELB@vm_is_strict_mode@ 0044a9bc     vm.obj
 0002:00012b90       ??_C@_0CJ@DMCIJMCE@JERRY_CONTEXT?5?$CIvm_top_context_p@ 0044a9d0     vm.obj
 0003:00000004       ___ctype                   0044ab84     ctype.obj
 0003:00000014       __lpdays                   0044ab94     time.obj
 0003:00000048       __days                     0044abc8     time.obj
 0003:0000007c       __timezone                 0044abfc     time.obj
 0003:00000080       __daylight                 0044ac00     time.obj
 0003:00000084       __dstbias                  0044ac04     time.obj
 0003:00000090       __fltused                  0044ac10     MSVCRT:fltused.obj
 0003:000000a0       ___isa_enabled             0044ac20     MSVCRT:cpu_disp.obj
 0003:000000c0       _errno                     0044ac40     errno.obj
 0003:000000e8       _jerry_global_heap         0044ac68     jcontext.obj
 0003:000800e8       ___isa_available           004cac68     MSVCRT:cpu_disp.obj
 0003:000800ec       ___favor                   004cac6c     MSVCRT:cpu_disp.obj
 0003:00080100       _jerry_global_hash_table   004cac80     <common>
 0003:00080900       _jerry_global_context      004cb480     <common>

 entry point at        0001:00024c41

 Static symbols

 0002:fffc81c0       .idata$6                   00400000     kernel32:KERNEL32.dll
 0000:fff31640       .debug$S                   00400000     kernel32:KERNEL32.dll
 0001:000001a4       _ecma_gc_get_object_next   00400464 f   ecma-gc.obj
 0001:000001db       _ecma_gc_is_object_visited 0040049b f   ecma-gc.obj
 0001:00000211       _ecma_gc_mark              004004d1 f   ecma-gc.obj
 0001:0000038d       _ecma_gc_mark_property     0040064d f   ecma-gc.obj
 0001:00000638       _ecma_gc_set_object_next   004008f8 f   ecma-gc.obj
 0001:00000677       _ecma_gc_set_object_visited 00400937 f   ecma-gc.obj
 0001:000006b7       _ecma_gc_sweep             00400977 f   ecma-gc.obj
 0001:000026a9       _ecma_divide_high_prec_by_10 00402969 f   ecma-helpers-errol.obj
 0001:00002a1c       _ecma_multiply_high_prec_by_10 00402cdc f   ecma-helpers-errol.obj
 0001:0000330e       _ecma_number_pack          004035ce f   ecma-helpers-number.obj
 0001:0000344c       _ecma_number_unpack        0040370c f   ecma-helpers-number.obj
 0001:00003511       _ecma_compare_ecma_strings_longpath 004037d1 f   ecma-helpers-string.obj
 0001:00004405       _ecma_string_get_number_in_desc_size 004046c5 f   ecma-helpers-string.obj
 0001:000047e1       _ecma_string_to_array_index 00404aa1 f   ecma-helpers-string.obj
 0001:00004bfa       _ecma_create_float_number  00404eba f   ecma-helpers-value.obj
 0001:00004dc9       _ecma_is_number_equal_to_positive_zero 00405089 f   ecma-helpers-value.obj
 0001:000050d1       _ecma_pointer_to_ecma_value 00405391 f   ecma-helpers-value.obj
 0001:00005187       _ecma_value_assign_float_number 00405447 f   ecma-helpers-value.obj
 0001:000057cb       _ecma_assert_object_contains_the_property 00405a8b f   ecma-helpers.obj
 0001:00005ba0       _ecma_create_property      00405e60 f   ecma-helpers.obj
 0001:000062fd       _ecma_free_internal_property 004065bd f   ecma-helpers.obj
 0001:00006e77       _ecma_lcache_invalidate_entry 00407137 f   ecma-lcache.obj
 0001:0000723d       _ecma_free_string_list     004074fd f   ecma-literal-storage.obj
 0001:00007d20       $LN67                      00407fe0     ecma-builtin-array-prototype.obj
 0001:00007d74       _ecma_builtin_array_prototype_helper_set_length 00408034 f   ecma-builtin-array-prototype.obj
 0001:00007db4       _ecma_builtin_array_prototype_join 00408074 f   ecma-builtin-array-prototype.obj
 0001:0000808c       _ecma_builtin_array_prototype_object_array_heap_sort_helper 0040834c f   ecma-builtin-array-prototype.obj
 0001:00008158       _ecma_builtin_array_prototype_object_array_to_heap_helper 00408418 f   ecma-builtin-array-prototype.obj
 0001:0000834c       _ecma_builtin_array_prototype_object_concat 0040860c f   ecma-builtin-array-prototype.obj
 0001:000084af       _ecma_builtin_array_prototype_object_every 0040876f f   ecma-builtin-array-prototype.obj
 0001:00008782       _ecma_builtin_array_prototype_object_filter 00408a42 f   ecma-builtin-array-prototype.obj
 0001:00008ad4       _ecma_builtin_array_prototype_object_for_each 00408d94 f   ecma-builtin-array-prototype.obj
 0001:00008d85       _ecma_builtin_array_prototype_object_index_of 00409045 f   ecma-builtin-array-prototype.obj
 0001:000090af       _ecma_builtin_array_prototype_object_last_index_of 0040936f f   ecma-builtin-array-prototype.obj
 0001:0000943d       _ecma_builtin_array_prototype_object_map 004096fd f   ecma-builtin-array-prototype.obj
 0001:000097ac       _ecma_builtin_array_prototype_object_pop 00409a6c f   ecma-builtin-array-prototype.obj
 0001:00009a47       _ecma_builtin_array_prototype_object_push 00409d07 f   ecma-builtin-array-prototype.obj
 0001:00009c9b       _ecma_builtin_array_prototype_object_reduce 00409f5b f   ecma-builtin-array-prototype.obj
 0001:0000a065       _ecma_builtin_array_prototype_object_reduce_right 0040a325 f   ecma-builtin-array-prototype.obj
 0001:0000a458       _ecma_builtin_array_prototype_object_reverse 0040a718 f   ecma-builtin-array-prototype.obj
 0001:0000a7e7       _ecma_builtin_array_prototype_object_shift 0040aaa7 f   ecma-builtin-array-prototype.obj
 0001:0000abb8       _ecma_builtin_array_prototype_object_slice 0040ae78 f   ecma-builtin-array-prototype.obj
 0001:0000afd0       _ecma_builtin_array_prototype_object_some 0040b290 f   ecma-builtin-array-prototype.obj
 0001:0000b2a3       _ecma_builtin_array_prototype_object_sort 0040b563 f   ecma-builtin-array-prototype.obj
 0001:0000b77e       _ecma_builtin_array_prototype_object_sort_compare_helper 0040ba3e f   ecma-builtin-array-prototype.obj
 0001:0000b9f2       _ecma_builtin_array_prototype_object_splice 0040bcb2 f   ecma-builtin-array-prototype.obj
 0001:0000c223       _ecma_builtin_array_prototype_object_to_locale_string 0040c4e3 f   ecma-builtin-array-prototype.obj
 0001:0000c4ac       _ecma_builtin_array_prototype_object_to_string 0040c76c f   ecma-builtin-array-prototype.obj
 0001:0000c57e       _ecma_builtin_array_prototype_object_unshift 0040c83e f   ecma-builtin-array-prototype.obj
 0001:0000c914       _ecma_op_array_get_to_string_at_index 0040cbd4 f   ecma-builtin-array-prototype.obj
 0001:0000ca7a       _ecma_builtin_arraybuffer_prototype_bytelength_getter 0040cd3a f   ecma-builtin-arraybuffer-prototype.obj
 0001:0000cb2f       _ecma_builtin_arraybuffer_prototype_object_slice 0040cdef f   ecma-builtin-arraybuffer-prototype.obj
 0001:0000ce4b       _ecma_builtin_boolean_prototype_object_to_string 0040d10b f   ecma-builtin-boolean-prototype.obj
 0001:0000cede       _ecma_builtin_boolean_prototype_object_value_of 0040d19e f   ecma-builtin-boolean-prototype.obj
 0001:0000cfec       _ecma_builtin_date_prototype_dispatch_get 0040d2ac f   ecma-builtin-date-prototype.obj
 0001:0000d0fc       $LN28                      0040d3bc     ecma-builtin-date-prototype.obj
 0001:0000d120       $LN20                      0040d3e0     ecma-builtin-date-prototype.obj
 0001:0000d3c7       _ecma_builtin_date_prototype_dispatch_set 0040d687 f   ecma-builtin-date-prototype.obj
 0001:0000d74f       $LN152                     0040da0f     ecma-builtin-date-prototype.obj
 0001:0000d75f       $LN60                      0040da1f     ecma-builtin-date-prototype.obj
 0001:0000d76f       _ecma_builtin_date_prototype_to_json 0040da2f f   ecma-builtin-date-prototype.obj
 0001:0000dc22       _ecma_builtin_date_parse   0040dee2 f   ecma-builtin-date.obj
 0001:0000e0ea       _ecma_builtin_date_utc     0040e3aa f   ecma-builtin-date.obj
 0001:0000e178       _ecma_date_construct_helper 0040e438 f   ecma-builtin-date.obj
 0001:0000e479       _ecma_date_parse_date_chars 0040e739 f   ecma-builtin-date.obj
 0001:0000e50e       _ecma_builtin_error_prototype_object_to_string 0040e7ce f   ecma-builtin-error-prototype.obj
 0001:0000e9c3       _ecma_builtin_function_prototype_object_apply 0040ec83 f   ecma-builtin-function-prototype.obj
 0001:0000eca9       _ecma_builtin_function_prototype_object_bind 0040ef69 f   ecma-builtin-function-prototype.obj
 0001:0000ef11       _ecma_builtin_function_prototype_object_call 0040f1d1 f   ecma-builtin-function-prototype.obj
 0001:0000f032       _ecma_builtin_function_helper_get_function_expression 0040f2f2 f   ecma-builtin-function.obj
 0001:0000f46e       $LN58                      0040f72e     ecma-builtin-global.obj
 0001:0000f49e       _ecma_builtin_global_object_byte_to_hex 0040f75e f   ecma-builtin-global.obj
 0001:0000f4fd       _ecma_builtin_global_object_character_is_in 0040f7bd f   ecma-builtin-global.obj
 0001:0000f542       _ecma_builtin_global_object_decode_uri_helper 0040f802 f   ecma-builtin-global.obj
 0001:0000f901       _ecma_builtin_global_object_encode_uri_helper 0040fbc1 f   ecma-builtin-global.obj
 0001:0000fc43       _ecma_builtin_global_object_escape 0040ff03 f   ecma-builtin-global.obj
 0001:0000fea0       _ecma_builtin_global_object_eval 00410160 f   ecma-builtin-global.obj
 0001:0000fef0       _ecma_builtin_global_object_is_finite 004101b0 f   ecma-builtin-global.obj
 0001:0000ffe5       _ecma_builtin_global_object_is_nan 004102a5 f   ecma-builtin-global.obj
 0001:000100c6       _ecma_builtin_global_object_parse_float 00410386 f   ecma-builtin-global.obj
 0001:000103cd       _ecma_builtin_global_object_parse_int 0041068d f   ecma-builtin-global.obj
 0001:0001081a       _ecma_builtin_global_object_print 00410ada f   ecma-builtin-global.obj
 0001:000109b0       _ecma_builtin_global_object_unescape 00410c70 f   ecma-builtin-global.obj
 0001:00010c94       $LN29                      00410f54     ecma-builtin-helpers-date.obj
 0001:000116a3       _ecma_date_value_copy_utf8_bytes 00411963 f   ecma-builtin-helpers-date.obj
 0001:000116c0       _ecma_date_value_month_to_abbreviation 00411980 f   ecma-builtin-helpers-date.obj
 0001:00011751       _ecma_date_value_number_to_bytes 00411a11 f   ecma-builtin-helpers-date.obj
 0001:00011b5a       _ecma_date_value_to_string_common 00411e1a f   ecma-builtin-helpers-date.obj
 0001:00011df7       _ecma_date_value_week_day_to_abbreviation 004120b7 f   ecma-builtin-helpers-date.obj
 0001:00012f5e       _ecma_builtin_json_array   0041321e f   ecma-builtin-json.obj
 0001:00013282       _ecma_builtin_json_check_id 00413542 f   ecma-builtin-json.obj
 0001:000132d9       _ecma_builtin_json_check_right_square_token 00413599 f   ecma-builtin-json.obj
 0001:0001331a       _ecma_builtin_json_define_value_property 004135da f   ecma-builtin-json.obj
 0001:00013414       _ecma_builtin_json_object  004136d4 f   ecma-builtin-json.obj
 0001:0001379d       _ecma_builtin_json_parse   00413a5d f   ecma-builtin-json.obj
 0001:0001392c       _ecma_builtin_json_parse_next_token 00413bec f   ecma-builtin-json.obj
 0001:00013a66       _ecma_builtin_json_parse_number 00413d26 f   ecma-builtin-json.obj
 0001:00013b6f       _ecma_builtin_json_parse_string 00413e2f f   ecma-builtin-json.obj
 0001:00013d43       _ecma_builtin_json_parse_value 00414003 f   ecma-builtin-json.obj
 0001:00013f6e       _ecma_builtin_json_quote   0041422e f   ecma-builtin-json.obj
 0001:00014215       _ecma_builtin_json_str     004144d5 f   ecma-builtin-json.obj
 0001:00014600       _ecma_builtin_json_stringify 004148c0 f   ecma-builtin-json.obj
 0001:00014c0a       _ecma_builtin_json_walk    00414eca f   ecma-builtin-json.obj
 0001:000151be       $LN96                      0041547e     ecma-builtin-math.obj
 0001:000151fa       _ecma_builtin_math_object_max_min 004154ba f   ecma-builtin-math.obj
 0001:000153cc       _ecma_builtin_number_prototype_helper_round 0041568c f   ecma-builtin-number-prototype.obj
 0001:00015432       _ecma_builtin_number_prototype_helper_to_string 004156f2 f   ecma-builtin-number-prototype.obj
 0001:00015528       _ecma_builtin_number_prototype_object_to_exponential 004157e8 f   ecma-builtin-number-prototype.obj
 0001:00015893       _ecma_builtin_number_prototype_object_to_fixed 00415b53 f   ecma-builtin-number-prototype.obj
 0001:00015bfe       _ecma_builtin_number_prototype_object_to_precision 00415ebe f   ecma-builtin-number-prototype.obj
 0001:00015fb1       _ecma_builtin_number_prototype_object_to_string 00416271 f   ecma-builtin-number-prototype.obj
 0001:00016576       _ecma_builtin_number_prototype_object_value_of 00416836 f   ecma-builtin-number-prototype.obj
 0001:0001674e       _ecma_builtin_object_prototype_object_has_own_property 00416a0e f   ecma-builtin-object-prototype.obj
 0001:000167f6       _ecma_builtin_object_prototype_object_is_prototype_of 00416ab6 f   ecma-builtin-object-prototype.obj
 0001:000168c0       _ecma_builtin_object_prototype_object_property_is_enumerable 00416b80 f   ecma-builtin-object-prototype.obj
 0001:0001698b       _ecma_builtin_object_prototype_object_to_locale_string 00416c4b f   ecma-builtin-object-prototype.obj
 0001:00016dcc       $LN77                      0041708c     ecma-builtin-object.obj
 0001:00016e00       _ecma_builtin_object_object_create 004170c0 f   ecma-builtin-object.obj
 0001:00016ed2       _ecma_builtin_object_object_define_properties 00417192 f   ecma-builtin-object.obj
 0001:0001716a       _ecma_builtin_object_object_define_property 0041742a f   ecma-builtin-object.obj
 0001:00017282       _ecma_builtin_object_object_freeze 00417542 f   ecma-builtin-object.obj
 0001:000173bc       _ecma_builtin_object_object_get_own_property_descriptor 0041767c f   ecma-builtin-object.obj
 0001:00017479       _ecma_builtin_object_object_get_prototype_of 00417739 f   ecma-builtin-object.obj
 0001:000174d5       _ecma_builtin_object_object_is_extensible 00417795 f   ecma-builtin-object.obj
 0001:00017519       _ecma_builtin_object_object_is_frozen 004177d9 f   ecma-builtin-object.obj
 0001:000175ea       _ecma_builtin_object_object_is_sealed 004178aa f   ecma-builtin-object.obj
 0001:000176a7       _ecma_builtin_object_object_seal 00417967 f   ecma-builtin-object.obj
 0001:00017858       _ecma_builtin_regexp_prototype_compile 00417b18 f   ecma-builtin-regexp-prototype.obj
 0001:00017d36       _ecma_builtin_regexp_prototype_exec 00417ff6 f   ecma-builtin-regexp-prototype.obj
 0001:00017e61       _ecma_builtin_regexp_prototype_test 00418121 f   ecma-builtin-regexp-prototype.obj
 0001:00017ed0       _ecma_builtin_regexp_prototype_to_string 00418190 f   ecma-builtin-regexp-prototype.obj
 0001:000182dd       _ecma_builtin_helper_split_match 0041859d f   ecma-builtin-string-prototype.obj
 0001:000187fe       $LN88                      00418abe     ecma-builtin-string-prototype.obj
 0001:0001884e       _ecma_builtin_string_prototype_object_char_at 00418b0e f   ecma-builtin-string-prototype.obj
 0001:00018a02       _ecma_builtin_string_prototype_object_char_code_at 00418cc2 f   ecma-builtin-string-prototype.obj
 0001:00018c3d       _ecma_builtin_string_prototype_object_concat 00418efd f   ecma-builtin-string-prototype.obj
 0001:00018d72       _ecma_builtin_string_prototype_object_conversion_helper 00419032 f   ecma-builtin-string-prototype.obj
 0001:00019026       _ecma_builtin_string_prototype_object_locale_compare 004192e6 f   ecma-builtin-string-prototype.obj
 0001:00019139       _ecma_builtin_string_prototype_object_match 004193f9 f   ecma-builtin-string-prototype.obj
 0001:0001962c       _ecma_builtin_string_prototype_object_replace 004198ec f   ecma-builtin-string-prototype.obj
 0001:00019867       _ecma_builtin_string_prototype_object_replace_append_substr 00419b27 f   ecma-builtin-string-prototype.obj
 0001:000198fe       _ecma_builtin_string_prototype_object_replace_get_string 00419bbe f   ecma-builtin-string-prototype.obj
 0001:00019f1e       _ecma_builtin_string_prototype_object_replace_loop 0041a1de f   ecma-builtin-string-prototype.obj
 0001:0001a167       _ecma_builtin_string_prototype_object_replace_main 0041a427 f   ecma-builtin-string-prototype.obj
 0001:0001a27d       _ecma_builtin_string_prototype_object_replace_match 0041a53d f   ecma-builtin-string-prototype.obj
 0001:0001a53a       _ecma_builtin_string_prototype_object_search 0041a7fa f   ecma-builtin-string-prototype.obj
 0001:0001a786       _ecma_builtin_string_prototype_object_slice 0041aa46 f   ecma-builtin-string-prototype.obj
 0001:0001a9fd       _ecma_builtin_string_prototype_object_split 0041acbd f   ecma-builtin-string-prototype.obj
 0001:0001b17b       _ecma_builtin_string_prototype_object_substr 0041b43b f   ecma-builtin-string-prototype.obj
 0001:0001b4ca       _ecma_builtin_string_prototype_object_substring 0041b78a f   ecma-builtin-string-prototype.obj
 0001:0001b763       _ecma_builtin_string_prototype_object_to_string 0041ba23 f   ecma-builtin-string-prototype.obj
 0001:0001b7d2       _ecma_builtin_string_prototype_object_trim 0041ba92 f   ecma-builtin-string-prototype.obj
 0001:0001b921       _ecma_builtin_string_object_from_char_code 0041bbe1 f   ecma-builtin-string.obj
 0001:0001be53       $LN107                     0041c113     ecma-builtins.obj
 0001:0001bea3       $LN99                      0041c163     ecma-builtins.obj
 0001:0001c088       $LN104                     0041c348     ecma-builtins.obj
 0001:0001c0d8       $LN97                      0041c398     ecma-builtins.obj
 0001:0001c0fd       _ecma_builtin_dispatch_routine 0041c3bd f   ecma-builtins.obj
 0001:0001c435       $LN56                      0041c6f5     ecma-builtins.obj
 0001:0001c56f       _ecma_builtin_get_property_count 0041c82f f   ecma-builtins.obj
 0001:0001c59b       _ecma_builtin_init_object  0041c85b f   ecma-builtins.obj
 0001:0001c956       _ecma_builtin_make_function_object_for_routine 0041cc16 f   ecma-builtins.obj
 0001:0001cd9b       _ecma_instantiate_builtin  0041d05b f   ecma-builtins.obj
 0001:0001da6b       $LN485                     0041dd2b     ecma-builtins.obj
 0001:000200d1       _ecma_op_function_construct_simple_or_external 00420391 f   ecma-function-object.obj
 0001:00023aae       _re_match_regexp           00423d6e f   ecma-regexp-object.obj
 0001:0002482a       $LN316                     00424aea     ecma-regexp-object.obj
 0001:000249c0       _re_set_data_property      00424c80 f   ecma-regexp-object.obj
 0001:00024ce6       _get_user_script           00424fa6 f   entry.obj
 0001:00024e44       _print_value               00425104 f   entry.obj
 0001:00026d8d       _eaddr                     0042704d f   stdio.obj
 0001:00026e33       _iaddr                     004270f3 f   stdio.obj
 0001:00026f04       _number                    004271c4 f   stdio.obj
 0001:0002709c       _skip_atoi                 0042735c f   stdio.obj
 0001:0002710c       __hx_aligned_free          004273cc f   sysmem.obj
 0001:00027296       ___ieee754_rem_pio2        00427556 f   trig.obj
 0001:000274fb       ___kernel_cos              004277bb f   trig.obj
 0001:000275c0       ___kernel_rem_pio2         00427880 f   trig.obj
 0001:00027b39       ___kernel_sin              00427df9 f   trig.obj
 0001:00027bc0       ___kernel_tan              00427e80 f   trig.obj
 0001:00027f31       _jerry_assert_api_available 004281f1 f   jerry.obj
 0001:000282b4       _jmem_heap_alloc_block_internal 00428574 f   jmem-heap.obj
 0001:000285e0       _jmem_heap_gc_and_alloc_block 004288a0 f   jmem-heap.obj
 0001:00028a02       _lit_char_is_unicode_letter 00428cc2 f   lit-char-helpers.obj
 0001:00028c44       _search_char_in_char_array 00428f04 f   lit-char-helpers.obj
 0001:00028c81       _search_char_in_interval_array 00428f41 f   lit-char-helpers.obj
 0001:00028fa3       _convert_code_point_to_high_surrogate 00429263 f   lit-strings.obj
 0001:0002a98c       $LN77                      0042ac4c     js-lexer.obj
 0001:0002a9b8       _lexer_parse_identifier    0042ac78 f   js-lexer.obj
 0001:0002ab81       _lexer_parse_number        0042ae41 f   js-lexer.obj
 0001:0002ad0f       _lexer_parse_string        0042afcf f   js-lexer.obj
 0001:0002afab       _lexer_process_char_literal 0042b26b f   js-lexer.obj
 0001:0002b1ea       _skip_spaces               0042b4aa f   js-lexer.obj
 0001:0002b3fd       _parser_append_binary_token 0042b6bd f   js-parser-expr.obj
 0001:0002b8c2       _parser_append_object_literal_item 0042bb82 f   js-parser-expr.obj
 0001:0002b993       _parser_emit_unary_lvalue_opcode 0042bc53 f   js-parser-expr.obj
 0001:0002bc38       _parser_parse_array_literal 0042bef8 f   js-parser-expr.obj
 0001:0002c068       _parser_parse_object_literal 0042c328 f   js-parser-expr.obj
 0001:0002c208       _parser_parse_unary_expression 0042c4c8 f   js-parser-expr.obj
 0001:0002c57c       _parser_process_binary_opcodes 0042c83c f   js-parser-expr.obj
 0001:0002c7a0       _parser_process_unary_expression 0042ca60 f   js-parser-expr.obj
 0001:0002ccf3       _parser_push_result        0042cfb3 f   js-parser-expr.obj
 0001:0002ce08       _parser_data_free          0042d0c8 f   js-parser-mem.obj
 0001:0002d63c       _parser_scan_primary_expression 0042d8fc f   js-parser-scanner.obj
 0001:0002d78c       _parser_scan_primary_expression_end 0042da4c f   js-parser-scanner.obj
 0001:0002d8b6       _parser_scan_statement     0042db76 f   js-parser-scanner.obj
 0001:0002da82       $LN36                      0042dd42     js-parser-scanner.obj
 0001:0002dab2       $LN31                      0042dd72     js-parser-scanner.obj
 0001:0002df11       _parser_parse_break_statement 0042e1d1 f   js-parser-statm.obj
 0001:0002e0ab       _parser_parse_case_statement 0042e36b f   js-parser-statm.obj
 0001:0002e15d       _parser_parse_continue_statement 0042e41d f   js-parser-statm.obj
 0001:0002e351       _parser_parse_default_statement 0042e611 f   js-parser-statm.obj
 0001:0002e3dc       _parser_parse_do_while_statement_end 0042e69c f   js-parser-statm.obj
 0001:0002e4ac       _parser_parse_enclosed_expr 0042e76c f   js-parser-statm.obj
 0001:0002e4f5       _parser_parse_for_statement_end 0042e7b5 f   js-parser-statm.obj
 0001:0002e64a       _parser_parse_for_statement_start 0042e90a f   js-parser-statm.obj
 0001:0002e99f       _parser_parse_function_statement 0042ec5f f   js-parser-statm.obj
 0001:0002eb56       _parser_parse_if_statement_end 0042ee16 f   js-parser-statm.obj
 0001:0002ec2a       _parser_parse_if_statement_start 0042eeea f   js-parser-statm.obj
 0001:0002ec71       _parser_parse_label        0042ef31 f   js-parser-statm.obj
 0001:0002f4fd       $LN229                     0042f7bd     js-parser-statm.obj
 0001:0002f521       $LN230                     0042f7e1     js-parser-statm.obj
 0001:0002f549       _parser_parse_switch_statement_start 0042f809 f   js-parser-statm.obj
 0001:0002f785       _parser_parse_try_statement_end 0042fa45 f   js-parser-statm.obj
 0001:0002f9c7       _parser_parse_var_statement 0042fc87 f   js-parser-statm.obj
 0001:0002fa98       _parser_parse_while_statement_end 0042fd58 f   js-parser-statm.obj
 0001:0002fbaa       _parser_parse_while_statement_start 0042fe6a f   js-parser-statm.obj
 0001:0002fc77       _parser_parse_with_statement_end 0042ff37 f   js-parser-statm.obj
 0001:0002fd44       _parser_parse_with_statement_start 00430004 f   js-parser-statm.obj
 0001:0002fdad       _parser_save_range         0043006d f   js-parser-statm.obj
 0001:0002fdd5       _parser_set_range          00430095 f   js-parser-statm.obj
 0001:0002fe00       _parser_stack_change_last_uint8 004300c0 f   js-parser-statm.obj
 0001:0002fe4d       _parser_stack_iterator_read_uint8 0043010d f   js-parser-statm.obj
 0001:0002fe80       _parser_statement_length   00430140 f   js-parser-statm.obj
 0001:0003058c       _parser_emit_two_bytes     0043084c f   js-parser-util.obj
 0001:00030918       _parse_update_branches     00430bd8 f   js-parser.obj
 0001:00030adb       _parser_compute_indicies   00430d9b f   js-parser.obj
 0001:0003117d       _parser_encode_literal     0043143d f   js-parser.obj
 0001:000311b6       _parser_free_literals      00431476 f   js-parser.obj
 0001:000311f6       _parser_generate_initializers 004314b6 f   js-parser.obj
 0001:000318e0       _parser_parse_source       00431ba0 f   js-parser.obj
 0001:00031ad7       _parser_post_processing    00431d97 f   js-parser.obj
 0001:00032472       _parser_update_backward_branch 00432732 f   js-parser.obj
 0001:000324df       _parser_update_forward_branch 0043279f f   js-parser.obj
 0001:00032580       _re_bytecode_list_append   00432840 f   re-bytecode.obj
 0001:000326f4       _re_realloc_regexp_bytecode_block 004329b4 f   re-bytecode.obj
 0001:000327ae       _re_append_char_class      00432a6e f   re-compiler.obj
 0001:00032ae9       _re_insert_into_group      00432da9 f   re-compiler.obj
 0001:00032c0f       _re_insert_into_group_with_jump 00432ecf f   re-compiler.obj
 0001:00032c42       _re_insert_simple_iterator 00432f02 f   re-compiler.obj
 0001:00032cc6       _re_parse_alternative      00432f86 f   re-compiler.obj
 0001:000330c6       $LN68                      00433386     re-compiler.obj
 0001:0003311e       _re_count_num_of_groups    004333de f   re-parser.obj
 0001:00033181       _re_hex_lookup             00433441 f   re-parser.obj
 0001:000335ed       _re_parse_iterator         004338ad f   re-parser.obj
 0001:00033bc1       _re_parse_non_greedy_char  00433e81 f   re-parser.obj
 0001:00033be1       _re_parse_octal            00433ea1 f   re-parser.obj
 0001:00034ecd       _vm_decode_branch_offset   0043518d f   vm-stack.obj
 0001:000351e3       _opfunc_call               004354a3 f   vm.obj
 0001:000352eb       _opfunc_construct          004355ab f   vm.obj
 0001:00035373       _vm_construct_literal_object 00435633 f   vm.obj
 0001:000353bf       _vm_execute                0043567f f   vm.obj
 0001:000354d7       _vm_get_implicit_this_value 00435797 f   vm.obj
 0001:00035532       _vm_init_loop              004357f2 f   vm.obj
 0001:0003578e       _vm_loop                   00435a4e f   vm.obj
 0001:0003757a       $LN845                     0043783a     vm.obj
 0001:000376d6       _vm_op_get_value           00437996 f   vm.obj
 0001:000377c4       _vm_op_set_value           00437a84 f   vm.obj
 0001:000379e0       $$000000                   00437ca0     MSVCRT:ftol2.obj
 0001:00037aa0       $$000000                   00437d60     MSVCRT:llshl.obj
 0001:00037ac0       $$000000                   00437d80     MSVCRT:ulldvrm.obj
 0002:00001a60       _nums_with_ascending_length 004398a0     ecma-helpers-string.obj
 0002:000038f4       _ecma_property_hashmap_steps 0043b734     ecma-property-hashmap.obj
 0002:00005708       _unescaped_uri_set         0043d548     ecma-builtin-global.obj
 0002:00005718       _unescaped_uri_component_set 0043d558     ecma-builtin-global.obj
 0002:00005728       _ecma_escape_set           0043d568     ecma-builtin-global.obj
 0002:00006a58       ?digit_chars@?7??ecma_builtin_number_prototype_object_to_string@@9@9 0043e898     ecma-builtin-number-prototype.obj
 0002:00008528       _ecma_builtin_property_list_references 00440368     ecma-builtins.obj
 0002:000085b8       ?builtin_number_list@?BF@??ecma_builtin_try_to_instantiate_property@@9@9 004403f8     ecma-builtins.obj
 0002:0000a064       ?prototype_str_p@?1??ecma_op_function_try_lazy_instantiate_property@@9@9 00441ea4     ecma-function-object.obj
 0002:0000bff0       _atanhi                    00443e30     atan.obj
 0002:0000c010       _atanlo                    00443e50     atan.obj
 0002:0000c0c0       _halF                      00443f00     exp.obj
 0002:0000c0d0       _ln2HI                     00443f10     exp.obj
 0002:0000c0e0       _ln2LO                     00443f20     exp.obj
 0002:0000c180       _Zero                      00443fc0     math.obj
 0002:0000c320       _init_jk                   00444160     trig.obj
 0002:0000c330       _PIo2                      00444170     trig.obj
 0002:0000c370       _ipio2                     004441b0     trig.obj
 0002:0000c478       _npio2_hw                  004442b8     trig.obj
 0002:0000cd60       _unicode_letter_interv_sps 00444ba0     lit-char-helpers.obj
 0002:0000cf08       _unicode_letter_interv_lens 00444d48     lit-char-helpers.obj
 0002:0000cfdc       _unicode_separator_chars   00444e1c     lit-char-helpers.obj
 0002:0000cfe8       _unicode_letter_chars      00444e28     lit-char-helpers.obj
 0002:0000d058       _unicode_non_letter_ident_part_interv_sps 00444e98     lit-char-helpers.obj
 0002:0000d120       _unicode_non_letter_ident_part_interv_lens 00444f60     lit-char-helpers.obj
 0002:0000d184       _unicode_non_letter_ident_part_chars 00444fc4     lit-char-helpers.obj
 0002:0000d2f0       ?lit_magic_strings@?1??lit_get_magic_string_utf8@@9@9 00445130     lit-magic-strings.obj
 0002:0000d698       ?lit_magic_string_sizes@?1??lit_get_magic_string_size@@9@9 004454d8     lit-magic-strings.obj
 0002:0000d788       ?lit_magic_string_size_block_starts@?1??lit_get_magic_string_size_block_start@@9@9 004455c8     lit-magic-strings.obj
 0002:0000e868       _keyword_length_2          004466a8     js-lexer.obj
 0002:0000e888       _keyword_length_3          004466c8     js-lexer.obj
 0002:0000e8b8       _keyword_length_4          004466f8     js-lexer.obj
 0002:0000e900       _keyword_length_5          00446740     js-lexer.obj
 0002:0000e950       _keyword_length_6          00446790     js-lexer.obj
 0002:0000e998       _keyword_length_7          004467d8     js-lexer.obj
 0002:0000e9c8       _keyword_length_8          00446808     js-lexer.obj
 0002:0000e9e8       _keyword_length_9          00446828     js-lexer.obj
 0002:0000ea00       _keyword_length_10         00446840     js-lexer.obj
 0002:0000ea18       _lexer_get_literal         00446858     js-lexer.obj
 0002:0000ea20       _lexer_set_literal         00446860     js-lexer.obj
 0002:0000ea28       _keyword_string_list       00446868     js-lexer.obj
 0002:0000f0d0       _parser_binary_precedence_table 00446f10     js-parser-expr.obj
 0002:0000ff68       ?statement_lengths@?1??parser_statement_length@@9@9 00447da8     js-parser-statm.obj
 0002:000122b0       _vm_decode_table           0044a0f0     vm.obj
 0003:00000000       __ctype                    0044ab80     ctype.obj
 0003:00000008       _next                      0044ab88     rand.obj
 0003:0000000c       _digits                    0044ab8c     stdio.obj
 0003:00000010       _upper_digits              0044ab90     stdio.obj
 0003:000000c4       _tb                        0044ac44     time.obj
 0004:00000060       $R000000                   004cb5e0     * linker generated manifest res *
